 newton

 Timestamp is 4a90263b (Sat Aug 22 10:09:15 2009)

 Preferred load address is 0000000180000000

 Start         Length     Name                   Class
 0001:00000000 0009eb4eH .text                   CODE
 0001:0009eb50 0000001fH .text$0                 CODE
 0001:0009eb70 00000080H .text$00                CODE
 0001:0009ebf0 00000248H .text$x                 CODE
 0001:0009ee40 0000000cH .text$yc                CODE
 0001:0009ee50 00000003H .text$yd                CODE
 0002:00000000 00000290H .idata$5                DATA
 0002:00000290 00000008H .CRT$XCA                DATA
 0002:00000298 00000008H .CRT$XCU                DATA
 0002:000002a0 00000008H .CRT$XCZ                DATA
 0002:000002a8 00000008H .CRT$XIA                DATA
 0002:000002b0 00000018H .CRT$XIC                DATA
 0002:000002c8 00000008H .CRT$XIZ                DATA
 0002:000002d0 00000008H .CRT$XPA                DATA
 0002:000002d8 00000008H .CRT$XPX                DATA
 0002:000002e0 00000008H .CRT$XPXA               DATA
 0002:000002e8 00000008H .CRT$XPZ                DATA
 0002:000002f0 00000008H .CRT$XTA                DATA
 0002:000002f8 00000008H .CRT$XTZ                DATA
 0002:00000300 00004518H .rdata                  DATA
 0002:00004818 00000059H .rdata$debug            DATA
 0002:00004878 00000008H .rtc$IAA                DATA
 0002:00004880 00000008H .rtc$IZZ                DATA
 0002:00004888 00000008H .rtc$TAA                DATA
 0002:00004890 00000008H .rtc$TZZ                DATA
 0002:00004898 00007840H .xdata                  DATA
 0002:0000c0d8 00000014H .idata$2                DATA
 0002:0000c0ec 00000014H .idata$3                DATA
 0002:0000c100 00000290H .idata$4                DATA
 0002:0000c390 000005e2H .idata$6                DATA
 0002:0000c980 000027aaH .edata                  DATA
 0003:00000000 0000250cH .data                   DATA
 0003:00002520 00006450H .bss                    DATA
 0004:00000000 000051fcH .pdata                  DATA

  Address         Publics by Value              Rva+Base               Lib:Object

 0000:00000000       ___safe_se_handler_count   0000000000000000     <absolute>
 0000:00000000       ___safe_se_handler_table   0000000000000000     <absolute>
 0000:00000000       __ImageBase                0000000180000000     <linker-defined>
 0001:00000000       DllMain                    0000000180001000 f   Newton.obj
 0001:00000010       NewtonGetMemoryUsed        0000000180001010 f   Newton.obj
 0001:00000020       NewtonInvalidateCache      0000000180001020 f   Newton.obj
 0001:00000030       NewtonSetPlatformArchitecture 0000000180001030 f   Newton.obj
 0001:00000040       NewtonGetPlatformArchitecture 0000000180001040 f   Newton.obj
 0001:00000050       NewtonSetThreadsCount      0000000180001050 f   Newton.obj
 0001:00000060       NewtonGetThreadsCount      0000000180001060 f   Newton.obj
 0001:00000070       NewtonSetMultiThreadSolverOnSingleIsland 0000000180001070 f   Newton.obj
 0001:00000080       NewtonGetMultiThreadSolverOnSingleIsland 0000000180001080 f   Newton.obj
 0001:00000090       NewtonSetSolverModel       0000000180001090 f   Newton.obj
 0001:000000a0       NewtonSetFrictionModel     00000001800010a0 f   Newton.obj
 0001:000000b0       NewtonSetPerformanceClock  00000001800010b0 f   Newton.obj
 0001:000000c0       NewtonReadPerformanceTicks 00000001800010c0 f   Newton.obj
 0001:000000d0       NewtonCollisionUpdate      00000001800010d0 f   Newton.obj
 0001:00000110       NewtonSetIslandUpdateEvent 0000000180001110 f   Newton.obj
 0001:00000120       NewtonSetCollisionDestructor 0000000180001120 f   Newton.obj
 0001:00000130       NewtonSetBodyLeaveWorldEvent 0000000180001130 f   Newton.obj
 0001:00000140       NewtonWorldGetVersion      0000000180001140 f   Newton.obj
 0001:00000150       NewtonWorldSetUserData     0000000180001150 f   Newton.obj
 0001:00000160       NewtonWorldGetUserData     0000000180001160 f   Newton.obj
 0001:00000170       NewtonWorldSetDestructorCallBack 0000000180001170 f   Newton.obj
 0001:00000180       NewtonWorldGetDestructorCallBack 0000000180001180 f   Newton.obj
 0001:00000190       NewtonWorldGetBodyCount    0000000180001190 f   Newton.obj
 0001:000001a0       NewtonWorldGetConstraintCount 00000001800011a0 f   Newton.obj
 0001:000001b0       NewtonIslandGetBody        00000001800011b0 f   Newton.obj
 0001:000001c0       NewtonMaterialGetDefaultGroupID 00000001800011c0 f   Newton.obj
 0001:000001d0       NewtonMaterialCreateGroupID 00000001800011d0 f   Newton.obj
 0001:000001e0       NewtonMaterialDestroyAllGroupID 00000001800011e0 f   Newton.obj
 0001:000001f0       NewtonMaterialSetDefaultCollidable 00000001800011f0 f   Newton.obj
 0001:00000220       NewtonMaterialSetContinuousCollisionMode 0000000180001220 f   Newton.obj
 0001:00000250       NewtonWorldGetFirstMaterial 0000000180001250 f   Newton.obj
 0001:00000260       NewtonWorldGetNextMaterial 0000000180001260 f   Newton.obj
 0001:00000270       NewtonMaterialGetContactFaceAttribute 0000000180001270 f   Newton.obj
 0001:00000280       NewtonMaterialGetContactPositionAndNormal 0000000180001280 f   Newton.obj
 0001:000002b0       NewtonMaterialGetContactTangentDirections 00000001800012b0 f   Newton.obj
 0001:000002e0       NewtonMaterialSetContactFrictionState 00000001800012e0 f   Newton.obj
 0001:00000310       NewtonMaterialSetContactNormalAcceleration 0000000180001310 f   Newton.obj
 0001:00000320       NewtonMaterialSetContactTangentAcceleration 0000000180001320 f   Newton.obj
 0001:00000340       NewtonCreateNull           0000000180001340 f   Newton.obj
 0001:00000350       NewtonCreateBox            0000000180001350 f   Newton.obj
 0001:00000460       NewtonCreateSphere         0000000180001460 f   Newton.obj
 0001:000005f0       NewtonCreateCone           00000001800015f0 f   Newton.obj
 0001:000006f0       NewtonCreateCapsule        00000001800016f0 f   Newton.obj
 0001:000007f0       NewtonCreateCylinder       00000001800017f0 f   Newton.obj
 0001:000008f0       NewtonCreateChamferCylinder 00000001800018f0 f   Newton.obj
 0001:000009f0       NewtonCreateConvexHullFromMesh 00000001800019f0 f   Newton.obj
 0001:00000a00       NewtonConvexHullModifierGetMatrix 0000000180001a00 f   Newton.obj
 0001:00000a60       NewtonConvexHullModifierSetMatrix 0000000180001a60 f   Newton.obj
 0001:00000a70       NewtonCollisionIsTriggerVolume 0000000180001a70 f   Newton.obj
 0001:00000a90       NewtonCollisionSetAsTriggerVolume 0000000180001a90 f   Newton.obj
 0001:00000aa0       NewtonConvexCollisionCalculateVolume 0000000180001aa0 f   Newton.obj
 0001:00000ab0       NewtonTreeCollisionSetUserRayCastCallback 0000000180001ab0 f   Newton.obj
 0001:00000ac0       NewtonTreeCollisionBeginBuild 0000000180001ac0 f   Newton.obj
 0001:00000ad0       NewtonTreeCollisionAddFace 0000000180001ad0 f   Newton.obj
 0001:00000af0       NewtonTreeCollisionEndBuild 0000000180001af0 f   Newton.obj
 0001:00000b00       NewtonSceneCollisionCreateProxy 0000000180001b00 f   Newton.obj
 0001:00000b10       NewtonSceneCollisionDestroyProxy 0000000180001b10 f   Newton.obj
 0001:00000b20       NewtonSceneCollisionOptimize 0000000180001b20 f   Newton.obj
 0001:00000b30       NewtonCollisionPointDistance 0000000180001b30 f   Newton.obj
 0001:00000b60       NewtonCollisionClosestPoint 0000000180001b60 f   Newton.obj
 0001:00000bb0       NewtonCollisionCollide     0000000180001bb0 f   Newton.obj
 0001:00000c20       NewtonCollisionCollideContinue 0000000180001c20 f   Newton.obj
 0001:00000cd0       NewtonCollisionForEachPolygonDo 0000000180001cd0 f   Newton.obj
 0001:00000d30       NewtonCollisionMakeUnique  0000000180001d30 f   Newton.obj
 0001:00000d40       NewtonReleaseCollision     0000000180001d40 f   Newton.obj
 0001:00000d50       NewtonCollisionSerialize   0000000180001d50 f   Newton.obj
 0001:00000d60       NewtonCreateCollisionFromSerialization 0000000180001d60 f   Newton.obj
 0001:00000d70       NewtonCollisionGetInfo     0000000180001d70 f   Newton.obj
 0001:00000d80       NewtonGetEulerAngle        0000000180001d80 f   Newton.obj
 0001:00000dc0       NewtonCalculateSpringDamperAcceleration 0000000180001dc0 f   Newton.obj
 0001:00000e20       NewtonCreateBody           0000000180001e20 f   Newton.obj
 0001:00000e30       NewtonDestroyBody          0000000180001e30 f   Newton.obj
 0001:00000e40       NewtonBodySetMatrix        0000000180001e40 f   Newton.obj
 0001:00000ec0       NewtonBodyGetFirstJoint    0000000180001ec0 f   Newton.obj
 0001:00000ed0       NewtonBodyGetNextJoint     0000000180001ed0 f   Newton.obj
 0001:00000ee0       NewtonBodyGetFirstContactJoint 0000000180001ee0 f   Newton.obj
 0001:00000ef0       NewtonBodyGetNextContactJoint 0000000180001ef0 f   Newton.obj
 0001:00000f00       NewtonBodySetCollision     0000000180001f00 f   Newton.obj
 0001:00000f10       NewtonBodySetFreezeState   0000000180001f10 f   Newton.obj
 0001:00000f20       NewtonBallSetUserCallback  0000000180001f20 f   Newton.obj
 0001:00000f30       NewtonBallGetJointAngle    0000000180001f30 f   Newton.obj
 0001:00000f70       NewtonBallGetJointOmega    0000000180001f70 f   Newton.obj
 0001:00000fb0       NewtonBallGetJointForce    0000000180001fb0 f   Newton.obj
 0001:00000ff0       NewtonHingeGetJointAngle   0000000180001ff0 f   Newton.obj
 0001:00000ff0       NewtonCorkscrewGetJointAngle 0000000180001ff0 f   Newton.obj
 0001:00000ff0       NewtonUniversalGetJointAngle0 0000000180001ff0 f   Newton.obj
 0001:00000ff0       NewtonSliderGetJointPosit  0000000180001ff0 f   Newton.obj
 0001:00001000       NewtonHingeCalculateStopAlpha 0000000180002000 f   Newton.obj
 0001:00001010       NewtonHingeGetJointForce   0000000180002010 f   Newton.obj
 0001:00001050       NewtonSliderCalculateStopAccel 0000000180002050 f   Newton.obj
 0001:00001060       NewtonSliderGetJointForce  0000000180002060 f   Newton.obj
 0001:000010a0       NewtonHingeSetUserCallback 00000001800020a0 f   Newton.obj
 0001:000010a0       NewtonUniversalSetUserCallback 00000001800020a0 f   Newton.obj
 0001:000010a0       NewtonCorkscrewSetUserCallback 00000001800020a0 f   Newton.obj
 0001:000010a0       NewtonSliderSetUserCallback 00000001800020a0 f   Newton.obj
 0001:000010b0       NewtonUniversalGetJointAngle1 00000001800020b0 f   Newton.obj
 0001:000010b0       NewtonCorkscrewGetJointPosit 00000001800020b0 f   Newton.obj
 0001:000010c0       NewtonCorkscrewGetJointVeloc 00000001800020c0 f   Newton.obj
 0001:000010c0       NewtonSliderGetJointVeloc  00000001800020c0 f   Newton.obj
 0001:000010d0       NewtonCorkscrewGetJointOmega 00000001800020d0 f   Newton.obj
 0001:000010d0       NewtonHingeGetJointOmega   00000001800020d0 f   Newton.obj
 0001:000010d0       NewtonUniversalGetJointOmega0 00000001800020d0 f   Newton.obj
 0001:000010e0       NewtonCorkscrewCalculateStopAlpha 00000001800020e0 f   Newton.obj
 0001:000010e0       NewtonUniversalCalculateStopAlpha0 00000001800020e0 f   Newton.obj
 0001:000010f0       NewtonCorkscrewCalculateStopAccel 00000001800020f0 f   Newton.obj
 0001:00001100       NewtonUniversalGetJointForce 0000000180002100 f   Newton.obj
 0001:00001100       NewtonCorkscrewGetJointForce 0000000180002100 f   Newton.obj
 0001:00001140       NewtonUniversalGetJointOmega1 0000000180002140 f   Newton.obj
 0001:00001150       NewtonUniversalCalculateStopAlpha1 0000000180002150 f   Newton.obj
 0001:00001160       NewtonUpVectorGetPin       0000000180002160 f   Newton.obj
 0001:000011a0       NewtonUserJointAddGeneralRow 00000001800021a0 f   Newton.obj
 0001:000011b0       NewtonUserJointSetRowMaximumFriction 00000001800021b0 f   Newton.obj
 0001:000011c0       NewtonUserJointSetRowMinimumFriction 00000001800021c0 f   Newton.obj
 0001:000011d0       NewtonUserJointSetRowAcceleration 00000001800021d0 f   Newton.obj
 0001:000011e0       NewtonUserJointSetRowSpringDamperAcceleration 00000001800021e0 f   Newton.obj
 0001:000011f0       NewtonUserJointSetRowStiffness 00000001800021f0 f   Newton.obj
 0001:00001200       NewtonUserJointGetRowForce 0000000180002200 f   Newton.obj
 0001:00001210       NewtonUserJointSetFeedbackCollectorCallback 0000000180002210 f   Newton.obj
 0001:00001220       NewtonJointSetUserData     0000000180002220 f   Newton.obj
 0001:00001230       NewtonJointGetUserData     0000000180002230 f   Newton.obj
 0001:00001240       NewtonJointGetInfo         0000000180002240 f   Newton.obj
 0001:00001250       NewtonJointSetStiffness    0000000180002250 f   Newton.obj
 0001:00001260       NewtonJointGetStiffness    0000000180002260 f   Newton.obj
 0001:00001270       NewtonJointSetDestructor   0000000180002270 f   Newton.obj
 0001:00001280       NewtonDestroyJoint         0000000180002280 f   Newton.obj
 0001:00001290       NewtonMeshDestroy          0000000180002290 f   Newton.obj
 0001:000012b0       NewtonMeshCalculateVertexNormals 00000001800022b0 f   Newton.obj
 0001:000012c0       NewtonMeshApplySphericalMapping 00000001800022c0 f   Newton.obj
 0001:000012d0       NewtonMeshApplyBoxMapping  00000001800022d0 f   Newton.obj
 0001:000012e0       NewtonMeshApplyCylindricalMapping 00000001800022e0 f   Newton.obj
 0001:000012f0       NewtonMeshBeginFace        00000001800022f0 f   Newton.obj
 0001:00001300       NewtonMeshAddFace          0000000180002300 f   Newton.obj
 0001:00001320       NewtonMeshEndFace          0000000180002320 f   Newton.obj
 0001:00001330       NewtonMeshGetVertexCount   0000000180002330 f   Newton.obj
 0001:00001340       NewtonMeshGetVertexStreams 0000000180002340 f   Newton.obj
 0001:00001370       NewtonMeshGetIndirectVertexStreams 0000000180002370 f   Newton.obj
 0001:000013f0       NewtonMeshFirstMaterial    00000001800023f0 f   Newton.obj
 0001:00001400       NewtonMeshNextMaterial     0000000180002400 f   Newton.obj
 0001:00001410       NewtonMeshMaterialGetMaterial 0000000180002410 f   Newton.obj
 0001:00001420       NewtonMeshMaterialGetIndexCount 0000000180002420 f   Newton.obj
 0001:00001430       NewtonMeshMaterialGetIndexStream 0000000180002430 f   Newton.obj
 0001:00001440       NewtonMeshMaterialGetIndexStreamShort 0000000180002440 f   Newton.obj
 0001:00001450       NewtonDestroy              0000000180002450 f   Newton.obj
 0001:000014a0       NewtonWorldCriticalSectionLock 00000001800024a0 f   Newton.obj
 0001:000014c0       NewtonWorldCriticalSectionUnlock 00000001800024c0 f   Newton.obj
 0001:000014e0       NewtonUpdate               00000001800024e0 f   Newton.obj
 0001:000015a0       NewtonSetMinimumFrameRate  00000001800025a0 f   Newton.obj
 0001:000015e0       NewtonWorldGetFirstBody    00000001800025e0 f   Newton.obj
 0001:00001600       NewtonWorldGetNextBody     0000000180002600 f   Newton.obj
 0001:00001620       NewtonIslandGetBodyAABB    0000000180002620 f   Newton.obj
 0001:00001690       NewtonMaterialSetSurfaceThickness 0000000180002690 f   Newton.obj
 0001:000016e0       NewtonMaterialSetDefaultFriction 00000001800026e0 f   Newton.obj
 0001:00001790       NewtonMaterialSetDefaultElasticity 0000000180002790 f   Newton.obj
 0001:000017e0       NewtonMaterialSetDefaultSoftness 00000001800027e0 f   Newton.obj
 0001:00001830       NewtonMaterialSetCollisionCallback 0000000180002830 f   Newton.obj
 0001:00001870       NewtonMaterialGetUserData  0000000180002870 f   Newton.obj
 0001:00001890       NewtonMaterialGetMaterialPairUserData 0000000180002890 f   Newton.obj
 0001:000018a0       NewtonMaterialGetContactNormalSpeed 00000001800028a0 f   Newton.obj
 0001:00001a10       NewtonMaterialGetContactForce 0000000180002a10 f   Newton.obj
 0001:00001ab0       NewtonMaterialGetBodyCollisionID 0000000180002ab0 f   Newton.obj
 0001:00001ad0       NewtonMaterialSetContactSoftness 0000000180002ad0 f   Newton.obj
 0001:00001b00       NewtonMaterialSetContactElasticity 0000000180002b00 f   Newton.obj
 0001:00001b30       NewtonMaterialSetContactFrictionCoef 0000000180002b30 f   Newton.obj
 0001:00001bd0       NewtonCreateConvexHull     0000000180002bd0 f   Newton.obj
 0001:00001d00       NewtonCreateConvexHullModifier 0000000180002d00 f   Newton.obj
 0001:00001d20       NewtonCreateCompoundCollision 0000000180002d20 f   Newton.obj
 0001:00001d40       NewtonCreateCompoundCollisionFromMesh 0000000180002d40 f   Newton.obj
 0001:00001d60       NewtonCollisionSetUserID   0000000180002d60 f   Newton.obj
 0001:00001d70       NewtonCollisionGetUserID   0000000180002d70 f   Newton.obj
 0001:00001d80       NewtonConvexHullGetFaceIndices 0000000180002d80 f   Newton.obj
 0001:00001d90       NewtonCreateTreeCollision  0000000180002d90 f   Newton.obj
 0001:00001db0       NewtonStaticCollisionSetDebugCallback 0000000180002db0 f   Newton.obj
 0001:00001de0       NewtonTreeCollisionGetFaceAtribute 0000000180002de0 f   Newton.obj
 0001:00001df0       NewtonTreeCollisionSetFaceAtribute 0000000180002df0 f   Newton.obj
 0001:00001e00       NewtonCreateHeightFieldCollision 0000000180002e00 f   Newton.obj
 0001:00001e50       NewtonCreateSceneCollision 0000000180002e50 f   Newton.obj
 0001:00001e70       NewtonSceneProxySetMatrix  0000000180002e70 f   Newton.obj
 0001:00001e80       NewtonSceneProxyGetMatrix  0000000180002e80 f   Newton.obj
 0001:00001ef0       NewtonCollisionCalculateAABB 0000000180002ef0 f   Newton.obj
 0001:00001f60       NewtonAddCollisionReference 0000000180002f60 f   Newton.obj
 0001:00001f70       NewtonBodySetUserData      0000000180002f70 f   Newton.obj
 0001:00001f80       NewtonBodyGetUserData      0000000180002f80 f   Newton.obj
 0001:00001f90       NewtonBodyGetWorld         0000000180002f90 f   Newton.obj
 0001:00001fa0       NewtonBodySetTransformCallback 0000000180002fa0 f   Newton.obj
 0001:00001fb0       NewtonBodyGetTransformCallback 0000000180002fb0 f   Newton.obj
 0001:00001fc0       NewtonBodySetForceAndTorqueCallback 0000000180002fc0 f   Newton.obj
 0001:00001fd0       NewtonBodyGetForceAndTorqueCallback 0000000180002fd0 f   Newton.obj
 0001:00001fe0       NewtonBodySetDestructorCallback 0000000180002fe0 f   Newton.obj
 0001:00001ff0       NewtonBodySetMassMatrix    0000000180002ff0 f   Newton.obj
 0001:00002120       NewtonBodyGetMassMatrix    0000000180003120 f   Newton.obj
 0001:00002180       NewtonBodyGetInvMass       0000000180003180 f   Newton.obj
 0001:00002200       NewtonBodySetMatrixRecursive 0000000180003200 f   Newton.obj
 0001:00002260       NewtonBodyGetMatrix        0000000180003260 f   Newton.obj
 0001:000022a0       NewtonBodyGetRotation      00000001800032a0 f   Newton.obj
 0001:000022b0       NewtonBodyGetForceAcc      00000001800032b0 f   Newton.obj
 0001:000022f0       NewtonBodyGetForce         00000001800032f0 f   Newton.obj
 0001:00002330       NewtonBodyCalculateInverseDynamicsForce 0000000180003330 f   Newton.obj
 0001:000023a0       NewtonBodyGetTorque        00000001800033a0 f   Newton.obj
 0001:000023e0       NewtonBodyGetTorqueAcc     00000001800033e0 f   Newton.obj
 0001:00002420       NewtonBodyGetCentreOfMass  0000000180003420 f   Newton.obj
 0001:00002480       NewtonContactJointGetContactCount 0000000180003480 f   Newton.obj
 0001:000024a0       NewtonContactJointGetFirstContact 00000001800034a0 f   Newton.obj
 0001:000024c0       NewtonContactJointGetNextContact 00000001800034c0 f   Newton.obj
 0001:000024e0       NewtonContactGetMaterial   00000001800034e0 f   Newton.obj
 0001:000024f0       NewtonBodyAddBuoyancyForce 00000001800034f0 f   Newton.obj
 0001:00002560       NewtonBodyGetCollision     0000000180003560 f   Newton.obj
 0001:00002570       NewtonBodySetMaterialGroupID 0000000180003570 f   Newton.obj
 0001:00002580       NewtonBodyGetMaterialGroupID 0000000180003580 f   Newton.obj
 0001:00002590       NewtonBodySetContinuousCollisionMode 0000000180003590 f   Newton.obj
 0001:000025b0       NewtonBodyGetContinuousCollisionMode 00000001800035b0 f   Newton.obj
 0001:000025c0       NewtonBodySetJointRecursiveCollision 00000001800035c0 f   Newton.obj
 0001:000025e0       NewtonBodyGetJointRecursiveCollision 00000001800035e0 f   Newton.obj
 0001:000025f0       NewtonBodyGetFreezeState   00000001800035f0 f   Newton.obj
 0001:00002600       NewtonBodySetAutoSleep     0000000180003600 f   Newton.obj
 0001:00002620       NewtonBodyGetAutoSleep     0000000180003620 f   Newton.obj
 0001:00002630       NewtonBodyGetSleepState    0000000180003630 f   Newton.obj
 0001:00002640       NewtonBodyGetAABB          0000000180003640 f   Newton.obj
 0001:00002690       NewtonBodySetVelocity      0000000180003690 f   Newton.obj
 0001:000026f0       NewtonBodyGetVelocity      00000001800036f0 f   Newton.obj
 0001:00002730       NewtonBodySetOmega         0000000180003730 f   Newton.obj
 0001:00002790       NewtonBodyGetOmega         0000000180003790 f   Newton.obj
 0001:000027d0       NewtonBodyGetLinearDamping 00000001800037d0 f   Newton.obj
 0001:000027f0       NewtonBodyAddImpulse       00000001800037f0 f   Newton.obj
 0001:00002870       NewtonConstraintCreateBall 0000000180003870 f   Newton.obj
 0001:000028b0       NewtonBallSetConeLimits    00000001800038b0 f   Newton.obj
 0001:00002c20       NewtonConstraintCreateHinge 0000000180003c20 f   Newton.obj
 0001:00002ca0       NewtonConstraintCreateSlider 0000000180003ca0 f   Newton.obj
 0001:00002d20       NewtonConstraintCreateCorkscrew 0000000180003d20 f   Newton.obj
 0001:00002da0       NewtonConstraintCreateUniversal 0000000180003da0 f   Newton.obj
 0001:00002e50       NewtonConstraintCreateUpVector 0000000180003e50 f   Newton.obj
 0001:00002e90       NewtonUpVectorSetPin       0000000180003e90 f   Newton.obj
 0001:00002ed0       NewtonConstraintCreateUserJoint 0000000180003ed0 f   Newton.obj
 0001:00002f50       NewtonUserJointAddLinearRow 0000000180003f50 f   Newton.obj
 0001:00003080       NewtonUserJointAddAngularRow 0000000180004080 f   Newton.obj
 0001:00003150       NewtonJointGetBody0        0000000180004150 f   Newton.obj
 0001:00003160       NewtonJointGetBody1        0000000180004160 f   Newton.obj
 0001:00003190       NewtonJointSetCollisionState 0000000180004190 f   Newton.obj
 0001:000031b0       NewtonJointGetCollisionState 00000001800041b0 f   Newton.obj
 0001:000031c0       NewtonMeshCreate           00000001800041c0 f   Newton.obj
 0001:000031f0       NewtonMeshCreateFromCollision 00000001800041f0 f   Newton.obj
 0001:00003220       NewtonMeshPlaneClip        0000000180004220 f   Newton.obj
 0001:00003270       ?SetCentreOfMass@dgBody@@QEAAXAEBVdgVector@@@Z 0000000180004270 f i Newton.obj
 0001:00003370       ?Unlink@?$dgList@VdgContactMaterial@@@@QEAAXPEAVdgListNode@1@@Z 0000000180004370 f i Newton.obj
 0001:000033e0       NewtonSetWorldSize         00000001800043e0 f   Newton.obj
 0001:00003450       NewtonWorldForEachBodyInAABBDo 0000000180004450 f   Newton.obj
 0001:000034c0       NewtonWorldRayCast         00000001800044c0 f   Newton.obj
 0001:00003550       NewtonWorldConvexCast      0000000180004550 f   Newton.obj
 0001:000035f0       NewtonMaterialGetContactTangentSpeed 00000001800045f0 f   Newton.obj
 0001:000037b0       NewtonMaterialSetContactNormalDirection 00000001800047b0 f   Newton.obj
 0001:00003ae0       NewtonMaterialContactRotateTangentDirections 0000000180004ae0 f   Newton.obj
 0001:00003c70       NewtonConvexCollisionCalculateInertialMatrix 0000000180004c70 f   Newton.obj
 0001:00003ce0       NewtonCreateUserMeshCollision 0000000180004ce0 f   Newton.obj
 0001:00003da0       NewtonTreeCollisionGetVertexListIndexListInAABB 0000000180004da0 f   Newton.obj
 0001:00003e80       NewtonCollisionSupportVertex 0000000180004e80 f   Newton.obj
 0001:00004030       NewtonCollisionRayCast     0000000180005030 f   Newton.obj
 0001:00004280       NewtonSetEulerAngle        0000000180005280 f   Newton.obj
 0001:000045b0       NewtonBodySetForce         00000001800055b0 f   Newton.obj
 0001:00004670       NewtonBodySetTorque        0000000180005670 f   Newton.obj
 0001:00004730       NewtonBodySetCentreOfMass  0000000180005730 f   Newton.obj
 0001:00004780       NewtonBodySetLinearDamping 0000000180005780 f   Newton.obj
 0001:000047c0       NewtonBodySetAngularDamping 00000001800057c0 f   Newton.obj
 0001:00004860       NewtonBodyGetAngularDamping 0000000180005860 f   Newton.obj
 0001:000048b0       ?AddForce@dgBody@@QEAAXAEBVdgVector@@@Z 00000001800058b0 f i Newton.obj
 0001:00004990       ?AddTorque@dgBody@@QEAAXAEBVdgVector@@@Z 0000000180005990 f i Newton.obj
 0001:00004a70       NewtonCreate               0000000180005a70 f   Newton.obj
 0001:00004b70       NewtonDestroyAllBodies     0000000180005b70 f   Newton.obj
 0001:00004be0       NewtonBodyAddForce         0000000180005be0 f   Newton.obj
 0001:00004c20       NewtonBodyAddTorque        0000000180005c20 f   Newton.obj
 0001:00004c60       NewtonContactJointRemoveContact 0000000180005c60 f   Newton.obj
 0001:00004ca0       NewtonWorldForEachJointDo  0000000180005ca0 f   Newton.obj
 0001:00004e40       ?Append@?$dgList@UNewtonMeshPartition@@@@QEAAPEAVdgListNode@1@XZ 0000000180005e40 f i NewtonAproximateConvexPartition.obj
 0001:00004f30       ?CalculateHulls@NewtonAproximateConvexPartition@@QEAAXPEBVdgVector@@H@Z 0000000180005f30 f   NewtonAproximateConvexPartition.obj
 0001:00005070       ?RemoveAll@?$dgList@UNewtonMeshPartition@@@@QEAAXXZ 0000000180006070 f i NewtonAproximateConvexPartition.obj
 0001:00005120       ??0NewtonAproximateConvexPartition@@QEAA@AEBVNewtonMeshEffect@@MH@Z 0000000180006120 f   NewtonAproximateConvexPartition.obj
 0001:000051c0       ??1NewtonAproximateConvexPartition@@QEAA@XZ 00000001800061c0 f   NewtonAproximateConvexPartition.obj
 0001:000051d0       ?DefaultAllocMemory@Newton@@SAPEAXH@Z 00000001800061d0 f   NewtonClass.obj
 0001:000051e0       ?__free__@dgMemoryAllocator@@CAXPEAXI@Z 00000001800061e0 f   corelib_2009:dgMemory.obj
 0001:000051e0       ?DefaultFreeMemory@Newton@@SAXPEAXH@Z 00000001800061e0 f   NewtonClass.obj
 0001:000051f0       ?JacobianDerivative@NewtonUserJoint@@UEAAIAEAVdgContraintDescritor@@@Z 00000001800061f0 f   NewtonClass.obj
 0001:00005230       ?SetAcceleration@NewtonUserJoint@@QEAAXM@Z 0000000180006230 f   NewtonClass.obj
 0001:00005260       ?SetSpringDamperAcceleration@NewtonUserJoint@@QEAAXMM@Z 0000000180006260 f   NewtonClass.obj
 0001:000052e0       ?GetRowForce@NewtonUserJoint@@QEBAMH@Z 00000001800062e0 f   NewtonClass.obj
 0001:00005310       ?GetInfo@NewtonUserJoint@@UEBAXPEAVdgConstraintInfo@@@Z 0000000180006310 f   NewtonClass.obj
 0001:00005360       ??_ENewtonUserJoint@@UEAAPEAXI@Z 0000000180006360 f i NewtonClass.obj
 0001:00005360       ??_GNewtonUserJoint@@UEAAPEAXI@Z 0000000180006360 f i NewtonClass.obj
 0001:000053c0       ?SetHighFriction@NewtonUserJoint@@QEAAXM@Z 00000001800063c0 f   NewtonClass.obj
 0001:00005430       ?SetLowerFriction@NewtonUserJoint@@QEAAXM@Z 0000000180006430 f   NewtonClass.obj
 0001:000054a0       ?SetRowStiffness@NewtonUserJoint@@QEAAXM@Z 00000001800064a0 f   NewtonClass.obj
 0001:00005500       ?SetUpdateFeedbackFunction@NewtonUserJoint@@QEAAXP6AXPEBUNewtonJoint@@MH@Z@Z 0000000180006500 f   NewtonClass.obj
 0001:00005510       ?DestroyJoints@NewtonDeadJoints@@QEAAXAEAVNewton@@@Z 0000000180006510 f   NewtonClass.obj
 0001:000055a0       ??1Newton@@QEAA@XZ         00000001800065a0 f   NewtonClass.obj
 0001:00005610       ??0NewtonUserJoint@@QEAA@PEAVdgWorld@@HP6AXPEBUNewtonJoint@@MH@ZP6AX1PEAUNewtonJointRecord@@@ZPEAVdgBody@@5@Z 0000000180006610 f   NewtonClass.obj
 0001:000056e0       ?AddAngularRowJacobian@NewtonUserJoint@@QEAAXAEBVdgVector@@M@Z 00000001800066e0 f   NewtonClass.obj
 0001:000057c0       ?AddGeneralRowJacobian@NewtonUserJoint@@QEAAXPEBM0@Z 00000001800067c0 f   NewtonClass.obj
 0001:00005890       ?AddLinearRowJacobian@NewtonUserJoint@@QEAAXAEBVdgVector@@00@Z 0000000180006890 f   NewtonClass.obj
 0001:00005970       ?Insert@?$dgTree@PEAVdgBody@@PEAX@@QEAAPEAVdgTreeNode@1@AEBQEAVdgBody@@PEAXAEA_N@Z 0000000180006970 f i NewtonClass.obj
 0001:00005970       ?Insert@?$dgTree@PEAVdgConstraint@@PEAX@@QEAAPEAVdgTreeNode@1@AEBQEAVdgConstraint@@PEAXAEA_N@Z 0000000180006970 f i NewtonClass.obj
 0001:00005a50       ??0NewtonDeadBodies@@QEAA@XZ 0000000180006a50 f   NewtonClass.obj
 0001:00005a50       ??0NewtonDeadJoints@@QEAA@XZ 0000000180006a50 f   NewtonClass.obj
 0001:00005ac0       ??0Newton@@QEAA@M@Z        0000000180006ac0 f   NewtonClass.obj
 0001:00005b10       ?DestroyJoint@Newton@@QEAAXPEAVdgConstraint@@@Z 0000000180006b10 f   NewtonClass.obj
 0001:00005b50       ?DestroyBody@Newton@@QEAAXPEAVdgBody@@@Z 0000000180006b50 f   NewtonClass.obj
 0001:00005b90       ?DestroyBodies@NewtonDeadBodies@@QEAAXAEAVNewton@@@Z 0000000180006b90 f   NewtonClass.obj
 0001:00005d10       ?UpdatePhysics@Newton@@QEAAXM@Z 0000000180006d10 f   NewtonClass.obj
 0001:00005d60       ?GetShapeFromCollision@NewtonMeshEffectBuilder@@SAXPEAXHPEBMH@Z 0000000180006d60 f i NewtonMeshEffect.obj
 0001:00005e90       ?AddVertex@NewtonMeshEffect@@AEAAXPEBMH@Z 0000000180006e90 f   NewtonMeshEffect.obj
 0001:00006040       ?AddPolygon@NewtonMeshEffect@@QEAAXHPEBMHH@Z 0000000180007040 f   NewtonMeshEffect.obj
 0001:00006100       ?GetVertexStreams@NewtonMeshEffect@@QEAAXHPEAMH0H0@Z 0000000180007100 f   NewtonMeshEffect.obj
 0001:00006220       ?GetIndirectVertexStreams@NewtonMeshEffect@@QEAAXHPEAMPEAH1H011H011@Z 0000000180007220 f   NewtonMeshEffect.obj
 0001:00006470       ?GetNextMaterial@NewtonMeshEffect@@QEAAHH@Z 0000000180007470 f   NewtonMeshEffect.obj
 0001:000064b0       ?GetMaterialGetIndexStream@NewtonMeshEffect@@QEAAXHPEAH@Z 00000001800074b0 f   NewtonMeshEffect.obj
 0001:00006530       ?GetMaterialGetIndexStreamShort@NewtonMeshEffect@@QEAAXHPEAF@Z 0000000180007530 f   NewtonMeshEffect.obj
 0001:000065b0       ?CreateConvexAproximationCollision@NewtonMeshEffect@@QEBAPEAVdgCollision@@MH@Z 00000001800075b0 f   NewtonMeshEffect.obj
 0001:000065e0       ??0NewtonMeshEffect@@QEAA@_N@Z 00000001800075e0 f   NewtonMeshEffect.obj
 0001:00006660       ??_ENewtonMeshEffect@@UEAAPEAXI@Z 0000000180007660 f i NewtonMeshEffect.obj
 0001:00006660       ??_GNewtonMeshEffect@@UEAAPEAXI@Z 0000000180007660 f i NewtonMeshEffect.obj
 0001:000066c0       ?EndPolygon@NewtonMeshEffect@@QEAAXXZ 00000001800076c0 f   NewtonMeshEffect.obj
 0001:000068d0       ?CreateConvexCollision@NewtonMeshEffect@@QEBAPEAVdgCollision@@MH@Z 00000001800078d0 f   NewtonMeshEffect.obj
 0001:00006970       ??0NewtonMeshEffect@@QEAA@PEAVdgCollision@@@Z 0000000180007970 f   NewtonMeshEffect.obj
 0001:00006c80       ?GetAttriubeArray@NewtonMeshEffect@@AEAAXPEAUdgVertexAtribute@1@@Z 0000000180007c80 f   NewtonMeshEffect.obj
 0001:00006d40       ?ApplyAttriubeArray@NewtonMeshEffect@@AEAAXPEAUdgVertexAtribute@1@@Z 0000000180007d40 f   NewtonMeshEffect.obj
 0001:00006e40       ?GetOrigin@NewtonMeshEffect@@AEBA?AVdgVector@@XZ 0000000180007e40 f   NewtonMeshEffect.obj
 0001:00006f80       ?FixCylindricalMapping@NewtonMeshEffect@@AEBAXPEAUdgVertexAtribute@1@@Z 0000000180007f80 f   NewtonMeshEffect.obj
 0001:000070e0       ?SphericalMapping@NewtonMeshEffect@@QEAAXH@Z 00000001800080e0 f   NewtonMeshEffect.obj
 0001:000073c0       ?CylindricalMapping@NewtonMeshEffect@@QEAAXHH@Z 00000001800083c0 f   NewtonMeshEffect.obj
 0001:00007890       ?BoxMapping@NewtonMeshEffect@@QEAAXHHH@Z 0000000180008890 f   NewtonMeshEffect.obj
 0001:00007c50       ?CalcualetNormals@NewtonMeshEffect@@QEAAXM@Z 0000000180008c50 f   NewtonMeshEffect.obj
 0001:000080b0       ?GetFirstMaterial@NewtonMeshEffect@@QEAAHXZ 00000001800090b0 f   NewtonMeshEffect.obj
 0001:00008270       ?CapClipFace@NewtonMeshEffect@@AEAA_NAEBVdgPlane@@AEBVdgMatrix@@HH@Z 0000000180009270 f   NewtonMeshEffect.obj
 0001:00008560       ?PlaneClip@NewtonMeshEffect@@QEAAHAEBVdgPlane@@AEBVdgMatrix@@PEAPEAV1@HH@Z 0000000180009560 f   NewtonMeshEffect.obj
 0001:000093d0       ?ModifierGetMatrix@dgCollision@@UEBA?AVdgMatrix@@XZ 000000018000a3d0 f i physics_2009:dgWorld.obj
 0001:00009430       ?Release@dgCollision@@UEAAHXZ 000000018000a430 f i physics_2009:dgWorld.obj
 0001:00009460       ?GetSentinelBody@dgWorld@@QEBAPEAVdgBody@@XZ 000000018000a460 f   physics_2009:dgWorld.obj
 0001:00009470       ?SetFrictionMode@dgWorld@@QEAAXH@Z 000000018000a470 f   physics_2009:dgWorld.obj
 0001:00009480       ?SetHardwareMode@dgWorld@@QEAAXH@Z 000000018000a480 f   physics_2009:dgWorld.obj
 0001:000094b0       ?GetHardwareMode@dgWorld@@QEAAHPEAD@Z 000000018000a4b0 f   physics_2009:dgWorld.obj
 0001:00009500       ?SetThreadsCount@dgWorld@@QEAAXH@Z 000000018000a500 f   physics_2009:dgWorld.obj
 0001:00009590       ?GetThreadsCount@dgWorld@@QEBAHXZ 000000018000a590 f   physics_2009:dgWorld.obj
 0001:000095a0       ?EnableThreadOnSingleIsland@dgWorld@@QEAAXH@Z 000000018000a5a0 f   physics_2009:dgWorld.obj
 0001:000095b0       ?GetThreadOnSingleIsland@dgWorld@@QEBAHXZ 000000018000a5b0 f   physics_2009:dgWorld.obj
 0001:000095c0       ?DestroyConstraint@dgWorld@@QEAAXPEAVdgConstraint@@@Z 000000018000a5c0 f   physics_2009:dgWorld.obj
 0001:000095f0       ?UpdateCollision@dgWorld@@QEAAXXZ 000000018000a5f0 f   physics_2009:dgWorld.obj
 0001:000096c0       ?Update@dgWorld@@QEAAXM@Z  000000018000a6c0 f   physics_2009:dgWorld.obj
 0001:000097d0       ?SetPerfomanceCounter@dgWorld@@QEAAXP6AIXZ@Z 000000018000a7d0 f   physics_2009:dgWorld.obj
 0001:00009820       ?SetUserData@dgWorld@@QEAAXPEAX@Z 000000018000a820 f   physics_2009:dgWorld.obj
 0001:00009830       ?GetUserData@dgWorld@@QEBAPEAXXZ 000000018000a830 f   physics_2009:dgWorld.obj
 0001:00009840       ?SetIslandUpdateCallback@dgWorld@@QEAAXP6AIPEAXH@Z@Z 000000018000a840 f   physics_2009:dgWorld.obj
 0001:00009850       ?SetDestroyCollisionCallback@dgWorld@@QEAAXP6AXPEAVdgCollision@@@Z@Z 000000018000a850 f   physics_2009:dgWorld.obj
 0001:00009860       ?SetLeavingWorldCallback@dgWorld@@QEAAXP6AXPEAVdgBody@@H@Z@Z 000000018000a860 f   physics_2009:dgWorld.obj
 0001:00009870       ?CreateBallConstraint@dgWorld@@QEAAPEAVdgBallConstraint@@AEBVdgVector@@PEAVdgBody@@1@Z 000000018000a870 f   physics_2009:dgWorld.obj
 0001:000098f0       ?CreateHingeConstraint@dgWorld@@QEAAPEAVdgHingeConstraint@@AEBVdgVector@@0PEAVdgBody@@1@Z 000000018000a8f0 f   physics_2009:dgWorld.obj
 0001:00009980       ?CreateUpVectorConstraint@dgWorld@@QEAAPEAVdgUpVectorConstraint@@AEBVdgVector@@PEAVdgBody@@@Z 000000018000a980 f   physics_2009:dgWorld.obj
 0001:000099f0       ?CreateSlidingConstraint@dgWorld@@QEAAPEAVdgSlidingConstraint@@AEBVdgVector@@0PEAVdgBody@@1@Z 000000018000a9f0 f   physics_2009:dgWorld.obj
 0001:00009a80       ?CreateCorkscrewConstraint@dgWorld@@QEAAPEAVdgCorkscrewConstraint@@AEBVdgVector@@0PEAVdgBody@@1@Z 000000018000aa80 f   physics_2009:dgWorld.obj
 0001:00009b10       ?CreateUniversalConstraint@dgWorld@@QEAAPEAVdgUniversalConstraint@@AEBVdgVector@@00PEAVdgBody@@1@Z 000000018000ab10 f   physics_2009:dgWorld.obj
 0001:00009ba0       ?GetConstraintsCount@dgWorld@@QEBAHXZ 000000018000aba0 f   physics_2009:dgWorld.obj
 0001:00009bb0       ?AddBodyImpulse@dgWorld@@QEAAXPEAVdgBody@@AEBVdgVector@@1@Z 000000018000abb0 f   physics_2009:dgWorld.obj
 0001:00009be0       ??_EdgCollisionPoint@@UEAAPEAXI@Z 000000018000abe0 f i physics_2009:dgWorld.obj
 0001:00009be0       ??_GdgCollisionPoint@@UEAAPEAXI@Z 000000018000abe0 f i physics_2009:dgWorld.obj
 0001:00009c10       ?SetSolverMode@dgWorld@@QEAAXH@Z 000000018000ac10 f   physics_2009:dgWorld.obj
 0001:00009c20       ?RemoveAllGroupID@dgWorld@@QEAAXXZ 000000018000ac20 f   physics_2009:dgWorld.obj
 0001:00009c80       ?DestroyBody@dgWorld@@QEAAXPEAVdgBody@@@Z 000000018000ac80 f   physics_2009:dgWorld.obj
 0001:00009cf0       ?GetPerfomanceTicks@dgWorld@@QEBAII@Z 000000018000acf0 f   physics_2009:dgWorld.obj
 0001:00009d10       ?GetBodiesCount@dgWorld@@QEBAHXZ 000000018000ad10 f   physics_2009:dgWorld.obj
 0001:00009d20       ?AreBodyConnectedByJoints@dgWorld@@AEAA_NPEAVdgBody@@0@Z 000000018000ad20 f   physics_2009:dgWorld.obj
 0001:00009e10       ?FlushCache@dgWorld@@QEAAXXZ 000000018000ae10 f   physics_2009:dgWorld.obj
 0001:00009e90       ??0dgWorldDynamicUpdate@@QEAA@XZ 000000018000ae90 f i physics_2009:dgWorld.obj
 0001:0000a4c0       ??1dgWorldDynamicUpdate@@QEAA@XZ 000000018000b4c0 f i physics_2009:dgWorld.obj
 0001:0000a630       ?DestroyAllBodies@dgWorld@@QEAAXXZ 000000018000b630 f   physics_2009:dgWorld.obj
 0001:0000a6d0       ?CreateBody@dgWorld@@QEAAPEAVdgBody@@PEAVdgCollision@@@Z 000000018000b6d0 f   physics_2009:dgWorld.obj
 0001:0000a840       ?BodySetMatrix@dgWorld@@QEAAXPEAVdgBody@@AEBVdgMatrix@@@Z 000000018000b840 f   physics_2009:dgWorld.obj
 0001:0000ab70       ??1dgWorld@@QEAA@XZ        000000018000bb70 f   physics_2009:dgWorld.obj
 0001:0000adb0       ??0dgWorld@@QEAA@XZ        000000018000bdb0 f   physics_2009:dgWorld.obj
 0001:0000b3b0       ?GetIslandBody@dgWorld@@QEBAPEAVdgBody@@PEBXH@Z 000000018000c3b0 f   physics_2009:dgWorldDynamicUpdate.obj
 0001:0000b3e0       ?ReallocBodyMemory@dgWorldDynamicUpdate@@AEAAXH@Z 000000018000c3e0 f   physics_2009:dgWorldDynamicUpdate.obj
 0001:0000b4c0       ?ReallocIslandMemory@dgWorldDynamicUpdate@@AEAAXH@Z 000000018000c4c0 f   physics_2009:dgWorldDynamicUpdate.obj
 0001:0000b5b0       ?ReallocJointsMemory@dgWorldDynamicUpdate@@AEAAXH@Z 000000018000c5b0 f   physics_2009:dgWorldDynamicUpdate.obj
 0001:0000b690       ?ReallocJacobiansMemory@dgWorldDynamicUpdate@@AEAAXHH@Z 000000018000c690 f   physics_2009:dgWorldDynamicUpdate.obj
 0001:0000b9a0       ?ReallocIntenalForcesMemory@dgWorldDynamicUpdate@@AEAAXHH@Z 000000018000c9a0 f   physics_2009:dgWorldDynamicUpdate.obj
 0001:0000bae0       ?ApplyExternalForcesAndAccelerationSimD@dgJacobianMemory@@QEBAXM@Z 000000018000cae0 f   physics_2009:dgWorldDynamicUpdate.obj
 0001:0000be70       ?GetJacobialDerivativesParallel@dgWorldDynamicUpdate@@AEAAHAEBVdgIsland@@_NHM@Z 000000018000ce70 f   physics_2009:dgWorldDynamicUpdate.obj
 0001:0000bfd0       ?ThreadExecute@dgParallelSolverJointAcceleration@@UEAAXXZ 000000018000cfd0 f   physics_2009:dgWorldDynamicUpdate.obj
 0001:0000c1f0       ?ThreadExecute@dgParallelSolverInitFeedbackUpdate@@UEAAXXZ 000000018000d1f0 f   physics_2009:dgWorldDynamicUpdate.obj
 0001:0000c340       ??$dgSort@VdgIsland@@@@YAXQEAVdgIsland@@HP6AHQEBV0@1PEAX@Z2@Z 000000018000d340 f i physics_2009:dgWorldDynamicUpdate.obj
 0001:0000c640       ?BuildIsland@dgWorldDynamicUpdate@@AEAAXAEAV?$dgQueue@PEAVdgBody@@@@HHH@Z 000000018000d640 f   physics_2009:dgWorldDynamicUpdate.obj
 0001:0000c930       ?SpanningTree@dgWorldDynamicUpdate@@AEAAXPEAVdgBody@@@Z 000000018000d930 f   physics_2009:dgWorldDynamicUpdate.obj
 0001:0000ce50       ?IntegrateArray@dgWorldDynamicUpdate@@AEBAXPEBVdgBodyInfo@@HMMH_N@Z 000000018000de50 f   physics_2009:dgWorldDynamicUpdate.obj
 0001:0000d4c0       ?ApplyExternalForcesAndAcceleration@dgJacobianMemory@@QEBAXM@Z 000000018000e4c0 f   physics_2009:dgWorldDynamicUpdate.obj
 0001:0000e090       ?SwapRowsSimd@dgJacobianMemory@@QEBAXHH@Z 000000018000f090 f   physics_2009:dgWorldDynamicUpdate.obj
 0001:0000e280       ?SwapRows@dgJacobianMemory@@QEBAXHH@Z 000000018000f280 f   physics_2009:dgWorldDynamicUpdate.obj
 0001:0000e570       ?CalculateSimpleBodyReactionsForcesSimD@dgJacobianMemory@@QEBAXM@Z 000000018000f570 f   physics_2009:dgWorldDynamicUpdate.obj
 0001:0000f0d0       ?CalculateSimpleBodyReactionsForces@dgJacobianMemory@@QEBAXM@Z 00000001800100d0 f   physics_2009:dgWorldDynamicUpdate.obj
 0001:00010b50       ?CalculateJointForcesSimD@dgJacobianMemory@@QEBAMHPEAMM@Z 0000000180011b50 f   physics_2009:dgWorldDynamicUpdate.obj
 0001:00011720       ?CalculateJointForces@dgJacobianMemory@@QEBAMHPEAMM@Z 0000000180012720 f   physics_2009:dgWorldDynamicUpdate.obj
 0001:00012c80       ?CalculateForcesGameModeSimD@dgJacobianMemory@@QEBAXHM@Z 0000000180013c80 f   physics_2009:dgWorldDynamicUpdate.obj
 0001:000137b0       ?CalculateForcesGameMode@dgJacobianMemory@@QEBAXHM@Z 00000001800147b0 f   physics_2009:dgWorldDynamicUpdate.obj
 0001:00015020       ?ThreadExecute@dgParallelSolverBuildJacobianRows@@UEAAXXZ 0000000180016020 f   physics_2009:dgWorldDynamicUpdate.obj
 0001:00015a30       ?BuildJacobianMatrixParallel@dgWorldDynamicUpdate@@AEAAXAEBVdgIsland@@MH@Z 0000000180016a30 f   physics_2009:dgWorldDynamicUpdate.obj
 0001:00015e00       ?ThreadExecute@dgParallelSolverClear@@UEAAXXZ 0000000180016e00 f   physics_2009:dgWorldDynamicUpdate.obj
 0001:00015fe0       ?ThreadExecute@dgParallelSolverInitInternalForces@@UEAAXXZ 0000000180016fe0 f   physics_2009:dgWorldDynamicUpdate.obj
 0001:000168d0       ?ThreadExecute@dgParallelSolverUpdateVeloc@@UEAAXXZ 00000001800178d0 f   physics_2009:dgWorldDynamicUpdate.obj
 0001:00016c30       ?ThreadExecute@dgParallelSolverUpdateForce@@UEAAXXZ 0000000180017c30 f   physics_2009:dgWorldDynamicUpdate.obj
 0001:00017290       ?ThreadExecute@dgParallelSolverCalculateForces@@UEAAXXZ 0000000180018290 f   physics_2009:dgWorldDynamicUpdate.obj
 0001:00017af0       ?CalculateForcesGameModeParallel@dgJacobianMemory@@QEBAXHMH@Z 0000000180018af0 f   physics_2009:dgWorldDynamicUpdate.obj
 0001:00018500       ?AddDamingAcceleration@dgBody@@AEAAXXZ 0000000180019500 f i physics_2009:dgWorldDynamicUpdate.obj
 0001:00018700       ?CalculateForcesSimulationModeSimd@dgJacobianMemory@@QEBAXM@Z 0000000180019700 f   physics_2009:dgWorldDynamicUpdate.obj
 0001:00019ce0       ?CalculateForcesSimulationMode@dgJacobianMemory@@QEBAXM@Z 000000018001ace0 f   physics_2009:dgWorldDynamicUpdate.obj
 0001:0001d440       ?ThreadExecute@dgParallelSolverBodyInertia@@UEAAXXZ 000000018001e440 f   physics_2009:dgWorldDynamicUpdate.obj
 0001:0001d4e0       ?UpdateDynamics@dgWorldDynamicUpdate@@AEAAXPEAVdgWorld@@HM@Z 000000018001e4e0 f   physics_2009:dgWorldDynamicUpdate.obj
 0001:0001d9e0       ?ThreadExecute@dgParallelSolverBuildJacobianMatrix@@UEAAXXZ 000000018001e9e0 f   physics_2009:dgWorldDynamicUpdate.obj
 0001:0001e230       ?GetJacobialDerivatives@dgWorldDynamicUpdate@@AEAAHAEBVdgIsland@@H_NHM@Z 000000018001f230 f   physics_2009:dgWorldDynamicUpdate.obj
 0001:0001eac0       ?BuildJacobianMatrixSimD@dgWorldDynamicUpdate@@AEAAXAEBVdgIsland@@HM@Z 000000018001fac0 f   physics_2009:dgWorldDynamicUpdate.obj
 0001:0001f0c0       ?BuildJacobianMatrix@dgWorldDynamicUpdate@@AEAAXAEBVdgIsland@@HM@Z 00000001800200c0 f   physics_2009:dgWorldDynamicUpdate.obj
 0001:0001fa00       ?ThreadExecute@dgSolverWorlkerThreads@@UEAAXXZ 0000000180020a00 f   physics_2009:dgWorldDynamicUpdate.obj
 0001:000204a0       ?CreateConvexModifier@dgWorld@@QEAAPEAVdgCollision@@PEAV2@@Z 00000001800214a0 f   physics_2009:dgNarrowPhaseCollision.obj
 0001:00020500       ?CreateCompoundCollision@dgWorld@@QEAAPEAVdgCollision@@HQEBQEAV2@@Z 0000000180021500 f   physics_2009:dgNarrowPhaseCollision.obj
 0001:00020560       ?CreateBVH@dgWorld@@QEAAPEAVdgCollision@@XZ 0000000180021560 f   physics_2009:dgNarrowPhaseCollision.obj
 0001:00020590       ?CreateStaticUserMesh@dgWorld@@QEAAPEAVdgCollision@@AEBVdgVector@@0AEBVdgUserMeshCreation@@@Z 0000000180021590 f   physics_2009:dgNarrowPhaseCollision.obj
 0001:000205f0       ?CreateBVHFieldCollision@dgWorld@@QEAAPEAVdgCollision@@HHHPEAGPEADMM@Z 00000001800215f0 f   physics_2009:dgNarrowPhaseCollision.obj
 0001:00020690       ?CreateScene@dgWorld@@QEAAPEAVdgCollision@@XZ 0000000180021690 f   physics_2009:dgNarrowPhaseCollision.obj
 0001:000206c0       ?Serialize@dgWorld@@QEBAXPEAVdgCollision@@P6AXPEAXPEBX_K@Z1@Z 00000001800216c0 f   physics_2009:dgNarrowPhaseCollision.obj
 0001:00020740       ?GetDefualtBodyGroupID@dgWorld@@QEBAIXZ 0000000180021740 f   physics_2009:dgNarrowPhaseCollision.obj
 0001:00020750       ??$dgSort@VdgContactPoint@@@@YAXQEAVdgContactPoint@@HP6AHQEBV0@1PEAX@Z2@Z 0000000180021750 f i physics_2009:dgNarrowPhaseCollision.obj
 0001:00020a10       ?GetFirstMaterial@dgWorld@@QEBAPEAVdgContactMaterial@@XZ 0000000180021a10 f   physics_2009:dgNarrowPhaseCollision.obj
 0001:00020a40       ?GetNextMaterial@dgWorld@@QEBAPEAVdgContactMaterial@@PEAV2@@Z 0000000180021a40 f   physics_2009:dgNarrowPhaseCollision.obj
 0001:00020a90       ?ReduceContacts@dgWorld@@AEBAHHQEAVdgContactPoint@@HMH@Z 0000000180021a90 f   physics_2009:dgNarrowPhaseCollision.obj
 0001:00020c60       ?PruneContacts@dgWorld@@AEBAHHQEAVdgContactPoint@@H@Z 0000000180021c60 f   physics_2009:dgNarrowPhaseCollision.obj
 0001:00020e30       ?ProcessCachedContacts@dgWorld@@AEBAXPEAVdgContact@@PEBVdgContactMaterial@@MH@Z 0000000180021e30 f   physics_2009:dgNarrowPhaseCollision.obj
 0001:00020f20       ?ProcessTriggers@dgWorld@@AEAAXAEAUdgPair@dgCollidingPairCollector@@MH@Z 0000000180021f20 f   physics_2009:dgNarrowPhaseCollision.obj
 0001:00021040       ?ValidateContactCache@dgWorld@@AEBAHPEAVdgBody@@0PEAVdgContact@@@Z 0000000180022040 f   physics_2009:dgNarrowPhaseCollision.obj
 0001:00021730       ?CompoundContactsSimd@dgWorld@@AEBAXQEAUdgPair@dgCollidingPairCollector@@AEAVdgCollisionParamProxi@@@Z 0000000180022730 f   physics_2009:dgNarrowPhaseCollision.obj
 0001:00022840       ?CompoundContacts@dgWorld@@AEBAXQEAUdgPair@dgCollidingPairCollector@@AEAVdgCollisionParamProxi@@@Z 0000000180023840 f   physics_2009:dgNarrowPhaseCollision.obj
 0001:00023940       ?ConvexContactsSimd@dgWorld@@AEBAXQEAUdgPair@dgCollidingPairCollector@@AEAVdgCollisionParamProxi@@@Z 0000000180024940 f   physics_2009:dgNarrowPhaseCollision.obj
 0001:00023b70       ?ConvexContacts@dgWorld@@AEBAXQEAUdgPair@dgCollidingPairCollector@@AEAVdgCollisionParamProxi@@@Z 0000000180024b70 f   physics_2009:dgNarrowPhaseCollision.obj
 0001:00023da0       ?SceneContactsSimd@dgWorld@@AEBAXAEBUdgProxy@dgCollisionScene@@QEAUdgPair@dgCollidingPairCollector@@AEAVdgCollisionParamProxi@@@Z 0000000180024da0 f   physics_2009:dgNarrowPhaseCollision.obj
 0001:00023ee0       ?SceneContacts@dgWorld@@AEBAXAEBUdgProxy@dgCollisionScene@@QEAUdgPair@dgCollidingPairCollector@@AEAVdgCollisionParamProxi@@@Z 0000000180024ee0 f   physics_2009:dgNarrowPhaseCollision.obj
 0001:00024020       ?SceneContacts@dgWorld@@AEBAXQEAUdgPair@dgCollidingPairCollector@@AEAVdgCollisionParamProxi@@@Z 0000000180025020 f   physics_2009:dgNarrowPhaseCollision.obj
 0001:00024120       ?SceneContactsSimd@dgWorld@@AEBAXQEAUdgPair@dgCollidingPairCollector@@AEAVdgCollisionParamProxi@@@Z 0000000180025120 f   physics_2009:dgNarrowPhaseCollision.obj
 0001:00024220       ?Append@?$dgList@VdgContactMaterial@@@@QEAAPEAVdgListNode@1@XZ 0000000180025220 f i physics_2009:dgNarrowPhaseCollision.obj
 0001:00024320       ?GetMaterial@dgWorld@@QEBAPEAVdgContactMaterial@@II@Z 0000000180025320 f   physics_2009:dgNarrowPhaseCollision.obj
 0001:00024370       ?RemoveFromCache@dgWorld@@QEAAXPEAVdgCollision@@@Z 0000000180025370 f   physics_2009:dgNarrowPhaseCollision.obj
 0001:000243f0       ?ReleaseCollision@dgWorld@@QEAAXPEAVdgCollision@@@Z 00000001800253f0 f   physics_2009:dgNarrowPhaseCollision.obj
 0001:000244b0       ?ClosestCompoundPoint@dgWorld@@AEBAHPEAVdgBody@@0AEAVdgTriplex@@11H@Z 00000001800254b0 f   physics_2009:dgNarrowPhaseCollision.obj
 0001:00024bf0       ?CalculateContactsSimd@dgWorld@@AEAAXQEAUdgPair@dgCollidingPairCollector@@MH@Z 0000000180025bf0 f   physics_2009:dgNarrowPhaseCollision.obj
 0001:00024d70       ?CalculateContacts@dgWorld@@AEAAXQEAUdgPair@dgCollidingPairCollector@@MH@Z 0000000180025d70 f   physics_2009:dgNarrowPhaseCollision.obj
 0001:00024ef0       ?CollideContinueSimd@dgWorld@@QEAAHPEAVdgCollision@@AEBVdgMatrix@@AEBVdgVector@@20122AEAMPEAVdgTriplex@@4PEAMHH@Z 0000000180025ef0 f   physics_2009:dgNarrowPhaseCollision.obj
 0001:000256b0       ?CollideContinue@dgWorld@@QEAAHPEAVdgCollision@@AEBVdgMatrix@@AEBVdgVector@@20122AEAMPEAVdgTriplex@@4PEAMHH@Z 00000001800266b0 f   physics_2009:dgNarrowPhaseCollision.obj
 0001:00025e60       ?Collide@dgWorld@@QEAAHPEAVdgCollision@@AEBVdgMatrix@@01PEAVdgTriplex@@2PEAMHH@Z 0000000180026e60 f   physics_2009:dgNarrowPhaseCollision.obj
 0001:00026420       ?ClosestPoint@dgWorld@@QEBAHPEAVdgCollision@@AEBVdgMatrix@@01AEAVdgTriplex@@22H@Z 0000000180027420 f   physics_2009:dgNarrowPhaseCollision.obj
 0001:00026910       ?ProcessContacts@dgWorld@@AEAAXAEAUdgPair@dgCollidingPairCollector@@MH@Z 0000000180027910 f   physics_2009:dgNarrowPhaseCollision.obj
 0001:00027930       ?ClosestPoint@dgWorld@@QEBAHAEAVdgTriplex@@PEAVdgCollision@@AEBVdgMatrix@@00H@Z 0000000180028930 f   physics_2009:dgNarrowPhaseCollision.obj
 0001:00027a30       ?CreateNull@dgWorld@@QEAAPEAVdgCollision@@XZ 0000000180028a30 f   physics_2009:dgNarrowPhaseCollision.obj
 0001:00027b60       ?CreateBox@dgWorld@@QEAAPEAVdgCollision@@MMMHAEBVdgMatrix@@@Z 0000000180028b60 f   physics_2009:dgNarrowPhaseCollision.obj
 0001:00027d90       ?CreateSphere@dgWorld@@QEAAPEAVdgCollision@@MHAEBVdgMatrix@@@Z 0000000180028d90 f   physics_2009:dgNarrowPhaseCollision.obj
 0001:00027f50       ?CreateEllipse@dgWorld@@QEAAPEAVdgCollision@@MMMHAEBVdgMatrix@@@Z 0000000180028f50 f   physics_2009:dgNarrowPhaseCollision.obj
 0001:00028150       ?CreateCapsule@dgWorld@@QEAAPEAVdgCollision@@MMHAEBVdgMatrix@@@Z 0000000180029150 f   physics_2009:dgNarrowPhaseCollision.obj
 0001:00028360       ?CreateCone@dgWorld@@QEAAPEAVdgCollision@@MMHAEBVdgMatrix@@@Z 0000000180029360 f   physics_2009:dgNarrowPhaseCollision.obj
 0001:00028570       ?CreateCylinder@dgWorld@@QEAAPEAVdgCollision@@MMHAEBVdgMatrix@@@Z 0000000180029570 f   physics_2009:dgNarrowPhaseCollision.obj
 0001:00028780       ?CreateChamferCylinder@dgWorld@@QEAAPEAVdgCollision@@MMHAEBVdgMatrix@@@Z 0000000180029780 f   physics_2009:dgNarrowPhaseCollision.obj
 0001:00028990       ?CreateConvexHull@dgWorld@@QEAAPEAVdgCollision@@HPEBMHMHAEBVdgMatrix@@@Z 0000000180029990 f   physics_2009:dgNarrowPhaseCollision.obj
 0001:00028c30       ?CreateFromSerialization@dgWorld@@QEAAPEAVdgCollision@@P6AXPEAX0_K@Z0@Z 0000000180029c30 f   physics_2009:dgNarrowPhaseCollision.obj
 0001:00029530       ?CreateBodyGroupID@dgWorld@@QEAAIXZ 000000018002a530 f   physics_2009:dgNarrowPhaseCollision.obj
 0001:000296f0       ?CalculateSignature@dgCollisionConvexPolygon@dgCollisionMesh@@UEBAHXZ 000000018002a6f0 f   physics_2009:dgCollisionMesh.obj
 0001:00029700       ?SupportVertexSimd@dgCollisionConvexPolygon@dgCollisionMesh@@UEBA?AVdgVector@@AEBV3@@Z 000000018002a700 f   physics_2009:dgCollisionMesh.obj
 0001:000298b0       ??1dgCollisionMesh@@UEAA@XZ 000000018002a8b0 f   physics_2009:dgCollisionMesh.obj
 0001:00029910       ?IsBilateral@dgConstraint@@MEBA_NXZ 000000018002a910 f i physics_2009:dgConstraint.obj
 0001:00029910       ?IsBilateral@dgUpVectorConstraint@@UEBA_NXZ 000000018002a910 f i physics_2009:dgUpVectorConstraint.obj
 0001:00029910       ?IsTriggerVolume@dgCollision@@UEBA_NXZ 000000018002a910 f i physics_2009:dgCollisionMesh.obj
 0001:00029920       ?SetCollisionCallback@dgCollisionMesh@@QEAAXP6AXPEBVdgBody@@0HHPEBMH@Z@Z 000000018002a920 f   physics_2009:dgCollisionMesh.obj
 0001:00029930       ?SetCollisionRayCastCallback@dgCollisionMesh@@QEAAXP6AMMPEAMHPEAX@Z@Z 000000018002a930 f   physics_2009:dgCollisionMesh.obj
 0001:00029940       ?CalculateInertia@dgCollisionMesh@@UEBAXAEAVdgVector@@0@Z 000000018002a940 f   physics_2009:dgCollisionMesh.obj
 0001:00029940       ?CalculateInertia@dgCollisionPoint@@UEBAXAEAVdgVector@@0@Z 000000018002a940 f   physics_2009:dgCollisionSphere.obj
 0001:00029940       ?CalculateInertia@dgCollisionConvexPolygon@dgCollisionMesh@@UEBAXAEAVdgVector@@0@Z 000000018002a940 f   physics_2009:dgCollisionMesh.obj
 0001:00029940       ?CalculateInertia@dgCollisionNull@@MEBAXAEAVdgVector@@0@Z 000000018002a940 f   physics_2009:dgCollisionNull.obj
 0001:00029940       ?CalculateInertia@dgCollisionScene@@EEBAXAEAVdgVector@@0@Z 000000018002a940 f   physics_2009:dgCollisionScene.obj
 0001:00029960       ?SupportVertex@dgCollisionConvexPolygon@dgCollisionMesh@@UEBA?AVdgVector@@AEBV3@@Z 000000018002a960 f   physics_2009:dgCollisionMesh.obj
 0001:00029b50       ?CalculateNormalSimd@dgCollisionConvexPolygon@dgCollisionMesh@@QEAAXXZ 000000018002ab50 f   physics_2009:dgCollisionMesh.obj
 0001:00029c60       ?CalculateNormal@dgCollisionConvexPolygon@dgCollisionMesh@@QEAAXXZ 000000018002ac60 f   physics_2009:dgCollisionMesh.obj
 0001:00029df0       ?CalculatePlaneIntersection@dgCollisionConvexPolygon@dgCollisionMesh@@UEBAHAEBVdgVector@@0QEAV3@@Z 000000018002adf0 f   physics_2009:dgCollisionMesh.obj
 0001:0002a820       ?CalculatePlaneIntersectionSimd@dgCollisionConvexPolygon@dgCollisionMesh@@UEBAHAEBVdgVector@@0QEAV3@@Z 000000018002b820 f   physics_2009:dgCollisionMesh.obj
 0001:0002af10       ??_GdgCollisionMesh@@UEAAPEAXI@Z 000000018002bf10 f i physics_2009:dgCollisionMesh.obj
 0001:0002af10       ??_EdgCollisionMesh@@UEAAPEAXI@Z 000000018002bf10 f i physics_2009:dgCollisionMesh.obj
 0001:0002af90       ??0dgCollisionConvexPolygon@dgCollisionMesh@@QEAA@XZ 000000018002bf90 f   physics_2009:dgCollisionMesh.obj
 0001:0002b050       ??_EdgCollisionConvexPolygon@dgCollisionMesh@@UEAAPEAXI@Z 000000018002c050 f i physics_2009:dgCollisionMesh.obj
 0001:0002b050       ??_GdgCollisionConvexPolygon@dgCollisionMesh@@UEAAPEAXI@Z 000000018002c050 f i physics_2009:dgCollisionMesh.obj
 0001:0002b080       ?QuickTestContinueSimd@dgCollisionConvexPolygon@dgCollisionMesh@@QEAAHPEBVdgConvexCollision@@AEBVdgMatrix@@@Z 000000018002c080 f   physics_2009:dgCollisionMesh.obj
 0001:0002b520       ?QuickTestContinue@dgCollisionConvexPolygon@dgCollisionMesh@@QEAAHPEBVdgConvexCollision@@AEBVdgMatrix@@@Z 000000018002c520 f   physics_2009:dgCollisionMesh.obj
 0001:0002b8b0       ?QuickTest@dgCollisionConvexPolygon@dgCollisionMesh@@QEAAHPEBVdgConvexCollision@@AEBVdgMatrix@@@Z 000000018002c8b0 f   physics_2009:dgCollisionMesh.obj
 0001:0002bdb0       ?QuickTestSimd@dgCollisionConvexPolygon@dgCollisionMesh@@QEAAHPEBVdgConvexCollision@@AEBVdgMatrix@@@Z 000000018002cdb0 f   physics_2009:dgCollisionMesh.obj
 0001:0002c3b0       ?ClipContacts@dgCollisionConvexPolygon@dgCollisionMesh@@QEBAHHQEAVdgContactPoint@@AEBVdgMatrix@@@Z 000000018002d3b0 f   physics_2009:dgCollisionMesh.obj
 0001:0002cdb0       ?ClosestDistanceToTriangle@dgCollisionConvexPolygon@dgCollisionMesh@@QEBA?AVdgVector@@AEBV3@000@Z 000000018002ddb0 f   physics_2009:dgCollisionMesh.obj
 0001:0002d240       ?PointToPolygonDistance@dgCollisionConvexPolygon@dgCollisionMesh@@QEAA_NAEBVdgVector@@MAEAV3@@Z 000000018002e240 f   physics_2009:dgCollisionMesh.obj
 0001:0002d500       ?DistanceToOrigen@dgCollisionConvexPolygon@dgCollisionMesh@@QEAA_NAEBVdgMatrix@@AEBVdgVector@@MAEAV4@@Z 000000018002e500 f   physics_2009:dgCollisionMesh.obj
 0001:0002dbb0       ?MovingPointToPolygonContact@dgCollisionConvexPolygon@dgCollisionMesh@@QEAAMAEBVdgVector@@0MAEAVdgContactPoint@@@Z 000000018002ebb0 f   physics_2009:dgCollisionMesh.obj
 0001:0002e560       ?CalcAABB@dgCollisionMesh@@EEBAXAEBVdgMatrix@@AEAVdgVector@@1@Z 000000018002f560 f   physics_2009:dgCollisionMesh.obj
 0001:0002e560       ?CalcAABB@dgCollisionScene@@EEBAXAEBVdgMatrix@@AEAVdgVector@@1@Z 000000018002f560 f   physics_2009:dgCollisionScene.obj
 0001:0002e800       ??0dgCollisionMesh@@QEAA@W4dgCollisionID@@@Z 000000018002f800 f   physics_2009:dgCollisionMesh.obj
 0001:0002e910       ??0dgCollisionMesh@@QEAA@PEAVdgWorld@@P6AXPEAX1_K@Z1@Z 000000018002f910 f   physics_2009:dgCollisionMesh.obj
 0001:0002ea10       ??0dgCollisionBVH@@QEAA@XZ 000000018002fa10 f   physics_2009:dgCollisionBVH.obj
 0001:0002ea70       ?Serialize@dgCollisionBVH@@EEBAXP6AXPEAXPEBX_K@Z0@Z 000000018002fa70 f   physics_2009:dgCollisionBVH.obj
 0001:0002eac0       ?AddFace@dgCollisionBVH@@QEAAXHQEBMHH@Z 000000018002fac0 f   physics_2009:dgCollisionBVH.obj
 0001:0002eb70       ?CollectVertexListIndexList@dgCollisionBVH@@CA?AW4dgIntersectStatus@@PEAXQEBMHQEBHH@Z 000000018002fb70 f   physics_2009:dgCollisionBVH.obj
 0001:0002ec40       ?GetTriangleCount@dgCollisionBVH@@CA?AW4dgIntersectStatus@@PEAXQEBMHQEBHH@Z 000000018002fc40 f   physics_2009:dgCollisionBVH.obj
 0001:0002ec70       ?SupportVertex@dgCollisionBVH@@EEBA?AVdgVector@@AEBV2@@Z 000000018002fc70 f   physics_2009:dgCollisionBVH.obj
 0001:0002ec90       ??_EdgCollisionBVH@@WOA@EAAPEAXI@Z 000000018002fc90 f i physics_2009:dgCollisionBVH.obj
 0001:0002eca0       ?Serialize@dgCollisionBVH@@GOA@EBAXP6AXPEAXPEBX_K@Z0@Z 000000018002fca0 f i physics_2009:dgCollisionBVH.obj
 0001:0002ecb0       ??_EdgCollisionBVH@@UEAAPEAXI@Z 000000018002fcb0 f i physics_2009:dgCollisionBVH.obj
 0001:0002ecb0       ??_GdgCollisionBVH@@UEAAPEAXI@Z 000000018002fcb0 f i physics_2009:dgCollisionBVH.obj
 0001:0002ed10       ?BeginBuild@dgCollisionBVH@@QEAAXXZ 000000018002fd10 f   physics_2009:dgCollisionBVH.obj
 0001:0002ed50       ?GetVertexListIndexList@dgCollisionBVH@@UEBAXAEBVdgVector@@0AEAVdgGetVertexListIndexList@dgCollisionMesh@@@Z 000000018002fd50 f   physics_2009:dgCollisionBVH.obj
 0001:0002edb0       ??0dgCollisionBVH@@QEAA@PEAVdgWorld@@P6AXPEAX1_K@Z1@Z 000000018002fdb0 f   physics_2009:dgCollisionBVH.obj
 0001:0002ee60       ?EndBuild@dgCollisionBVH@@QEAAXH@Z 000000018002fe60 f   physics_2009:dgCollisionBVH.obj
 0001:0002ef00       ?GetCollisionInfo@dgCollisionBVH@@EEBAXPEAVdgCollisionInfo@@@Z 000000018002ff00 f   physics_2009:dgCollisionBVH.obj
 0001:0002f010       ?RayHitSimd@dgCollisionBVH@@CAMPEAXQEBMHQEBHH@Z 0000000180030010 f   physics_2009:dgCollisionBVH.obj
 0001:0002f180       ?RayHit@dgCollisionBVH@@CAMPEAXQEBMHQEBHH@Z 0000000180030180 f   physics_2009:dgCollisionBVH.obj
 0001:0002f2f0       ?RayHitUserSimd@dgCollisionBVH@@CAMPEAXQEBMHQEBHH@Z 00000001800302f0 f   physics_2009:dgCollisionBVH.obj
 0001:0002f430       ?RayHitUser@dgCollisionBVH@@CAMPEAXQEBMHQEBHH@Z 0000000180030430 f   physics_2009:dgCollisionBVH.obj
 0001:0002f5f0       ?RayCastSimd@dgCollisionBVH@@EEBAMAEBVdgVector@@0AEAVdgContactPoint@@P6AIPEBVdgBody@@PEBVdgCollision@@PEAX@Z24@Z 00000001800305f0 f   physics_2009:dgCollisionBVH.obj
 0001:0002f8a0       ?RayCast@dgCollisionBVH@@EEBAMAEBVdgVector@@0AEAVdgContactPoint@@P6AIPEBVdgBody@@PEBVdgCollision@@PEAX@Z24@Z 00000001800308a0 f   physics_2009:dgCollisionBVH.obj
 0001:0002fb50       ?GetPolygon@dgCollisionBVH@@CA?AW4dgIntersectStatus@@PEAXQEBMHQEBHH@Z 0000000180030b50 f   physics_2009:dgCollisionBVH.obj
 0001:00030080       ?GetCollidingFacesSimd@dgCollisionBVH@@EEBAXQEAVdgPolygonMeshDesc@@@Z 0000000180031080 f   physics_2009:dgCollisionBVH.obj
 0001:00030100       ?GetCollidingFaces@dgCollisionBVH@@EEBAXQEAVdgPolygonMeshDesc@@@Z 0000000180031100 f   physics_2009:dgCollisionBVH.obj
 0001:00030180       ?ShowDebugPolygon@dgCollisionBVH@@CA?AW4dgIntersectStatus@@PEAXQEBMHQEBHH@Z 0000000180031180 f   physics_2009:dgCollisionBVH.obj
 0001:00030640       ?DebugCollision@dgCollisionBVH@@EEBAXAEBVdgMatrix@@P6AXPEAXHPEBMH@Z1@Z 0000000180031640 f   physics_2009:dgCollisionBVH.obj
 0001:00030710       ??_GdgSceneNode@dgCollisionScene@@QEAAPEAXI@Z 0000000180031710 f i physics_2009:dgCollisionScene.obj
 0001:00030770       ?CalcAABBSimD@dgCollisionMesh@@EEBAXAEBVdgMatrix@@AEAVdgVector@@1@Z 0000000180031770 f   physics_2009:dgCollisionMesh.obj
 0001:00030770       ?CalcAABBSimD@dgCollisionNull@@MEBAXAEBVdgMatrix@@AEAVdgVector@@1@Z 0000000180031770 f   physics_2009:dgCollisionNull.obj
 0001:00030770       ?CalcAABBSimD@dgCollisionScene@@EEBAXAEBVdgMatrix@@AEAVdgVector@@1@Z 0000000180031770 f   physics_2009:dgCollisionScene.obj
 0001:00030780       ?UpdateAABB@dgSceneNode@dgCollisionScene@@QEAAXAEBVdgVector@@0@Z 0000000180031780 f i physics_2009:dgCollisionScene.obj
 0001:00030810       ?Serialize@dgCollisionScene@@EEBAXP6AXPEAXPEBX_K@Z0@Z 0000000180031810 f   physics_2009:dgCollisionScene.obj
 0001:00030a00       ?SetProxyMatrix@dgCollisionScene@@QEAAXPEAXAEBVdgMatrix@@@Z 0000000180031a00 f   physics_2009:dgCollisionScene.obj
 0001:00030a80       ?SetCollisionCallback@dgCollisionScene@@QEAAXP6AXPEBVdgBody@@0HHPEBMH@Z@Z 0000000180031a80 f   physics_2009:dgCollisionScene.obj
 0001:00030ad0       ?DebugCollision@dgCollisionScene@@EEBAXAEBVdgMatrix@@P6AXPEAXHPEBMH@Z1@Z 0000000180031ad0 f   physics_2009:dgCollisionScene.obj
 0001:00030b80       ?GetCollisionInfo@dgCollisionScene@@EEBAXPEAVdgCollisionInfo@@@Z 0000000180031b80 f   physics_2009:dgCollisionScene.obj
 0001:00030bf0       ?RemoveAll@?$dgList@UdgProxy@dgCollisionScene@@@@QEAAXXZ 0000000180031bf0 f i physics_2009:dgCollisionScene.obj
 0001:00030c80       ?Unlink@?$dgList@UdgProxy@dgCollisionScene@@@@QEAAXPEAVdgListNode@1@@Z 0000000180031c80 f i physics_2009:dgCollisionScene.obj
 0001:00030cf0       ?GetProxyMatrix@dgCollisionScene@@QEAA?AVdgMatrix@@PEAX@Z 0000000180031cf0 f   physics_2009:dgCollisionScene.obj
 0001:00030e80       ?SetCollisionBBox@dgCollisionMesh@@MEAAXAEBVdgVector@@0@Z 0000000180031e80 f   physics_2009:dgCollisionMesh.obj
 0001:00030e80       ?SetCollisionBBox@dgCollisionScene@@EEAAXAEBVdgVector@@0@Z 0000000180031e80 f   physics_2009:dgCollisionScene.obj
 0001:00030f70       ?GetAxis@dgCollisionScene@@AEBAHQEAPEAVdgListNode@?$dgList@UdgProxy@dgCollisionScene@@@@H@Z 0000000180031f70 f   physics_2009:dgCollisionScene.obj
 0001:000312a0       ?RayCastSimd@dgCollisionScene@@EEBAMAEBVdgVector@@0AEAVdgContactPoint@@P6AIPEBVdgBody@@PEBVdgCollision@@PEAX@Z24@Z 00000001800322a0 f   physics_2009:dgCollisionScene.obj
 0001:00031a20       ?RayCast@dgCollisionScene@@EEBAMAEBVdgVector@@0AEAVdgContactPoint@@P6AIPEBVdgBody@@PEBVdgCollision@@PEAX@Z24@Z 0000000180032a20 f   physics_2009:dgCollisionScene.obj
 0001:000321a0       ?CollidePairSimd@dgCollisionScene@@QEBAXQEAUdgPair@dgCollidingPairCollector@@AEAVdgCollisionParamProxi@@@Z 00000001800331a0 f   physics_2009:dgCollisionScene.obj
 0001:00032590       ?CollidePair@dgCollisionScene@@QEBAXQEAUdgPair@dgCollidingPairCollector@@AEAVdgCollisionParamProxi@@@Z 0000000180033590 f   physics_2009:dgCollisionScene.obj
 0001:000329c0       ?SortAABBBoxes@dgCollisionScene@@AEBAHQEAPEAVdgListNode@?$dgList@UdgProxy@dgCollisionScene@@@@H@Z 00000001800339c0 f   physics_2009:dgCollisionScene.obj
 0001:00032b50       ?SortAndSpliteSplite@dgCollisionScene@@AEBAHQEAPEAVdgListNode@?$dgList@UdgProxy@dgCollisionScene@@@@H@Z 0000000180033b50 f   physics_2009:dgCollisionScene.obj
 0001:00032db0       ?BuildTree@dgCollisionScene@@AEAAPEAUdgSceneNode@1@PEAU21@QEAPEAVdgListNode@?$dgList@UdgProxy@dgCollisionScene@@@@HH@Z 0000000180033db0 f   physics_2009:dgCollisionScene.obj
 0001:00032f30       ??0dgListNode@?$dgList@UdgProxy@dgCollisionScene@@@@AEAA@PEAV01@0@Z 0000000180033f30 f i physics_2009:dgCollisionScene.obj
 0001:00032fa0       ??0dgCollisionScene@@QEAA@PEAVdgWorld@@@Z 0000000180033fa0 f   physics_2009:dgCollisionScene.obj
 0001:00033080       ??1dgCollisionScene@@UEAA@XZ 0000000180034080 f   physics_2009:dgCollisionScene.obj
 0001:00033130       ?RemoveProxy@dgCollisionScene@@QEAAXPEAX@Z 0000000180034130 f   physics_2009:dgCollisionScene.obj
 0001:00033180       ?Append@?$dgList@UdgProxy@dgCollisionScene@@@@QEAAPEAVdgListNode@1@XZ 0000000180034180 f i physics_2009:dgCollisionScene.obj
 0001:00033220       ??_GdgCollisionScene@@UEAAPEAXI@Z 0000000180034220 f i physics_2009:dgCollisionScene.obj
 0001:00033220       ??_EdgCollisionScene@@UEAAPEAXI@Z 0000000180034220 f i physics_2009:dgCollisionScene.obj
 0001:00033250       ?AddProxy@dgCollisionScene@@QEAAPEAXPEAVdgCollision@@@Z 0000000180034250 f   physics_2009:dgCollisionScene.obj
 0001:000332e0       ?BuildTree@dgCollisionScene@@QEAAXXZ 00000001800342e0 f   physics_2009:dgCollisionScene.obj
 0001:000334d0       ??0dgCollisionScene@@QEAA@PEAVdgWorld@@P6AXPEAX1_K@Z1@Z 00000001800344d0 f   physics_2009:dgCollisionScene.obj
 0001:00033850       ?SetAparentMassMatrix@dgBody@@QEAAXAEBVdgVector@@@Z 0000000180034850 f   physics_2009:dgBody.obj
 0001:000338d0       ??DdgQuaternion@@QEBA?AV0@AEBV0@@Z 00000001800348d0 f i physics_2009:dgBody.obj
 0001:00033a10       ?AddBuoyancyForce@dgBody@@QEAAXMMMAEBVdgVector@@P6AIPEAX1AEBVdgMatrix@@AEAVdgPlane@@@Z1@Z 0000000180034a10 f   physics_2009:dgBody.obj
 0001:00033d80       ?CalcInvInertiaMatrix@dgBody@@QEAAXXZ 0000000180034d80 f   physics_2009:dgBody.obj
 0001:00033ec0       ?CalcInvInertiaMatrixSimD@dgBody@@QEAAXXZ 0000000180034ec0 f   physics_2009:dgBody.obj
 0001:00033fe0       ?CalculateInverseDynamicForce@dgBody@@QEBA?AVdgVector@@AEBV2@M@Z 0000000180034fe0 f   physics_2009:dgBody.obj
 0001:00034090       ?GetFirstJoint@dgBody@@QEBAPEAVdgConstraint@@XZ 0000000180035090 f   physics_2009:dgBody.obj
 0001:000340d0       ?GetNextJoint@dgBody@@QEBAPEAVdgConstraint@@PEAV2@@Z 00000001800350d0 f   physics_2009:dgBody.obj
 0001:00034120       ?GetFirstContact@dgBody@@QEBAPEAVdgConstraint@@XZ 0000000180035120 f   physics_2009:dgBody.obj
 0001:00034160       ?GetNextContact@dgBody@@QEBAPEAVdgConstraint@@PEAV2@@Z 0000000180035160 f   physics_2009:dgBody.obj
 0001:000341b0       ?Freeze@dgBody@@QEAAXXZ    00000001800351b0 f   physics_2009:dgBody.obj
 0001:00034210       ?Unfreeze@dgBody@@QEAAXXZ  0000000180035210 f   physics_2009:dgBody.obj
 0001:00034270       ?AddImpulse@dgBody@@AEAAXAEBVdgVector@@0@Z 0000000180035270 f   physics_2009:dgBody.obj
 0001:00034810       ?InsertAfter@?$dgList@VdgBodyMasterListRow@@@@QEAAXPEAVdgListNode@1@0@Z 0000000180035810 f i physics_2009:dgBody.obj
 0001:00034890       ??0dgBody@@QEAA@XZ         0000000180035890 f   physics_2009:dgBody.obj
 0001:000348c0       ?SetMassMatrix@dgBody@@QEAAXMMMM@Z 00000001800358c0 f   physics_2009:dgBody.obj
 0001:00034a60       ?UpdateCollisionMatrixSimD@dgBody@@AEAAXMH@Z 0000000180035a60 f   physics_2009:dgBody.obj
 0001:000350b0       ?UpdateCollisionMatrix@dgBody@@AEAAXMH@Z 00000001800360b0 f   physics_2009:dgBody.obj
 0001:00035620       ?RayCast@dgBody@@QEBAMAEBUdgLineBox@@P6AMPEBV1@AEBVdgVector@@HPEAXM@ZP6AI1PEBVdgCollision@@3@Z3M@Z 0000000180036620 f   physics_2009:dgBody.obj
 0001:00035b00       ?UpdateMatrix@dgBody@@AEAAXMH@Z 0000000180036b00 f   physics_2009:dgBody.obj
 0001:00035b50       ?IntegrateVelocity@dgBody@@AEAAXM@Z 0000000180036b50 f   physics_2009:dgBody.obj
 0001:00035f90       ?CalculateContinueVelocity@dgBody@@AEBAXMAEAVdgVector@@0@Z 0000000180036f90 f   physics_2009:dgBody.obj
 0001:000361b0       ?CalculateContinueVelocitySimD@dgBody@@AEBAXMAEAVdgVector@@0@Z 00000001800371b0 f   physics_2009:dgBody.obj
 0001:00036370       ?SetFreeze@dgBody@@QEAAX_N@Z 0000000180037370 f   physics_2009:dgBody.obj
 0001:00036380       ?SetMatrix@dgBody@@QEAAXAEBVdgMatrix@@@Z 0000000180037380 f   physics_2009:dgBody.obj
 0001:00036510       ?SetMatrixIgnoreSleep@dgBody@@QEAAXAEBVdgMatrix@@@Z 0000000180037510 f   physics_2009:dgBody.obj
 0001:000365d0       ?AttachCollision@dgBody@@QEAAXPEAVdgCollision@@@Z 00000001800375d0 f   physics_2009:dgBody.obj
 0001:000366f0       ?SetJointParameterCallBack@dgBallConstraint@@QEAAXP6AIAEBV1@M@Z@Z 00000001800376f0 f   physics_2009:dgBallConstraint.obj
 0001:00036700       ?GetJointAngle@dgBallConstraint@@QEBA?AVdgVector@@XZ 0000000180037700 f   physics_2009:dgBallConstraint.obj
 0001:00036730       ?SetTwistLimitState@dgBallConstraint@@QEAAX_N@Z 0000000180037730 f   physics_2009:dgBallConstraint.obj
 0001:00036750       ?SetConeLimitState@dgBallConstraint@@QEAAX_N@Z 0000000180037750 f   physics_2009:dgBallConstraint.obj
 0001:00036770       ?SetLatealLimitState@dgBallConstraint@@QEAAX_N@Z 0000000180037770 f   physics_2009:dgBallConstraint.obj
 0001:00036790       ??_EdgBallConstraint@@EEAAPEAXI@Z 0000000180037790 f i physics_2009:dgBallConstraint.obj
 0001:00036790       ??_GdgBallConstraint@@EEAAPEAXI@Z 0000000180037790 f i physics_2009:dgBallConstraint.obj
 0001:000367d0       ??0dgBallConstraint@@AEAA@XZ 00000001800377d0 f   physics_2009:dgBallConstraint.obj
 0001:00036860       ?GetJointOmega@dgBallConstraint@@QEBA?AVdgVector@@XZ 0000000180037860 f   physics_2009:dgBallConstraint.obj
 0001:00036af0       ?GetJointForce@dgBallConstraint@@QEBA?AVdgVector@@XZ 0000000180037af0 f   physics_2009:dgBallConstraint.obj
 0001:00036c20       ?SetLimits@dgBallConstraint@@QEAAXAEBVdgVector@@MMM0MM@Z 0000000180037c20 f   physics_2009:dgBallConstraint.obj
 0001:00037640       ?JacobianDerivative@dgBallConstraint@@EEAAIAEAVdgContraintDescritor@@@Z 0000000180038640 f   physics_2009:dgBallConstraint.obj
 0001:00037f20       ?SetPivotPoint@dgBallConstraint@@AEAAXAEBVdgVector@@@Z 0000000180038f20 f   physics_2009:dgBallConstraint.obj
 0001:00038030       ??0dgHingeConstraint@@AEAA@XZ 0000000180039030 f   physics_2009:dgHingeConstraint.obj
 0001:00038070       ??_EdgHingeConstraint@@EEAAPEAXI@Z 0000000180039070 f i physics_2009:dgHingeConstraint.obj
 0001:00038070       ??_GdgHingeConstraint@@EEAAPEAXI@Z 0000000180039070 f i physics_2009:dgHingeConstraint.obj
 0001:000380b0       ?GetJointOmega@dgHingeConstraint@@QEBAMXZ 00000001800390b0 f   physics_2009:dgHingeConstraint.obj
 0001:000380b0       ?GetJointOmega0@dgUniversalConstraint@@QEBAMXZ 00000001800390b0 f   physics_2009:dgUniversalConstraint.obj
 0001:000380b0       ?GetJointOmega@dgCorkscrewConstraint@@QEBAMXZ 00000001800390b0 f   physics_2009:dgCorkscrewConstraint.obj
 0001:00038180       ?CalculateStopAlpha@dgHingeConstraint@@QEBAMMPEBVdgJointCallBackParam@@@Z 0000000180039180 f   physics_2009:dgHingeConstraint.obj
 0001:00038220       ?GetJointForce@dgHingeConstraint@@QEBA?AVdgVector@@XZ 0000000180039220 f   physics_2009:dgHingeConstraint.obj
 0001:00038400       ?JacobianDerivative@dgHingeConstraint@@EEAAIAEAVdgContraintDescritor@@@Z 0000000180039400 f   physics_2009:dgHingeConstraint.obj
 0001:000387c0       ??0dgSlidingConstraint@@AEAA@XZ 00000001800397c0 f   physics_2009:dgSlidingConstraint.obj
 0001:00038800       ?SetJointParameterCallBack@dgHingeConstraint@@QEAAXP6AIAEBV1@PEAVdgJointCallBackParam@@@Z@Z 0000000180039800 f   physics_2009:dgHingeConstraint.obj
 0001:00038800       ?SetJointParameterCallBack@dgUniversalConstraint@@QEAAXP6AIAEBV1@PEAVdgJointCallBackParam@@@Z@Z 0000000180039800 f   physics_2009:dgUniversalConstraint.obj
 0001:00038800       ?SetJointParameterCallBack@dgCorkscrewConstraint@@QEAAXP6AIAEBV1@PEAVdgJointCallBackParam@@@Z@Z 0000000180039800 f   physics_2009:dgCorkscrewConstraint.obj
 0001:00038800       ?SetJointParameterCallBack@dgSlidingConstraint@@QEAAXP6AIAEBV1@PEAVdgJointCallBackParam@@@Z@Z 0000000180039800 f   physics_2009:dgSlidingConstraint.obj
 0001:00038810       ??_GdgSlidingConstraint@@EEAAPEAXI@Z 0000000180039810 f i physics_2009:dgSlidingConstraint.obj
 0001:00038810       ??_EdgSlidingConstraint@@EEAAPEAXI@Z 0000000180039810 f i physics_2009:dgSlidingConstraint.obj
 0001:00038850       ?GetJointVeloc@dgCorkscrewConstraint@@QEBAMXZ 0000000180039850 f   physics_2009:dgCorkscrewConstraint.obj
 0001:00038850       ?GetJointVeloc@dgSlidingConstraint@@QEBAMXZ 0000000180039850 f   physics_2009:dgSlidingConstraint.obj
 0001:00038920       ?CalculateStopAccel@dgSlidingConstraint@@QEBAMMPEBVdgJointCallBackParam@@@Z 0000000180039920 f   physics_2009:dgSlidingConstraint.obj
 0001:000389b0       ?GetJointForce@dgSlidingConstraint@@QEBA?AVdgVector@@XZ 00000001800399b0 f   physics_2009:dgSlidingConstraint.obj
 0001:00038bb0       ?JacobianDerivative@dgSlidingConstraint@@EEAAIAEAVdgContraintDescritor@@@Z 0000000180039bb0 f   physics_2009:dgSlidingConstraint.obj
 0001:00039170       ??0dgCorkscrewConstraint@@AEAA@XZ 000000018003a170 f   physics_2009:dgCorkscrewConstraint.obj
 0001:000391c0       ??_EdgCorkscrewConstraint@@EEAAPEAXI@Z 000000018003a1c0 f i physics_2009:dgCorkscrewConstraint.obj
 0001:000391c0       ??_GdgCorkscrewConstraint@@EEAAPEAXI@Z 000000018003a1c0 f i physics_2009:dgCorkscrewConstraint.obj
 0001:00039200       ?CalculateStopAlpha0@dgUniversalConstraint@@QEBAMMPEBVdgJointCallBackParam@@@Z 000000018003a200 f   physics_2009:dgUniversalConstraint.obj
 0001:00039200       ?CalculateStopAlpha@dgCorkscrewConstraint@@QEBAMMPEBVdgJointCallBackParam@@@Z 000000018003a200 f   physics_2009:dgCorkscrewConstraint.obj
 0001:00039290       ?CalculateStopAccel@dgCorkscrewConstraint@@QEBAMMPEBVdgJointCallBackParam@@@Z 000000018003a290 f   physics_2009:dgCorkscrewConstraint.obj
 0001:00039320       ?GetJointForce@dgCorkscrewConstraint@@QEBA?AVdgVector@@XZ 000000018003a320 f   physics_2009:dgCorkscrewConstraint.obj
 0001:00039320       ?GetJointForce@dgUniversalConstraint@@QEBA?AVdgVector@@XZ 000000018003a320 f   physics_2009:dgUniversalConstraint.obj
 0001:000394b0       ?JacobianDerivative@dgCorkscrewConstraint@@EEAAIAEAVdgContraintDescritor@@@Z 000000018003a4b0 f   physics_2009:dgCorkscrewConstraint.obj
 0001:00039a70       ??0dgUniversalConstraint@@AEAA@XZ 000000018003aa70 f   physics_2009:dgUniversalConstraint.obj
 0001:00039ac0       ?GetJointAngle@dgHingeConstraint@@QEBAMXZ 000000018003aac0 f   physics_2009:dgHingeConstraint.obj
 0001:00039ac0       ?GetJointAngle0@dgUniversalConstraint@@QEBAMXZ 000000018003aac0 f   physics_2009:dgUniversalConstraint.obj
 0001:00039ac0       ?GetJointAngle@dgCorkscrewConstraint@@QEBAMXZ 000000018003aac0 f   physics_2009:dgCorkscrewConstraint.obj
 0001:00039ac0       ?GetJointPosit@dgSlidingConstraint@@QEBAMXZ 000000018003aac0 f   physics_2009:dgSlidingConstraint.obj
 0001:00039ad0       ?GetJointAngle1@dgUniversalConstraint@@QEBAMXZ 000000018003aad0 f   physics_2009:dgUniversalConstraint.obj
 0001:00039ad0       ?GetJointPosit@dgCorkscrewConstraint@@QEBAMXZ 000000018003aad0 f   physics_2009:dgCorkscrewConstraint.obj
 0001:00039ae0       ??_EdgUniversalConstraint@@EEAAPEAXI@Z 000000018003aae0 f i physics_2009:dgUniversalConstraint.obj
 0001:00039ae0       ??_GdgUniversalConstraint@@EEAAPEAXI@Z 000000018003aae0 f i physics_2009:dgUniversalConstraint.obj
 0001:00039b20       ?GetJointOmega1@dgUniversalConstraint@@QEBAMXZ 000000018003ab20 f   physics_2009:dgUniversalConstraint.obj
 0001:00039bf0       ?CalculateStopAlpha1@dgUniversalConstraint@@QEBAMMPEBVdgJointCallBackParam@@@Z 000000018003abf0 f   physics_2009:dgUniversalConstraint.obj
 0001:00039c80       ?JacobianDerivative@dgUniversalConstraint@@EEAAIAEAVdgContraintDescritor@@@Z 000000018003ac80 f   physics_2009:dgUniversalConstraint.obj
 0001:0003a320       ??0dgUpVectorConstraint@@AEAA@XZ 000000018003b320 f   physics_2009:dgUpVectorConstraint.obj
 0001:0003a370       ?InitPinDir@dgUpVectorConstraint@@QEAAXAEBVdgVector@@@Z 000000018003b370 f   physics_2009:dgUpVectorConstraint.obj
 0001:0003a3b0       ?GetPinDir@dgUpVectorConstraint@@QEBA?AVdgVector@@XZ 000000018003b3b0 f   physics_2009:dgUpVectorConstraint.obj
 0001:0003a3e0       ??_GdgUpVectorConstraint@@EEAAPEAXI@Z 000000018003b3e0 f i physics_2009:dgUpVectorConstraint.obj
 0001:0003a3e0       ??_EdgUpVectorConstraint@@EEAAPEAXI@Z 000000018003b3e0 f i physics_2009:dgUpVectorConstraint.obj
 0001:0003a420       ?SetPinDir@dgUpVectorConstraint@@QEAAXAEBVdgVector@@@Z 000000018003b420 f   physics_2009:dgUpVectorConstraint.obj
 0001:0003a6f0       ?JacobianDerivative@dgUpVectorConstraint@@EEAAIAEAVdgContraintDescritor@@@Z 000000018003b6f0 f   physics_2009:dgUpVectorConstraint.obj
 0001:0003a990       ?GetUserData@dgConstraint@@QEBAPEAXXZ 000000018003b990 f   physics_2009:dgConstraint.obj
 0001:0003a9a0       ?SetUserData@dgConstraint@@QEAAXPEAX@Z 000000018003b9a0 f   physics_2009:dgConstraint.obj
 0001:0003a9b0       ?InitInfo@dgConstraint@@IEBAXPEAVdgConstraintInfo@@@Z 000000018003b9b0 f   physics_2009:dgConstraint.obj
 0001:0003aac0       ?InitPointParam@dgConstraint@@IEBAXAEAVdgPointParam@1@MAEBVdgVector@@1@Z 000000018003bac0 f   physics_2009:dgConstraint.obj
 0001:0003aeb0       ??0dgCollisionConvexHull@@QEAA@PEAVdgWorld@@P6AXPEAX1_K@Z1@Z 000000018003beb0 f   physics_2009:dgCollisionConvexHull.obj
 0001:0003b0c0       ?GetFaceIndices@dgCollisionConvexHull@@QEBAHHPEAH@Z 000000018003c0c0 f   physics_2009:dgCollisionConvexHull.obj
 0001:0003b110       ?GetCollisionInfo@dgCollisionConvexHull@@EEBAXPEAVdgCollisionInfo@@@Z 000000018003c110 f   physics_2009:dgCollisionConvexHull.obj
 0001:0003b1a0       ?Serialize@dgCollisionConvexHull@@EEBAXP6AXPEAXPEBX_K@Z0@Z 000000018003c1a0 f   physics_2009:dgCollisionConvexHull.obj
 0001:0003b330       ??_EdgCollisionConvexHull@@UEAAPEAXI@Z 000000018003c330 f i physics_2009:dgCollisionConvexHull.obj
 0001:0003b330       ??_GdgCollisionConvexHull@@UEAAPEAXI@Z 000000018003c330 f i physics_2009:dgCollisionConvexHull.obj
 0001:0003b380       ?BruteForceSupportVertex@dgCollisionConvexHull@@AEBAHHPEAVdgVector@@AEBV2@@Z 000000018003c380 f   physics_2009:dgCollisionConvexHull.obj
 0001:0003b540       ?DebugCollision@dgCollisionConvexHull@@EEBAXAEBVdgMatrix@@P6AXPEAXHPEBMH@Z1@Z 000000018003c540 f   physics_2009:dgCollisionConvexHull.obj
 0001:0003b670       ?OOBBTest@dgCollisionConvexHull@@EEBA_NAEBVdgMatrix@@QEBVdgConvexCollision@@PEAX@Z 000000018003c670 f   physics_2009:dgCollisionConvexHull.obj
 0001:0003bbc0       ?FaceNormal@dgCollisionConvexHull@@AEBA?AVdgVector@@PEBVdgEdge@@PEBV2@@Z 000000018003cbc0 f   physics_2009:dgCollisionConvexHull.obj
 0001:0003be10       ?RemoveCoplanarEdge@dgCollisionConvexHull@@AEBA_NAEAVdgPolyhedra@@QEAVdgVector@@@Z 000000018003ce10 f   physics_2009:dgCollisionConvexHull.obj
 0001:0003c360       ?Create@dgCollisionConvexHull@@AEAA_NHHPEBMM@Z 000000018003d360 f   physics_2009:dgCollisionConvexHull.obj
 0001:0003e110       ??0dgCollisionConvexHull@@QEAA@IHHMPEBMAEBVdgMatrix@@@Z 000000018003f110 f   physics_2009:dgCollisionConvexHull.obj
 0001:0003e580       ?Realloc@dgBroadPhaseCalculateContactsWorkerThread@@QEAAXHHH@Z 000000018003f580 f   physics_2009:dgBroadPhaseCollision.obj
 0001:0003e6b0       ?ThreadExecute@dgBroadPhaseCalculateContactsWorkerThread@@UEAAXXZ 000000018003f6b0 f   physics_2009:dgBroadPhaseCollision.obj
 0001:0003e890       ?ThreadExecute@dgBroadPhaseMaterialCallbackWorkerThread@@UEAAXXZ 000000018003f890 f   physics_2009:dgBroadPhaseCollision.obj
 0001:0003e970       ?RayCast@dgSortArray@@QEBAMMAEBUdgLineBox@@P6AMPEBVdgBody@@AEBVdgVector@@HPEAXM@ZP6AI1PEBVdgCollision@@3@Z3@Z 000000018003f970 f   physics_2009:dgBroadPhaseCollision.obj
 0001:0003ea60       ?UpdateAutoPair@dgBroadPhaseCell@@AEAAXPEAVdgWorld@@H@Z 000000018003fa60 f   physics_2009:dgBroadPhaseCollision.obj
 0001:0003eb90       ??_GdgBroadPhaseMaterialCallbackWorkerThread@@UEAAPEAXI@Z 000000018003fb90 f i physics_2009:dgBroadPhaseCollision.obj
 0001:0003eb90       ??_EdgParallelSolverBodyInertia@@UEAAPEAXI@Z 000000018003fb90 f i physics_2009:dgWorld.obj
 0001:0003eb90       ??_EdgWorkerThread@@UEAAPEAXI@Z 000000018003fb90 f i physics_2009:dgWorld.obj
 0001:0003eb90       ??_GdgParallelSolverInitFeedbackUpdate@@UEAAPEAXI@Z 000000018003fb90 f i physics_2009:dgWorld.obj
 0001:0003eb90       ??_EdgSolverWorlkerThreads@@UEAAPEAXI@Z 000000018003fb90 f i physics_2009:dgWorld.obj
 0001:0003eb90       ??_EdgBroadPhaseCalculateContactsWorkerThread@@UEAAPEAXI@Z 000000018003fb90 f i physics_2009:dgBroadPhaseCollision.obj
 0001:0003eb90       ??_EdgParallelSolverInitFeedbackUpdate@@UEAAPEAXI@Z 000000018003fb90 f i physics_2009:dgWorld.obj
 0001:0003eb90       ??_GdgParallelSolverBuildJacobianRows@@UEAAPEAXI@Z 000000018003fb90 f i physics_2009:dgWorld.obj
 0001:0003eb90       ??_EdgParallelSolverCalculateForces@@UEAAPEAXI@Z 000000018003fb90 f i physics_2009:dgWorld.obj
 0001:0003eb90       ??_GdgParallelSolverUpdateForce@@UEAAPEAXI@Z 000000018003fb90 f i physics_2009:dgWorld.obj
 0001:0003eb90       ??_GdgParallelSolverUpdateVeloc@@UEAAPEAXI@Z 000000018003fb90 f i physics_2009:dgWorld.obj
 0001:0003eb90       ??_GdgBroadPhaseCalculateContactsWorkerThread@@UEAAPEAXI@Z 000000018003fb90 f i physics_2009:dgBroadPhaseCollision.obj
 0001:0003eb90       ??_EdgParallelSolverInitInternalForces@@UEAAPEAXI@Z 000000018003fb90 f i physics_2009:dgWorld.obj
 0001:0003eb90       ??_GdgParallelSolverInitInternalForces@@UEAAPEAXI@Z 000000018003fb90 f i physics_2009:dgWorld.obj
 0001:0003eb90       ??_EdgBroadPhaseCellPairsWorkerThread@@UEAAPEAXI@Z 000000018003fb90 f i physics_2009:dgBroadPhaseCollision.obj
 0001:0003eb90       ??_EdgParallelSolverBuildJacobianMatrix@@UEAAPEAXI@Z 000000018003fb90 f i physics_2009:dgWorld.obj
 0001:0003eb90       ??_EdgSetTrreadRoundMode@dgWorld@@UEAAPEAXI@Z 000000018003fb90 f i physics_2009:dgWorld.obj
 0001:0003eb90       ??_GdgSetTrreadRoundMode@dgWorld@@UEAAPEAXI@Z 000000018003fb90 f i physics_2009:dgWorld.obj
 0001:0003eb90       ??_EdgParallelSolverJointAcceleration@@UEAAPEAXI@Z 000000018003fb90 f i physics_2009:dgWorld.obj
 0001:0003eb90       ??_GdgParallelSolverBodyInertia@@UEAAPEAXI@Z 000000018003fb90 f i physics_2009:dgWorld.obj
 0001:0003eb90       ??_EdgParallelSolverUpdateVeloc@@UEAAPEAXI@Z 000000018003fb90 f i physics_2009:dgWorld.obj
 0001:0003eb90       ??_EdgParallelSolverClear@@UEAAPEAXI@Z 000000018003fb90 f i physics_2009:dgWorld.obj
 0001:0003eb90       ??_GdgParallelSolverClear@@UEAAPEAXI@Z 000000018003fb90 f i physics_2009:dgWorld.obj
 0001:0003eb90       ??_GdgWorkerThread@@UEAAPEAXI@Z 000000018003fb90 f i physics_2009:dgWorld.obj
 0001:0003eb90       ??_EdgParallelSolverUpdateForce@@UEAAPEAXI@Z 000000018003fb90 f i physics_2009:dgWorld.obj
 0001:0003eb90       ??_EdgBroadPhaseMaterialCallbackWorkerThread@@UEAAPEAXI@Z 000000018003fb90 f i physics_2009:dgBroadPhaseCollision.obj
 0001:0003eb90       ??_GdgBroadPhaseApplyExternalForce@@UEAAPEAXI@Z 000000018003fb90 f i physics_2009:dgBroadPhaseCollision.obj
 0001:0003eb90       ??_EdgParallelSolverBuildJacobianRows@@UEAAPEAXI@Z 000000018003fb90 f i physics_2009:dgWorld.obj
 0001:0003eb90       ??_GdgParallelSolverCalculateForces@@UEAAPEAXI@Z 000000018003fb90 f i physics_2009:dgWorld.obj
 0001:0003eb90       ??_EdgBroadPhaseApplyExternalForce@@UEAAPEAXI@Z 000000018003fb90 f i physics_2009:dgBroadPhaseCollision.obj
 0001:0003eb90       ??_GdgBroadPhaseCellPairsWorkerThread@@UEAAPEAXI@Z 000000018003fb90 f i physics_2009:dgBroadPhaseCollision.obj
 0001:0003eb90       ??_GdgParallelSolverBuildJacobianMatrix@@UEAAPEAXI@Z 000000018003fb90 f i physics_2009:dgWorld.obj
 0001:0003eb90       ??_GdgParallelSolverJointAcceleration@@UEAAPEAXI@Z 000000018003fb90 f i physics_2009:dgWorld.obj
 0001:0003eb90       ??_GdgSolverWorlkerThreads@@UEAAPEAXI@Z 000000018003fb90 f i physics_2009:dgWorld.obj
 0001:0003ebc0       ?UpdatePairs@dgBroadPhaseCollision@@AEBAXPEAVdgBody@@PEAVdgListNode@?$dgList@VdgSortArrayEntry@@@@HH@Z 000000018003fbc0 f   physics_2009:dgBroadPhaseCollision.obj
 0001:0003ecc0       ?UpdatePairs@dgBroadPhaseCollision@@AEBAXAEAVdgBroadPhaseCell@@0H@Z 000000018003fcc0 f   physics_2009:dgBroadPhaseCollision.obj
 0001:0003ed60       ?ThreadExecute@dgBroadPhaseCellPairsWorkerThread@@UEAAXXZ 000000018003fd60 f   physics_2009:dgBroadPhaseCollision.obj
 0001:0003ee10       ?UpdateContactsBroadPhaseEnd@dgBroadPhaseCollision@@AEAAXM@Z 000000018003fe10 f   physics_2009:dgBroadPhaseCollision.obj
 0001:0003eef0       ?Append@?$dgList@VdgSortArrayEntry@@@@QEAAPEAVdgListNode@1@XZ 000000018003fef0 f i physics_2009:dgBroadPhaseCollision.obj
 0001:0003ef90       ?ApplyExtenalForces@dgBody@@AEAAXMH@Z 000000018003ff90 f i physics_2009:dgBroadPhaseCollision.obj
 0001:0003f030       ?IsInEquelibrium@dgBody@@QEBA_NXZ 0000000180040030 f i physics_2009:dgBroadPhaseCollision.obj
 0001:0003f1d0       ?Sort@dgSortArray@@QEAAMXZ 00000001800401d0 f   physics_2009:dgBroadPhaseCollision.obj
 0001:0003f360       ?Add@dgBroadPhaseCell@@AEAAXPEAVdgBody@@@Z 0000000180040360 f   physics_2009:dgBroadPhaseCollision.obj
 0001:0003f430       ?InvalidateCache@dgBroadPhaseCollision@@AEAAXXZ 0000000180040430 f   physics_2009:dgBroadPhaseCollision.obj
 0001:0003f490       ?ForEachBodyInAABB@dgBroadPhaseCollision@@QEBAXAEBVdgVector@@0P6AXPEAVdgBody@@@Z@Z 0000000180040490 f   physics_2009:dgBroadPhaseCollision.obj
 0001:0003f830       ?ConvexCast@dgBroadPhaseCollision@@QEBAHPEAVdgCollision@@AEBVdgMatrix@@AEBVdgVector@@AEAMP6AIPEBVdgBody@@PEBV2@PEAX@Z6QEAVdgConvexCastReturnInfo@@HH@Z 0000000180040830 f   physics_2009:dgBroadPhaseCollision.obj
 0001:000404f0       ?ThreadExecute@dgBroadPhaseApplyExternalForce@@UEAAXXZ 00000001800414f0 f   physics_2009:dgBroadPhaseCollision.obj
 0001:00040740       ?RayCast@dgBroadPhaseCollision@@QEBAXAEBVdgVector@@0P6AMPEBVdgBody@@0HPEAXM@ZP6AI1PEBVdgCollision@@2@Z2@Z 0000000180041740 f   physics_2009:dgBroadPhaseCollision.obj
 0001:00041050       ?Remove@dgSortArray@@QEAAXPEAVdgBody@@@Z 0000000180042050 f   physics_2009:dgBroadPhaseCollision.obj
 0001:000410f0       ??1dgBroadPhaseCell@@QEAA@XZ 00000001800420f0 f   physics_2009:dgBroadPhaseCollision.obj
 0001:00041180       ?Remove@dgBroadPhaseCell@@AEAAXPEAVdgBody@@@Z 0000000180042180 f   physics_2009:dgBroadPhaseCollision.obj
 0001:000411d0       ??0dgBroadPhaseCollision@@AEAA@XZ 00000001800421d0 f   physics_2009:dgBroadPhaseCollision.obj
 0001:000415d0       ??1dgBroadPhaseCollision@@AEAA@XZ 00000001800425d0 f   physics_2009:dgBroadPhaseCollision.obj
 0001:000416b0       ?Remove@dgBroadPhaseCollision@@AEAAXPEAVdgBody@@@Z 00000001800426b0 f   physics_2009:dgBroadPhaseCollision.obj
 0001:00041750       ?UpdateContactsBroadPhaseBegin@dgBroadPhaseCollision@@AEAAIM_NI@Z 0000000180042750 f   physics_2009:dgBroadPhaseCollision.obj
 0001:00042190       ?UpdateContactsSimd@dgBroadPhaseCollision@@AEAAXM_N@Z 0000000180043190 f   physics_2009:dgBroadPhaseCollision.obj
 0001:00042420       ?UpdateContacts@dgBroadPhaseCollision@@AEAAXM_N@Z 0000000180043420 f   physics_2009:dgBroadPhaseCollision.obj
 0001:000426a0       ?FindCreate@dgBroadPhaseLayer@@AEAAPEAVdgBroadPhaseCell@@HH@Z 00000001800436a0 f   physics_2009:dgBroadPhaseCollision.obj
 0001:000428c0       ?Add@dgBroadPhaseCollision@@AEAAXPEAVdgBody@@@Z 00000001800438c0 f   physics_2009:dgBroadPhaseCollision.obj
 0001:000428f0       ?UpdateBodyBroadphase@dgBroadPhaseCollision@@AEAAXPEAVdgBody@@H@Z 00000001800438f0 f   physics_2009:dgBroadPhaseCollision.obj
 0001:00042de0       ?SetWorldSize@dgBroadPhaseCollision@@QEAAXAEBVdgVector@@0@Z 0000000180043de0 f   physics_2009:dgBroadPhaseCollision.obj
 0001:00043200       ?Init@dgBroadPhaseCollision@@AEAAXPEAVdgWorld@@@Z 0000000180044200 f   physics_2009:dgBroadPhaseCollision.obj
 0001:00043260       ??0dgUserConstraint@@IEAA@PEAVdgWorld@@PEAVdgBody@@1H@Z 0000000180044260 f   physics_2009:dgUserConstraint.obj
 0001:000432f0       ??1dgUserConstraint@@MEAA@XZ 00000001800442f0 f   physics_2009:dgUserConstraint.obj
 0001:00043300       ?GetInfo@dgUserConstraint@@MEBAXPEAVdgConstraintInfo@@@Z 0000000180044300 f   physics_2009:dgUserConstraint.obj
 0001:00043310       ??_EdgUserConstraint@@MEAAPEAXI@Z 0000000180044310 f i physics_2009:dgUserConstraint.obj
 0001:00043310       ??_GdgUserConstraint@@MEAAPEAXI@Z 0000000180044310 f i physics_2009:dgUserConstraint.obj
 0001:00043350       ?GetStiffness@dgConstraint@@UEBAMXZ 0000000180044350 f i physics_2009:dgBilateralConstraint.obj
 0001:00043360       ??1dgBilateralConstraint@@MEAA@XZ 0000000180044360 f   physics_2009:dgBilateralConstraint.obj
 0001:000433b0       ?GetStiffness@dgBilateralConstraint@@MEBAMXZ 00000001800443b0 f   physics_2009:dgBilateralConstraint.obj
 0001:000433d0       ?SetDestructorCallback@dgBilateralConstraint@@UEAAXP6AXAEAVdgConstraint@@@Z@Z 00000001800443d0 f   physics_2009:dgBilateralConstraint.obj
 0001:000433e0       ?SetMotorAcceleration@dgBilateralConstraint@@IEAAXHMAEAVdgContraintDescritor@@@Z 00000001800443e0 f   physics_2009:dgBilateralConstraint.obj
 0001:00043410       ??_EdgConstraint@@MEAAPEAXI@Z 0000000180044410 f i physics_2009:dgBilateralConstraint.obj
 0001:00043410       ??_GdgConstraint@@MEAAPEAXI@Z 0000000180044410 f i physics_2009:dgBilateralConstraint.obj
 0001:00043440       ??_GdgBilateralConstraint@@MEAAPEAXI@Z 0000000180044440 f i physics_2009:dgBilateralConstraint.obj
 0001:00043440       ??_EdgBilateralConstraint@@MEAAPEAXI@Z 0000000180044440 f i physics_2009:dgBilateralConstraint.obj
 0001:00043490       ?SetStiffness@dgBilateralConstraint@@MEAAXM@Z 0000000180044490 f   physics_2009:dgBilateralConstraint.obj
 0001:000434d0       ?SetJacobianDerivative@dgBilateralConstraint@@IEAAXHAEAVdgContraintDescritor@@PEBM1PEAM@Z 00000001800444d0 f   physics_2009:dgBilateralConstraint.obj
 0001:000435c0       ?CalculatePointDerivative@dgBilateralConstraint@@IEAAXHAEAVdgContraintDescritor@@AEBVdgVector@@AEBVdgPointParam@dgConstraint@@PEAM@Z 00000001800445c0 f   physics_2009:dgBilateralConstraint.obj
 0001:00043910       ??0dgBilateralConstraint@@IEAA@XZ 0000000180044910 f   physics_2009:dgBilateralConstraint.obj
 0001:00043a50       ?CalculateMatrixOffset@dgBilateralConstraint@@IEAAXAEBVdgVector@@0AEAVdgMatrix@@1@Z 0000000180044a50 f   physics_2009:dgBilateralConstraint.obj
 0001:00044050       ?SetPivotAndPinDir@dgBilateralConstraint@@IEAAXAEBVdgVector@@0@Z 0000000180045050 f   physics_2009:dgBilateralConstraint.obj
 0001:00044070       ?SetPivotAndPinDir@dgBilateralConstraint@@IEAAXAEBVdgVector@@00@Z 0000000180045070 f   physics_2009:dgBilateralConstraint.obj
 0001:00044640       ?CalculateGlobalMatrixAndAngle@dgBilateralConstraint@@IEBA?AVdgVector@@AEAVdgMatrix@@0@Z 0000000180045640 f   physics_2009:dgBilateralConstraint.obj
 0001:000448c0       ?CalculateSpringDamperAcceleration@dgBilateralConstraint@@IEAAMHAEBVdgContraintDescritor@@MAEBVdgVector@@1MM@Z 00000001800458c0 f   physics_2009:dgBilateralConstraint.obj
 0001:00044bc0       ?CalculateAngularDerivative@dgBilateralConstraint@@IEAAXHAEAVdgContraintDescritor@@AEBVdgVector@@MMPEAM@Z 0000000180045bc0 f   physics_2009:dgBilateralConstraint.obj
 0001:00044d60       ?JointAccelerationsSimd@dgBilateralConstraint@@MEAAXAEBVdgJointAccelerationDecriptor@@@Z 0000000180045d60 f   physics_2009:dgBilateralConstraint.obj
 0001:00044d60       ?JointAccelerations@dgBilateralConstraint@@MEAAXAEBVdgJointAccelerationDecriptor@@@Z 0000000180045d60 f   physics_2009:dgBilateralConstraint.obj
 0001:00044fa0       ??1dgCollisionSphere@@UEAA@XZ 0000000180045fa0 f   physics_2009:dgCollisionSphere.obj
 0001:00044fd0       ?CalculateSignature@dgCollisionSphere@@MEBAHXZ 0000000180045fd0 f   physics_2009:dgCollisionSphere.obj
 0001:00045070       ?GetCollisionInfo@dgCollisionSphere@@MEBAXPEAVdgCollisionInfo@@@Z 0000000180046070 f   physics_2009:dgCollisionSphere.obj
 0001:000450f0       ??_GdgCollisionSphere@@UEAAPEAXI@Z 00000001800460f0 f i physics_2009:dgCollisionSphere.obj
 0001:000450f0       ??_EdgCollisionSphere@@UEAAPEAXI@Z 00000001800460f0 f i physics_2009:dgCollisionSphere.obj
 0001:00045140       ?SupportVertexSimd@dgCollisionSphere@@MEBA?AVdgVector@@AEBV2@@Z 0000000180046140 f   physics_2009:dgCollisionSphere.obj
 0001:00045140       ?SupportVertex@dgCollisionSphere@@MEBA?AVdgVector@@AEBV2@@Z 0000000180046140 f   physics_2009:dgCollisionSphere.obj
 0001:000451b0       ?CalcAABB@dgCollisionSphere@@MEBAXAEBVdgMatrix@@AEAVdgVector@@1@Z 00000001800461b0 f   physics_2009:dgCollisionSphere.obj
 0001:00045230       ?CalculatePlaneIntersection@dgCollisionSphere@@MEBAHAEBVdgVector@@0QEAV2@@Z 0000000180046230 f   physics_2009:dgCollisionSphere.obj
 0001:00045230       ?CalculatePlaneIntersectionSimd@dgCollisionSphere@@MEBAHAEBVdgVector@@0QEAV2@@Z 0000000180046230 f   physics_2009:dgCollisionSphere.obj
 0001:000452c0       ?TesselateTriangle@dgCollisionSphere@@IEBAXHAEBVdgVector@@00AEAHPEAV2@@Z 00000001800462c0 f   physics_2009:dgCollisionSphere.obj
 0001:00045680       ?DebugCollision@dgCollisionSphere@@MEBAXAEBVdgMatrix@@P6AXPEAXHPEBMH@Z1@Z 0000000180046680 f   physics_2009:dgCollisionSphere.obj
 0001:00045a80       ?RayCast@dgCollisionSphere@@MEBAMAEBVdgVector@@0AEAVdgContactPoint@@P6AIPEBVdgBody@@PEBVdgCollision@@PEAX@Z24@Z 0000000180046a80 f   physics_2009:dgCollisionSphere.obj
 0001:00045d30       ?CalculateMassProperties@dgCollisionSphere@@MEBAMAEAVdgVector@@00@Z 0000000180046d30 f   physics_2009:dgCollisionSphere.obj
 0001:00045e90       ?Serialize@dgCollisionSphere@@MEBAXP6AXPEAXPEBX_K@Z0@Z 0000000180046e90 f   physics_2009:dgCollisionSphere.obj
 0001:00045ef0       ?Init@dgCollisionSphere@@IEAAXM@Z 0000000180046ef0 f   physics_2009:dgCollisionSphere.obj
 0001:00046460       ??0dgCollisionSphere@@QEAA@IMAEBVdgMatrix@@@Z 0000000180047460 f   physics_2009:dgCollisionSphere.obj
 0001:000464b0       ??0dgCollisionSphere@@QEAA@PEAVdgWorld@@P6AXPEAX1_K@Z1@Z 00000001800474b0 f   physics_2009:dgCollisionSphere.obj
 0001:00046510       ?MassProperties@dgConvexMassData@@QEAAMAEAVdgVector@@00@Z 0000000180047510 f i physics_2009:dgConvexCollision.obj
 0001:00046640       ??1dgConvexCollision@@MEAA@XZ 0000000180047640 f   physics_2009:dgConvexCollision.obj
 0001:00046690       ?SerializeLow@dgConvexCollision@@MEBAXP6AXPEAXPEBX_K@Z0@Z 0000000180047690 f   physics_2009:dgConvexCollision.obj
 0001:000466e0       ?GetUserData@dgConvexCollision@@MEBAPEAXXZ 00000001800476e0 f   physics_2009:dgConvexCollision.obj
 0001:000466f0       ?SetUserData@dgConvexCollision@@MEAAXPEAX@Z 00000001800476f0 f   physics_2009:dgConvexCollision.obj
 0001:00046700       ?GetVolume@dgConvexCollision@@EEBAMXZ 0000000180047700 f   physics_2009:dgConvexCollision.obj
 0001:00046710       ?GetBoxMinRadius@dgConvexCollision@@EEBAMXZ 0000000180047710 f   physics_2009:dgConvexCollision.obj
 0001:00046720       ?GetBoxMaxRadius@dgConvexCollision@@EEBAMXZ 0000000180047720 f   physics_2009:dgConvexCollision.obj
 0001:00046730       ?RayCastSimd@dgCollisionCapsule@@EEBAMAEBVdgVector@@0AEAVdgContactPoint@@P6AIPEBVdgBody@@PEBVdgCollision@@PEAX@Z24@Z 0000000180047730 f   physics_2009:dgCollisionCapsule.obj
 0001:00046730       ?RayCastSimd@dgCollisionBox@@MEBAMAEBVdgVector@@0AEAVdgContactPoint@@P6AIPEBVdgBody@@PEBVdgCollision@@PEAX@Z24@Z 0000000180047730 f   physics_2009:dgCollisionBox.obj
 0001:00046730       ?RayCastSimd@dgConvexCollision@@UEBAMAEBVdgVector@@0AEAVdgContactPoint@@P6AIPEBVdgBody@@PEBVdgCollision@@PEAX@Z24@Z 0000000180047730 f   physics_2009:dgConvexCollision.obj
 0001:00046730       ?RayCastSimd@dgCollisionCylinder@@EEBAMAEBVdgVector@@0AEAVdgContactPoint@@P6AIPEBVdgBody@@PEBVdgCollision@@PEAX@Z24@Z 0000000180047730 f   physics_2009:dgCollisionCylinder.obj
 0001:00046730       ?RayCastSimd@dgCollisionSphere@@MEBAMAEBVdgVector@@0AEAVdgContactPoint@@P6AIPEBVdgBody@@PEBVdgCollision@@PEAX@Z24@Z 0000000180047730 f   physics_2009:dgCollisionSphere.obj
 0001:00046730       ?RayCastSimd@dgCollisionUserMesh@@EEBAMAEBVdgVector@@0AEAVdgContactPoint@@P6AIPEBVdgBody@@PEBVdgCollision@@PEAX@Z24@Z 0000000180047730 f   physics_2009:dgCollisionUserMesh.obj
 0001:00046770       ?IsTriggerVolume@dgConvexCollision@@UEBA_NXZ 0000000180047770 f   physics_2009:dgConvexCollision.obj
 0001:00046780       ?SetAsTriggerVolume@dgConvexCollision@@MEAAX_N@Z 0000000180047780 f   physics_2009:dgConvexCollision.obj
 0001:000467a0       ??0dgConvexCollision@@IEAA@IAEBVdgMatrix@@W4dgCollisionID@@@Z 00000001800477a0 f   physics_2009:dgConvexCollision.obj
 0001:000468b0       ??_EdgConvexCollision@@MEAAPEAXI@Z 00000001800478b0 f i physics_2009:dgConvexCollision.obj
 0001:000468b0       ??_GdgConvexCollision@@MEAAPEAXI@Z 00000001800478b0 f i physics_2009:dgConvexCollision.obj
 0001:00046910       ??0dgConvexCollision@@IEAA@PEAVdgWorld@@P6AXPEAX1_K@Z1@Z 0000000180047910 f   physics_2009:dgConvexCollision.obj
 0001:00046a20       ?GetDiscretedAngleStep@dgConvexCollision@@IEBAMM@Z 0000000180047a20 f   physics_2009:dgConvexCollision.obj
 0001:00046a80       ?DebugCollision@dgConvexCollision@@MEBAXAEBVdgMatrix@@P6AXPEAXHPEBMH@Z1@Z 0000000180047a80 f   physics_2009:dgConvexCollision.obj
 0001:00046be0       ?GetSupportEdge@dgConvexCollision@@IEBAPEAVdgConvexSimplexEdge@@AEBVdgVector@@@Z 0000000180047be0 f   physics_2009:dgConvexCollision.obj
 0001:00046ca0       ?CalculateInertia@dgConvexCollision@@EEBAXAEAVdgVector@@0@Z 0000000180047ca0 f   physics_2009:dgConvexCollision.obj
 0001:00046df0       ?RayCastClosestFace@dgConvexCollision@@AEBAHPEAVdgVector@@AEBV2@AEAM@Z 0000000180047df0 f   physics_2009:dgConvexCollision.obj
 0001:000473d0       ?RayHitBox@dgConvexCollision@@AEBA_NAEBVdgVector@@0@Z 00000001800483d0 f   physics_2009:dgConvexCollision.obj
 0001:00047540       ?SupportVertex@dgConvexCollision@@UEBA?AVdgVector@@AEBV2@@Z 0000000180048540 f   physics_2009:dgConvexCollision.obj
 0001:00047760       ?SupportVertexSimd@dgConvexCollision@@UEBA?AVdgVector@@AEBV2@@Z 0000000180048760 f   physics_2009:dgConvexCollision.obj
 0001:00047950       ?RayCast@dgConvexCollision@@UEBAMAEBVdgVector@@0AEAVdgContactPoint@@P6AIPEBVdgBody@@PEBVdgCollision@@PEAX@Z24@Z 0000000180048950 f   physics_2009:dgConvexCollision.obj
 0001:00048780       ?OOBBTest@dgConvexCollision@@UEBA_NAEBVdgMatrix@@QEBV1@PEAX@Z 0000000180049780 f   physics_2009:dgConvexCollision.obj
 0001:00048a00       ?AddCg@dgConvexMassData@@QEAAXHPEBVdgVector@@@Z 0000000180049a00 f i physics_2009:dgConvexCollision.obj
 0001:00048c10       ?AddInertia@dgConvexMassData@@QEAAXHPEBM@Z 0000000180049c10 f i physics_2009:dgConvexCollision.obj
 0001:00048f80       ?SetVolumeAndCG@dgConvexCollision@@IEAAXXZ 0000000180049f80 f   physics_2009:dgConvexCollision.obj
 0001:00049400       ?CalcAABB@dgConvexCollision@@UEBAXAEBVdgMatrix@@AEAVdgVector@@1@Z 000000018004a400 f   physics_2009:dgConvexCollision.obj
 0001:000496b0       ?CalcAABBSimD@dgConvexCollision@@UEBAXAEBVdgMatrix@@AEAVdgVector@@1@Z 000000018004a6b0 f   physics_2009:dgConvexCollision.obj
 0001:00049730       ?CalculateInertia@dgConvexCollision@@CAXPEAXHPEBMH@Z 000000018004a730 f   physics_2009:dgConvexCollision.obj
 0001:00049740       ?CalculateMassProperties@dgConvexCollision@@MEBAMAEAVdgVector@@00@Z 000000018004a740 f   physics_2009:dgConvexCollision.obj
 0001:000497d0       ?CalculateVolumeIntegral@dgConvexCollision@@IEBA?AVdgVector@@AEBVdgPlane@@@Z 000000018004a7d0 f   physics_2009:dgConvexCollision.obj
 0001:00049ec0       ?SimplifyClipPolygon@dgConvexCollision@@AEBAHHAEBVdgVector@@PEAV2@@Z 000000018004aec0 f   physics_2009:dgConvexCollision.obj
 0001:0004a200       ?RectifyConvexSlice@dgConvexCollision@@IEBAHHAEBVdgVector@@QEAV2@@Z 000000018004b200 f   physics_2009:dgConvexCollision.obj
 0001:0004a610       ?CalculatePlaneIntersectionSimd@dgConvexCollision@@UEBAHAEBVdgVector@@0QEAV2@@Z 000000018004b610 f   physics_2009:dgConvexCollision.obj
 0001:0004aaf0       ?CalculatePlaneIntersection@dgConvexCollision@@UEBAHAEBVdgVector@@0QEAV2@@Z 000000018004baf0 f   physics_2009:dgConvexCollision.obj
 0001:0004b0e0       ?CalculateVolumeIntegral@dgConvexCollision@@EEBA?AVdgVector@@AEBVdgMatrix@@P6AIPEAX10AEAVdgPlane@@@Z1@Z 000000018004c0e0 f   physics_2009:dgConvexCollision.obj
 0001:0004b2f0       ?FindConstraintLink@dgBodyMasterList@@QEBAPEAVdgListNode@?$dgList@VdgBodyMasterListCell@@@@PEBVdgBody@@0@Z 000000018004c2f0 f   physics_2009:dgBodyMasterList.obj
 0001:0004b320       ?FindConstraintLinkNext@dgBodyMasterList@@QEBAPEAVdgListNode@?$dgList@VdgBodyMasterListCell@@@@PEBV23@PEBVdgBody@@@Z 000000018004c320 f   physics_2009:dgBodyMasterList.obj
 0001:0004b350       ?Addtop@?$dgList@VdgBodyMasterListCell@@@@QEAAPEAVdgListNode@1@XZ 000000018004c350 f i physics_2009:dgBodyMasterList.obj
 0001:0004b3e0       ?RemoveAll@?$dgList@VdgBodyMasterListCell@@@@QEAAXXZ 000000018004c3e0 f i physics_2009:dgBodyMasterList.obj
 0001:0004b460       ?SortList@dgBodyMasterListRow@@QEAAXXZ 000000018004c460 f   physics_2009:dgBodyMasterList.obj
 0001:0004b580       ?AttachConstraint@dgBodyMasterList@@QEAAXPEAVdgConstraint@@PEAVdgBody@@1@Z 000000018004c580 f   physics_2009:dgBodyMasterList.obj
 0001:0004b670       ?SortMasterList@dgBodyMasterList@@QEAAXXZ 000000018004c670 f   physics_2009:dgBodyMasterList.obj
 0001:0004b8a0       ?RemoveConstraint@dgBodyMasterList@@QEAAXPEAVdgConstraint@@@Z 000000018004c8a0 f   physics_2009:dgBodyMasterList.obj
 0001:0004ba00       ?Append@?$dgList@VdgBodyMasterListRow@@@@QEAAPEAVdgListNode@1@XZ 000000018004ca00 f i physics_2009:dgBodyMasterList.obj
 0001:0004bab0       ?RemoveAll@?$dgList@VdgBodyMasterListRow@@@@QEAAXXZ 000000018004cab0 f i physics_2009:dgBodyMasterList.obj
 0001:0004bba0       ?AddBody@dgBodyMasterList@@QEAAXPEAVdgBody@@@Z 000000018004cba0 f   physics_2009:dgBodyMasterList.obj
 0001:0004bbe0       ?Remove@?$dgList@VdgBodyMasterListRow@@@@QEAAXPEAVdgListNode@1@@Z 000000018004cbe0 f i physics_2009:dgBodyMasterList.obj
 0001:0004bc50       ??0dgBodyMasterList@@QEAA@XZ 000000018004cc50 f   physics_2009:dgBodyMasterList.obj
 0001:0004bc70       ??1dgBodyMasterList@@QEAA@XZ 000000018004cc70 f   physics_2009:dgBodyMasterList.obj
 0001:0004bc80       ?RemoveBody@dgBodyMasterList@@QEAAXPEAVdgBody@@@Z 000000018004cc80 f   physics_2009:dgBodyMasterList.obj
 0001:0004bd10       ??0dgCollisionNull@@QEAA@I@Z 000000018004cd10 f   physics_2009:dgCollisionNull.obj
 0001:0004bd60       ??0dgCollisionNull@@QEAA@PEAVdgWorld@@P6AXPEAX1_K@Z1@Z 000000018004cd60 f   physics_2009:dgCollisionNull.obj
 0001:0004bd90       ?Serialize@dgCollisionNull@@EEBAXP6AXPEAXPEBX_K@Z0@Z 000000018004cd90 f   physics_2009:dgCollisionNull.obj
 0001:0004bda0       ?CalculateSignature@dgCollisionConvexHull@@EEBAHXZ 000000018004cda0 f   physics_2009:dgCollisionConvexHull.obj
 0001:0004bda0       ?CalculateSignature@dgCollisionNull@@EEBAHXZ 000000018004cda0 f   physics_2009:dgCollisionNull.obj
 0001:0004bdb0       ?RayCastSimd@dgCollisionNull@@MEBAMAEBVdgVector@@0AEAVdgContactPoint@@P6AIPEBVdgBody@@PEBVdgCollision@@PEAX@Z24@Z 000000018004cdb0 f   physics_2009:dgCollisionNull.obj
 0001:0004bdb0       ?RayCast@dgCollisionNull@@MEBAMAEBVdgVector@@0AEAVdgContactPoint@@P6AIPEBVdgBody@@PEBVdgCollision@@PEAX@Z24@Z 000000018004cdb0 f   physics_2009:dgCollisionNull.obj
 0001:0004bdc0       ??_EdgCollisionNull@@UEAAPEAXI@Z 000000018004cdc0 f i physics_2009:dgCollisionNull.obj
 0001:0004bdc0       ??_GdgCollisionNull@@UEAAPEAXI@Z 000000018004cdc0 f i physics_2009:dgCollisionNull.obj
 0001:0004be00       ?CalcAABB@dgCollisionNull@@MEBAXAEBVdgMatrix@@AEAVdgVector@@1@Z 000000018004ce00 f   physics_2009:dgCollisionNull.obj
 0001:0004be40       ?SupportVertex@dgCollisionScene@@EEBA?AVdgVector@@AEBV2@@Z 000000018004ce40 f   physics_2009:dgCollisionScene.obj
 0001:0004be40       ?SupportVertex@dgCollisionPoint@@UEBA?AVdgVector@@AEBV2@@Z 000000018004ce40 f   physics_2009:dgCollisionSphere.obj
 0001:0004be40       ?SupportVertex@dgCollisionMesh@@EEBA?AVdgVector@@AEBV2@@Z 000000018004ce40 f   physics_2009:dgCollisionMesh.obj
 0001:0004be40       ?CalculateVolumeIntegral@dgCollisionScene@@EEBA?AVdgVector@@AEBVdgMatrix@@P6AIPEAX10AEAVdgPlane@@@Z1@Z 000000018004ce40 f   physics_2009:dgCollisionScene.obj
 0001:0004be40       ?SupportVertex@dgCollisionNull@@MEBA?AVdgVector@@AEBV2@@Z 000000018004ce40 f   physics_2009:dgCollisionNull.obj
 0001:0004be40       ?CalculateVolumeIntegral@dgCollisionMesh@@EEBA?AVdgVector@@AEBVdgMatrix@@P6AIPEAX10AEAVdgPlane@@@Z1@Z 000000018004ce40 f   physics_2009:dgCollisionMesh.obj
 0001:0004be40       ?SupportVertexSimd@dgCollisionNull@@MEBA?AVdgVector@@AEBV2@@Z 000000018004ce40 f   physics_2009:dgCollisionNull.obj
 0001:0004be40       ?CalculateVolumeIntegral@dgCollisionNull@@MEBA?AVdgVector@@AEBVdgMatrix@@P6AIPEAX10AEAVdgPlane@@@Z1@Z 000000018004ce40 f   physics_2009:dgCollisionNull.obj
 0001:0004be40       ?SupportVertexSimd@dgCollisionPoint@@UEBA?AVdgVector@@AEBV2@@Z 000000018004ce40 f   physics_2009:dgCollisionSphere.obj
 0001:0004be60       ?JointAccelerationsSimd@dgContact@@EEAAXAEBVdgJointAccelerationDecriptor@@@Z 000000018004ce60 f   physics_2009:dgContact.obj
 0001:0004c0b0       ??0dgCollidingPairCollector@@QEAA@XZ 000000018004d0b0 f   physics_2009:dgContact.obj
 0001:0004c0d0       ?Init@dgCollidingPairCollector@@QEAAXPEAVdgWorld@@@Z 000000018004d0d0 f   physics_2009:dgContact.obj
 0001:0004c100       ?SetCaches@dgCollidingPairCollector@@QEAAXQEAUdgThreadPairCache@1@@Z 000000018004d100 f   physics_2009:dgContact.obj
 0001:0004c170       ?FlushChache@dgCollidingPairCollector@@QEAAXQEAUdgThreadPairCache@1@@Z 000000018004d170 f   physics_2009:dgContact.obj
 0001:0004c290       ?GetInfo@dgContact@@EEBAXPEAVdgConstraintInfo@@@Z 000000018004d290 f   physics_2009:dgContact.obj
 0001:0004c2f0       ?CalculatePointDerivative@dgContact@@AEBAXHAEAVdgContraintDescritor@@AEBVdgVector@@AEBVdgPointParam@dgConstraint@@@Z 000000018004d2f0 f   physics_2009:dgContact.obj
 0001:0004c450       ?Append@?$dgList@PEAVdgContact@@@@QEAAPEAVdgListNode@1@AEBQEAVdgContact@@@Z 000000018004d450 f i physics_2009:dgContact.obj
 0001:0004c510       ?JointAccelerations@dgContact@@EEAAXAEBVdgJointAccelerationDecriptor@@@Z 000000018004d510 f   physics_2009:dgContact.obj
 0001:0004c780       ?AddPair@dgCollidingPairCollector@@QEAAXPEAVdgBody@@0H@Z 000000018004d780 f   physics_2009:dgContact.obj
 0001:0004cae0       ?RemoveAll@?$dgList@VdgContactMaterial@@@@QEAAXXZ 000000018004dae0 f i physics_2009:dgContact.obj
 0001:0004cb70       ??0dgContactMaterial@@QEAA@XZ 000000018004db70 f   physics_2009:dgContact.obj
 0001:0004cbd0       ?JacobianContactDerivative@dgContact@@AEAAXAEAVdgContraintDescritor@@AEBVdgContactMaterial@@HAEAH@Z 000000018004dbd0 f   physics_2009:dgContact.obj
 0001:0004cff0       ??0dgContact@@AEAA@PEAVdgWorld@@@Z 000000018004dff0 f   physics_2009:dgContact.obj
 0001:0004d0e0       ?SetAsTriggerVolume@dgCollision@@UEAAX_N@Z 000000018004e0e0 f i physics_2009:dgCollisionMesh.obj
 0001:0004d0e0       ?DebugCollision@dgCollisionMesh@@EEBAXAEBVdgMatrix@@P6AXPEAXHPEBMH@Z1@Z 000000018004e0e0 f i physics_2009:dgCollisionMesh.obj
 0001:0004d0e0       ?Remove@dgBilateralConstraint@@MEAAXPEAVdgWorld@@@Z 000000018004e0e0 f i NewtonClass.obj
 0001:0004d0e0       ?ForAllSectors@dgPolygonSoupDatabase@@MEBAXAEBVdgVector@@0P6A?AW4dgIntersectStatus@@PEAXQEBMHQEBHH@ZQEAX@Z 000000018004e0e0 f i corelib_2009:dgAABBPolygonSoup.obj
 0001:0004d0e0       ?ForAllSectorsSimd@dgPolygonSoupDatabase@@MEBAXAEBVdgVector@@0P6A?AW4dgIntersectStatus@@PEAXQEBMHQEBHH@ZQEAX@Z 000000018004e0e0 f i corelib_2009:dgAABBPolygonSoup.obj
 0001:0004d0e0       ?Serialize@dgCollisionUserMesh@@EEBAXP6AXPEAXPEBX_K@Z0@Z 000000018004e0e0 f i physics_2009:dgCollisionUserMesh.obj
 0001:0004d0e0       ?SetCollisionBBox@dgCollisionSphere@@MEAAXAEBVdgVector@@0@Z 000000018004e0e0 f i physics_2009:dgCollisionSphere.obj
 0001:0004d0e0       ?ThreadExecute@dgSetTrreadRoundMode@dgWorld@@UEAAXXZ 000000018004e0e0 f i physics_2009:dgWorld.obj
 0001:0004d0e0       ?BeginFace@dgPolyhedra@@QEAAXXZ 000000018004e0e0 f i corelib_2009:dgPolyhedra.obj
 0001:0004d0e0       ?DebugCollision@dgCollisionUserMesh@@EEBAXAEBVdgMatrix@@P6AXPEAXHPEBMH@Z1@Z 000000018004e0e0 f i physics_2009:dgCollisionUserMesh.obj
 0001:0004d0e0       ?SetDestructorCallback@dgContact@@EEAAXP6AXAEAVdgConstraint@@@Z@Z 000000018004e0e0 f i physics_2009:dgContact.obj
 0001:0004d0e0       ?GetAABB@dgPolygonSoupDatabase@@UEBAXAEAVdgVector@@0@Z 000000018004e0e0 f i corelib_2009:dgAABBPolygonSoup.obj
 0001:0004d0e0       ?SetCollisionBBox@dgCollisionCone@@EEAAXAEBVdgVector@@0@Z 000000018004e0e0 f i physics_2009:dgCollisionCone.obj
 0001:0004d0e0       ?Serialize@dgCollisionMesh@@EEBAXP6AXPEAXPEBX_K@Z0@Z 000000018004e0e0 f i physics_2009:dgCollisionMesh.obj
 0001:0004d0e0       ?SetCollisionBBox@dgCollisionCapsule@@EEAAXAEBVdgVector@@0@Z 000000018004e0e0 f i physics_2009:dgCollisionCapsule.obj
 0001:0004d0e0       ?DebugCollision@dgCollisionNull@@MEBAXAEBVdgMatrix@@P6AXPEAXHPEBMH@Z1@Z 000000018004e0e0 f i physics_2009:dgCollisionNull.obj
 0001:0004d0e0       ?SetStiffness@dgConstraint@@UEAAXM@Z 000000018004e0e0 f i physics_2009:dgBilateralConstraint.obj
 0001:0004d0e0       ?JointVelocityCorrection@dgBilateralConstraint@@MEAAXAEBVdgJointAccelerationDecriptor@@@Z 000000018004e0e0 f i physics_2009:dgBilateralConstraint.obj
 0001:0004d0e0       ?SetCollisionBBox@dgCollisionEllipse@@EEAAXAEBVdgVector@@0@Z 000000018004e0e0 f i physics_2009:dgCollisionEllipse.obj
 0001:0004d0e0       ??1dgCollidingPairCollector@@QEAA@XZ 000000018004e0e0 f i physics_2009:dgContact.obj
 0001:0004d0e0       ?SpliteAcrossPlane@dgConvexCollision@@IEBAXAEBVdgPlane@@PEAPEAVdgCollisionConvexHull@@1@Z 000000018004e0e0 f i physics_2009:dgConvexCollision.obj
 0001:0004d0e0       ?SetCollisionBBox@dgCollisionConvexHull@@EEAAXAEBVdgVector@@0@Z 000000018004e0e0 f i physics_2009:dgCollisionConvexHull.obj
 0001:0004d0e0       ?ForAllSectorsRayHit@dgPolygonSoupDatabase@@MEBAXAEBVFastRayTest@@P6AMPEAXQEBMHQEBHH@ZQEAX@Z 000000018004e0e0 f i corelib_2009:dgAABBPolygonSoup.obj
 0001:0004d0e0       ?SetCollisionBBox@dgCompoundCollision@@EEAAXAEBVdgVector@@0@Z 000000018004e0e0 f i physics_2009:dgCompoundCollision.obj
 0001:0004d0e0       ?SetUserData@dgCollision@@UEAAXPEAX@Z 000000018004e0e0 f i physics_2009:dgCollision.obj
 0001:0004d0e0       ?Serialize@dgCollisionConvexPolygon@dgCollisionMesh@@UEBAXP6AXPEAXPEBX_K@Z0@Z 000000018004e0e0 f i physics_2009:dgCollisionMesh.obj
 0001:0004d0e0       ?SetCollisionBBox@dgCollisionConvexPolygon@dgCollisionMesh@@UEAAXAEBVdgVector@@0@Z 000000018004e0e0 f i physics_2009:dgCollisionMesh.obj
 0001:0004d0e0       ?GetInfo@dgConstraint@@UEBAXPEAVdgConstraintInfo@@@Z 000000018004e0e0 f i physics_2009:dgConstraint.obj
 0001:0004d0e0       ??1dgBody@@QEAA@XZ         000000018004e0e0 f i physics_2009:dgBody.obj
 0001:0004d0e0       ?GetCollisionInfo@dgCollisionMesh@@EEBAXPEAVdgCollisionInfo@@@Z 000000018004e0e0 f i physics_2009:dgCollisionMesh.obj
 0001:0004d0e0       ?SetCollisionBBox@dgCollisionConvexModifier@@EEAAXAEBVdgVector@@0@Z 000000018004e0e0 f i physics_2009:dgCollisionConvexModifier.obj
 0001:0004d0e0       ?JointVelocityCorrection@dgContact@@EEAAXAEBVdgJointAccelerationDecriptor@@@Z 000000018004e0e0 f i physics_2009:dgContact.obj
 0001:0004d0e0       ?SetCollisionBBox@dgCollisionNull@@EEAAXAEBVdgVector@@0@Z 000000018004e0e0 f i physics_2009:dgCollisionNull.obj
 0001:0004d0e0       ?SetCollisionBBox@dgCollisionCylinder@@EEAAXAEBVdgVector@@0@Z 000000018004e0e0 f i physics_2009:dgCollisionCylinder.obj
 0001:0004d0e0       ?SetCollisionBBox@dgCollisionBox@@MEAAXAEBVdgVector@@0@Z 000000018004e0e0 f i physics_2009:dgCollisionBox.obj
 0001:0004d0e0       ?ModifierSetMatrix@dgCollision@@UEAAXAEBVdgMatrix@@@Z 000000018004e0e0 f i physics_2009:dgWorld.obj
 0001:0004d0e0       ?Init@dgBilateralConstraint@@MEAAXXZ 000000018004e0e0 f i NewtonClass.obj
 0001:0004d0e0       ?SetCollisionBBox@dgCollisionChamferCylinder@@MEAAXAEBVdgVector@@0@Z 000000018004e0e0 f i physics_2009:dgCollisionChamferCylinder.obj
 0001:0004d0e0       ??3@YAXPEAX@Z              000000018004e0e0 f i NewtonStdAfx.obj
 0001:0004d0e0       ?ForAllSectorsRayHitSimd@dgPolygonSoupDatabase@@MEBAXAEBVFastRayTest@@P6AMPEAXQEBMHQEBHH@ZQEAX@Z 000000018004e0e0 f i corelib_2009:dgAABBPolygonSoup.obj
 0001:0004d0f0       ??1dgContact@@EEAA@XZ      000000018004e0f0 f i physics_2009:dgContact.obj
 0001:0004d1c0       ?JacobianDerivative@dgContact@@EEAAIAEAVdgContraintDescritor@@@Z 000000018004e1c0 f   physics_2009:dgContact.obj
 0001:0004d250       ??_EdgContact@@EEAAPEAXI@Z 000000018004e250 f i physics_2009:dgContact.obj
 0001:0004d250       ??_GdgContact@@EEAAPEAXI@Z 000000018004e250 f i physics_2009:dgContact.obj
 0001:0004d280       ??0dgCollisionConvexModifier@@QEAA@PEAVdgConvexCollision@@PEAVdgWorld@@@Z 000000018004e280 f   physics_2009:dgCollisionConvexModifier.obj
 0001:0004d3d0       ?ModifierGetMatrix@dgCollisionConvexModifier@@UEBA?AVdgMatrix@@XZ 000000018004e3d0 f   physics_2009:dgCollisionConvexModifier.obj
 0001:0004d430       ?GetBoxMinRadius@dgCollisionConvexModifier@@EEBAMXZ 000000018004e430 f   physics_2009:dgCollisionConvexModifier.obj
 0001:0004d440       ?GetBoxMaxRadius@dgCollisionConvexModifier@@EEBAMXZ 000000018004e440 f   physics_2009:dgCollisionConvexModifier.obj
 0001:0004d450       ?GetCollidingFacesSimd@dgCollisionHeightField@@EEBAXQEAVdgPolygonMeshDesc@@@Z 000000018004e450 f   physics_2009:dgCollisionHeightField.obj
 0001:0004d450       ?GetCollidingFacesSimd@dgCollisionUserMesh@@EEBAXQEAVdgPolygonMeshDesc@@@Z 000000018004e450 f   physics_2009:dgCollisionUserMesh.obj
 0001:0004d450       ?CalculatePlaneIntersectionSimd@dgCollisionConvexModifier@@EEBAHAEBVdgVector@@0QEAV2@@Z 000000018004e450 f   physics_2009:dgCollisionConvexModifier.obj
 0001:0004d460       ?DebugCollision@dgCollisionConvexModifier@@MEBAXAEBVdgMatrix@@P6AXPEAXHPEBMH@Z1@Z 000000018004e460 f   physics_2009:dgCollisionConvexModifier.obj
 0001:0004d570       ?GetVolume@dgCollisionConvexModifier@@MEBAMXZ 000000018004e570 f   physics_2009:dgCollisionConvexModifier.obj
 0001:0004d5a0       ?GetCollisionInfo@dgCollisionConvexModifier@@EEBAXPEAVdgCollisionInfo@@@Z 000000018004e5a0 f   physics_2009:dgCollisionConvexModifier.obj
 0001:0004d610       ?Serialize@dgCollisionConvexModifier@@EEBAXP6AXPEAXPEBX_K@Z0@Z 000000018004e610 f   physics_2009:dgCollisionConvexModifier.obj
 0001:0004d670       ??_GdgCollisionConvexModifier@@UEAAPEAXI@Z 000000018004e670 f i physics_2009:dgCollisionConvexModifier.obj
 0001:0004d670       ??_EdgCollisionConvexModifier@@UEAAPEAXI@Z 000000018004e670 f i physics_2009:dgCollisionConvexModifier.obj
 0001:0004d6d0       ?ModifierSetMatrix@dgCollisionConvexModifier@@UEAAXAEBVdgMatrix@@@Z 000000018004e6d0 f   physics_2009:dgCollisionConvexModifier.obj
 0001:0004da70       ??0dgCollisionConvexModifier@@QEAA@PEAVdgWorld@@P6AXPEAX1_K@Z1@Z 000000018004ea70 f   physics_2009:dgCollisionConvexModifier.obj
 0001:0004db30       ?CalcAABB@dgCollisionConvexModifier@@MEBAXAEBVdgMatrix@@AEAVdgVector@@1@Z 000000018004eb30 f   physics_2009:dgCollisionConvexModifier.obj
 0001:0004de80       ?CalcAABBSimD@dgCollisionConvexModifier@@MEBAXAEBVdgMatrix@@AEAVdgVector@@1@Z 000000018004ee80 f   physics_2009:dgCollisionConvexModifier.obj
 0001:0004e110       ?SupportVertex@dgCollisionConvexModifier@@MEBA?AVdgVector@@AEBV2@@Z 000000018004f110 f   physics_2009:dgCollisionConvexModifier.obj
 0001:0004e2f0       ?SupportVertexSimd@dgCollisionConvexModifier@@MEBA?AVdgVector@@AEBV2@@Z 000000018004f2f0 f   physics_2009:dgCollisionConvexModifier.obj
 0001:0004e440       ?CalculatePlaneIntersection@dgCollisionConvexModifier@@EEBAHAEBVdgVector@@0QEAV2@@Z 000000018004f440 f   physics_2009:dgCollisionConvexModifier.obj
 0001:0004ea40       ?RayCast@dgCollisionConvexModifier@@MEBAMAEBVdgVector@@0AEAVdgContactPoint@@P6AIPEBVdgBody@@PEBVdgCollision@@PEAX@Z24@Z 000000018004fa40 f   physics_2009:dgCollisionConvexModifier.obj
 0001:0004ed80       ?RayCastSimd@dgCollisionConvexModifier@@MEBAMAEBVdgVector@@0AEAVdgContactPoint@@P6AIPEBVdgBody@@PEBVdgCollision@@PEAX@Z24@Z 000000018004fd80 f   physics_2009:dgCollisionConvexModifier.obj
 0001:0004ef90       ?CalculateVolumeIntegral@dgCollisionConvexModifier@@MEBA?AVdgVector@@AEBVdgMatrix@@P6AIPEAX10AEAVdgPlane@@@Z1@Z 000000018004ff90 f   physics_2009:dgCollisionConvexModifier.obj
 0001:0004f4a0       ??1dgCompoundCollision@@UEAA@XZ 00000001800504a0 f   physics_2009:dgCompoundCollision.obj
 0001:0004f520       ?GetUserData@dgCollisionMesh@@UEBAPEAXXZ 0000000180050520 f   physics_2009:dgCollisionMesh.obj
 0001:0004f520       ?CalculateSignature@dgCompoundCollision@@EEBAHXZ 0000000180050520 f   physics_2009:dgCompoundCollision.obj
 0001:0004f520       ?GetUserData@dgCollision@@UEBAPEAXXZ 0000000180050520 f   physics_2009:dgCollision.obj
 0001:0004f520       ?CalculateSignature@dgCollisionConvexModifier@@EEBAHXZ 0000000180050520 f   physics_2009:dgCollisionConvexModifier.obj
 0001:0004f520       ?CalculateSignature@dgCollisionScene@@EEBAHXZ 0000000180050520 f   physics_2009:dgCollisionScene.obj
 0001:0004f520       ?CalculateSignature@dgCollisionMesh@@EEBAHXZ 0000000180050520 f   physics_2009:dgCollisionMesh.obj
 0001:0004f520       ?GetPerformanceCount@dgWorld@@CAIXZ 0000000180050520 f   physics_2009:dgWorld.obj
 0001:0004f530       ?DebugCollision@dgCompoundCollision@@MEBAXAEBVdgMatrix@@P6AXPEAXHPEBMH@Z1@Z 0000000180050530 f   physics_2009:dgCompoundCollision.obj
 0001:0004f5a0       ?GetVolume@dgCompoundCollision@@MEBAMXZ 00000001800505a0 f   physics_2009:dgCompoundCollision.obj
 0001:0004f610       ?GetBoxMinRadius@dgCompoundCollision@@MEBAMXZ 0000000180050610 f   physics_2009:dgCompoundCollision.obj
 0001:0004f620       ?GetBoxMaxRadius@dgCompoundCollision@@MEBAMXZ 0000000180050620 f   physics_2009:dgCompoundCollision.obj
 0001:0004f630       ?GetCollisionInfo@dgCompoundCollision@@EEBAXPEAVdgCollisionInfo@@@Z 0000000180050630 f   physics_2009:dgCompoundCollision.obj
 0001:0004f6b0       ?Serialize@dgCompoundCollision@@EEBAXP6AXPEAXPEBX_K@Z0@Z 00000001800506b0 f   physics_2009:dgCompoundCollision.obj
 0001:0004f760       ?IsBilateral@dgBilateralConstraint@@MEBA_NXZ 0000000180050760 f   physics_2009:dgBilateralConstraint.obj
 0001:0004f760       ?OOBBTest@dgCompoundCollision@@MEBA_NAEBVdgMatrix@@QEBVdgConvexCollision@@PEAX@Z 0000000180050760 f   physics_2009:dgCompoundCollision.obj
 0001:0004f760       ?OOBBTest@dgCollisionConvexPolygon@dgCollisionMesh@@UEBA_NAEBVdgMatrix@@QEBVdgConvexCollision@@PEAX@Z 0000000180050760 f   physics_2009:dgCollisionMesh.obj
 0001:0004f760       ?OOBBTest@dgCollisionScene@@EEBA_NAEBVdgMatrix@@QEBVdgConvexCollision@@PEAX@Z 0000000180050760 f   physics_2009:dgCollisionScene.obj
 0001:0004f760       ?OOBBTest@dgCollisionMesh@@EEBA_NAEBVdgMatrix@@QEBVdgConvexCollision@@PEAX@Z 0000000180050760 f   physics_2009:dgCollisionMesh.obj
 0001:0004f760       ?OOBBTest@dgCollisionConvexModifier@@MEBA_NAEBVdgMatrix@@QEBVdgConvexCollision@@PEAX@Z 0000000180050760 f   physics_2009:dgCollisionConvexModifier.obj
 0001:0004f770       ??_GdgCompoundCollision@@UEAAPEAXI@Z 0000000180050770 f i physics_2009:dgCompoundCollision.obj
 0001:0004f770       ??_EdgCompoundCollision@@UEAAPEAXI@Z 0000000180050770 f i physics_2009:dgCompoundCollision.obj
 0001:0004f7a0       ?CalcAABB@dgCompoundCollision@@MEBAXAEBVdgMatrix@@AEAVdgVector@@1@Z 00000001800507a0 f   physics_2009:dgCompoundCollision.obj
 0001:0004fa30       ?Init@dgCompoundCollision@@IEAAXHQEBQEAVdgConvexCollision@@PEAVdgWorld@@@Z 0000000180050a30 f   physics_2009:dgCompoundCollision.obj
 0001:0004fb70       ?CalcAABBSimD@dgCompoundCollision@@MEBAXAEBVdgMatrix@@AEAVdgVector@@1@Z 0000000180050b70 f   physics_2009:dgCompoundCollision.obj
 0001:0004fe40       ?RayCastSimd@dgCompoundCollision@@MEBAMAEBVdgVector@@0AEAVdgContactPoint@@P6AIPEBVdgBody@@PEBVdgCollision@@PEAX@Z24@Z 0000000180050e40 f   physics_2009:dgCompoundCollision.obj
 0001:00050110       ?CalculateVolumeIntegral@dgCompoundCollision@@MEBA?AVdgVector@@AEBVdgMatrix@@P6AIPEAX10AEAVdgPlane@@@Z1@Z 0000000180051110 f   physics_2009:dgCompoundCollision.obj
 0001:00050230       ?CalculateInertia@dgCompoundCollision@@MEBAXAEAVdgVector@@0@Z 0000000180051230 f   physics_2009:dgCompoundCollision.obj
 0001:00050430       ?SupportVertex@dgCompoundCollision@@MEBA?AVdgVector@@AEBV2@@Z 0000000180051430 f   physics_2009:dgCompoundCollision.obj
 0001:00050650       ??0dgCompoundCollision@@QEAA@HQEBQEAVdgConvexCollision@@PEAVdgWorld@@@Z 0000000180051650 f   physics_2009:dgCompoundCollision.obj
 0001:000506c0       ??0dgCompoundCollision@@QEAA@PEAVdgWorld@@P6AXPEAX1_K@Z1@Z 00000001800516c0 f   physics_2009:dgCompoundCollision.obj
 0001:000507c0       ?RayCast@dgCompoundCollision@@MEBAMAEBVdgVector@@0AEAVdgContactPoint@@P6AIPEBVdgBody@@PEBVdgCollision@@PEAX@Z24@Z 00000001800517c0 f   physics_2009:dgCompoundCollision.obj
 0001:00050b00       ??0dgCollisionUserMesh@@QEAA@AEBVdgVector@@0AEBVdgUserMeshCreation@@@Z 0000000180051b00 f   physics_2009:dgCollisionUserMesh.obj
 0001:00050bb0       ?GetCollisionInfo@dgCollisionUserMesh@@EEBAXPEAVdgCollisionInfo@@@Z 0000000180051bb0 f   physics_2009:dgCollisionUserMesh.obj
 0001:00050c30       ?GetCollidingFaces@dgCollisionUserMesh@@EEBAXQEAVdgPolygonMeshDesc@@@Z 0000000180051c30 f   physics_2009:dgCollisionUserMesh.obj
 0001:00050c70       ??_GdgCollisionUserMesh@@UEAAPEAXI@Z 0000000180051c70 f i physics_2009:dgCollisionUserMesh.obj
 0001:00050c70       ??_EdgCollisionUserMesh@@UEAAPEAXI@Z 0000000180051c70 f i physics_2009:dgCollisionUserMesh.obj
 0001:00050cd0       ?GetVertexListIndexList@dgCollisionUserMesh@@UEBAXAEBVdgVector@@0AEAVdgGetVertexListIndexList@dgCollisionMesh@@@Z 0000000180051cd0 f   physics_2009:dgCollisionUserMesh.obj
 0001:00050d40       ?RayCast@dgCollisionUserMesh@@EEBAMAEBVdgVector@@0AEAVdgContactPoint@@P6AIPEBVdgBody@@PEBVdgCollision@@PEAX@Z24@Z 0000000180051d40 f   physics_2009:dgCollisionUserMesh.obj
 0001:00050ef0       ??1dgCollisionHeightField@@UEAA@XZ 0000000180051ef0 f   physics_2009:dgCollisionHeightField.obj
 0001:00050f70       ?Serialize@dgCollisionHeightField@@EEBAXP6AXPEAXPEBX_K@Z0@Z 0000000180051f70 f   physics_2009:dgCollisionHeightField.obj
 0001:00051080       ?AllocateVertex@dgCollisionHeightField@@AEBAXPEAVdgWorld@@H@Z 0000000180052080 f   physics_2009:dgCollisionHeightField.obj
 0001:00051110       ?GetCollisionInfo@dgCollisionHeightField@@EEBAXPEAVdgCollisionInfo@@@Z 0000000180052110 f   physics_2009:dgCollisionHeightField.obj
 0001:000511c0       ?GetVertexListIndexList@dgCollisionHeightField@@EEBAXAEBVdgVector@@0AEAVdgGetVertexListIndexList@dgCollisionMesh@@@Z 00000001800521c0 f   physics_2009:dgCollisionHeightField.obj
 0001:000511d0       ??_EdgCollisionHeightField@@UEAAPEAXI@Z 00000001800521d0 f i physics_2009:dgCollisionHeightField.obj
 0001:000511d0       ??_GdgCollisionHeightField@@UEAAPEAXI@Z 00000001800521d0 f i physics_2009:dgCollisionHeightField.obj
 0001:00051200       ?CalculateMinExtend2d@dgCollisionHeightField@@AEBAXAEBVdgVector@@0AEAV2@1@Z 0000000180052200 f   physics_2009:dgCollisionHeightField.obj
 0001:000513f0       ?CalculateMinExtend3d@dgCollisionHeightField@@AEBAXAEBVdgVector@@0AEAV2@1@Z 00000001800523f0 f   physics_2009:dgCollisionHeightField.obj
 0001:000515c0       ?DebugCollision@dgCollisionHeightField@@EEBAXAEBVdgMatrix@@P6AXPEAXHPEBMH@Z1@Z 00000001800525c0 f   physics_2009:dgCollisionHeightField.obj
 0001:00051d30       ??0dgCollisionHeightField@@QEAA@PEAVdgWorld@@HHHPEAGPEADMM@Z 0000000180052d30 f   physics_2009:dgCollisionHeightField.obj
 0001:00052010       ??0dgCollisionHeightField@@QEAA@PEAVdgWorld@@P6AXPEAX1_K@Z1@Z 0000000180053010 f   physics_2009:dgCollisionHeightField.obj
 0001:00052210       ?RayCastCellSimd@dgCollisionHeightField@@AEBAMAEBVFastRayTest@@HHAEAVdgVector@@@Z 0000000180053210 f   physics_2009:dgCollisionHeightField.obj
 0001:00052830       ?RayCastCell@dgCollisionHeightField@@AEBAMAEBVFastRayTest@@HHAEAVdgVector@@@Z 0000000180053830 f   physics_2009:dgCollisionHeightField.obj
 0001:00052e50       ?RayCastSimd@dgCollisionHeightField@@EEBAMAEBVdgVector@@0AEAVdgContactPoint@@P6AIPEBVdgBody@@PEBVdgCollision@@PEAX@Z24@Z 0000000180053e50 f   physics_2009:dgCollisionHeightField.obj
 0001:00053370       ?RayCast@dgCollisionHeightField@@EEBAMAEBVdgVector@@0AEAVdgContactPoint@@P6AIPEBVdgBody@@PEBVdgCollision@@PEAX@Z24@Z 0000000180054370 f   physics_2009:dgCollisionHeightField.obj
 0001:000537b0       ?GetCollidingFaces@dgCollisionHeightField@@EEBAXQEAVdgPolygonMeshDesc@@@Z 00000001800547b0 f   physics_2009:dgCollisionHeightField.obj
 0001:00055130       ?CalcFacePlaneSimd@dgContactSolver@@AEAA_NPEAVdgMinkFace@1@@Z 0000000180056130 f i physics_2009:dgMinkowskiConv.obj
 0001:00055250       ?Pop@?$dgUpHeap@PEAUdgPerimenterEdge@dgContactSolver@@M@@QEAAXXZ 0000000180056250 f i physics_2009:dgMinkowskiConv.obj
 0001:00055320       ?CheckTetraHedronVolume@dgContactSolver@@AEBA_NXZ 0000000180056320 f i physics_2009:dgMinkowskiConv.obj
 0001:00055440       ?CheckTetraHedronVolumeLarge@dgContactSolver@@AEBA_NXZ 0000000180056440 f i physics_2009:dgMinkowskiConv.obj
 0001:00055540       ?ReduceLine@dgContactSolver@@AEAA?AVdgVector@@AEBV2@@Z 0000000180056540 f i physics_2009:dgMinkowskiConv.obj
 0001:000556f0       ?ReduceLineLarge@dgContactSolver@@AEAA?AVdgBigVector@@AEBV2@@Z 00000001800566f0 f i physics_2009:dgMinkowskiConv.obj
 0001:00055920       ?ReduceTriangle@dgContactSolver@@AEAA?AVdgVector@@AEBV2@@Z 0000000180056920 f i physics_2009:dgMinkowskiConv.obj
 0001:00055fc0       ?ReduceTriangleLarge@dgContactSolver@@AEAA?AVdgBigVector@@AEBV2@@Z 0000000180056fc0 f i physics_2009:dgMinkowskiConv.obj
 0001:00056680       ?ReduceTetrahedrum@dgContactSolver@@AEAA?AVdgVector@@AEBV2@@Z 0000000180057680 f i physics_2009:dgMinkowskiConv.obj
 0001:00056af0       ?ReduceTetrahedrumLarge@dgContactSolver@@AEAA?AVdgBigVector@@AEBV2@@Z 0000000180057af0 f i physics_2009:dgMinkowskiConv.obj
 0001:00056fc0       ?CalcFacePlane@dgContactSolver@@AEAA_NQEAVdgMinkFace@1@@Z 0000000180057fc0 f i physics_2009:dgMinkowskiConv.obj
 0001:00057180       ?CalcFacePlaneLarge@dgContactSolver@@AEAA_NQEAVdgMinkFace@1@@Z 0000000180058180 f i physics_2009:dgMinkowskiConv.obj
 0001:000573b0       ?CalculateVelocities@dgContactSolver@@QEAAXM@Z 00000001800583b0 f i physics_2009:dgMinkowskiConv.obj
 0001:000574d0       ?CalculateVelocitiesSimD@dgContactSolver@@QEAAXM@Z 00000001800584d0 f i physics_2009:dgMinkowskiConv.obj
 0001:00057610       ?InitConvexCollision@dgWorld@@CAXXZ 0000000180058610 f   physics_2009:dgMinkowskiConv.obj
 0001:00057fe0       ?SphereSphereCollision@dgWorld@@AEBAHAEBVdgVector@@M0MAEAVdgCollisionParamProxi@@@Z 0000000180058fe0 f   physics_2009:dgMinkowskiConv.obj
 0001:00058280       ?CalculateSphereToSphereContacts@dgWorld@@AEBAHAEAVdgCollisionParamProxi@@@Z 0000000180059280 f   physics_2009:dgMinkowskiConv.obj
 0001:000582c0       ?CalculateCapsuleToSphereContacts@dgWorld@@AEBAHAEAVdgCollisionParamProxi@@@Z 00000001800592c0 f   physics_2009:dgMinkowskiConv.obj
 0001:00058460       ?CalculateCapsuleToCapsuleContacts@dgWorld@@AEBAHAEAVdgCollisionParamProxi@@@Z 0000000180059460 f   physics_2009:dgMinkowskiConv.obj
 0001:00059080       ?FilterPolygonEdgeContacts@dgWorld@@AEBAHHQEAVdgContactPoint@@@Z 000000018005a080 f   physics_2009:dgMinkowskiConv.obj
 0001:00059380       ?CalculatePolySoupToSphereContactsDescrete@dgWorld@@AEBAHAEAVdgCollisionParamProxi@@@Z 000000018005a380 f   physics_2009:dgMinkowskiConv.obj
 0001:00059a50       ?CalculatePolySoupToElipseContactsDescrete@dgWorld@@AEBAHAEAVdgCollisionParamProxi@@@Z 000000018005aa50 f   physics_2009:dgMinkowskiConv.obj
 0001:0005a1e0       ?CalcSupportVertexSimd@dgContactSolver@@AEAAXAEBVdgVector@@H@Z 000000018005b1e0 f i physics_2009:dgMinkowskiConv.obj
 0001:0005a320       ?CalcSupportVertex@dgContactSolver@@AEAAXAEBVdgVector@@H@Z 000000018005b320 f i physics_2009:dgMinkowskiConv.obj
 0001:0005a550       ?CalcSupportVertexLarge@dgContactSolver@@AEAAXAEBVdgVector@@H@Z 000000018005b550 f i physics_2009:dgMinkowskiConv.obj
 0001:0005a7f0       ?CalculateConvexShapeIntersectionLine@dgContactSolver@@AEBAHAEBVdgMatrix@@AEBVdgVector@@IMHQEAV3@H2QEAVdgContactPoint@@@Z 000000018005b7f0 f i physics_2009:dgMinkowskiConv.obj
 0001:0005ade0       ?ReduceContacts@dgContactSolver@@AEBAPEAUdgPerimenterEdge@1@PEAU21@H@Z 000000018005bde0 f i physics_2009:dgMinkowskiConv.obj
 0001:0005b0e0       ?CalculateConvexShapeIntersectionSimd@dgContactSolver@@AEBAHAEBVdgMatrix@@AEBVdgVector@@IMHQEAV3@H2QEAVdgContactPoint@@H@Z 000000018005c0e0 f i physics_2009:dgMinkowskiConv.obj
 0001:0005b770       ?CalculateConvexShapeIntersection@dgContactSolver@@AEBAHAEBVdgMatrix@@AEBVdgVector@@IMHQEAV3@H2QEAVdgContactPoint@@H@Z 000000018005c770 f i physics_2009:dgMinkowskiConv.obj
 0001:0005c050       ?UpdateSeparatingPlaneFallbackSolution@dgContactSolver@@AEAA?AW4dgMinkReturnCode@1@AEAPEAVdgMinkFace@1@AEBVdgVector@@@Z 000000018005d050 f i physics_2009:dgMinkowskiConv.obj
 0001:0005d6a0       ?UpdateSeparatingPlaneFallbackSolutionLarge@dgContactSolver@@AEAA?AW4dgMinkReturnCode@1@AEAPEAVdgMinkFace@1@AEBVdgBigVector@@@Z 000000018005e6a0 f i physics_2009:dgMinkowskiConv.obj
 0001:0005f050       ?UpdateSeparatingPlaneSimd@dgContactSolver@@AEAA?AW4dgMinkReturnCode@1@AEAPEAVdgMinkFace@1@AEBVdgVector@@@Z 0000000180060050 f i physics_2009:dgMinkowskiConv.obj
 0001:0005f920       ?UpdateSeparatingPlane@dgContactSolver@@AEAA?AW4dgMinkReturnCode@1@AEAPEAVdgMinkFace@1@AEBVdgVector@@@Z 0000000180060920 f i physics_2009:dgMinkowskiConv.obj
 0001:00060110       ?UpdateSeparatingPlaneLarge@dgContactSolver@@AEAA?AW4dgMinkReturnCode@1@AEAPEAVdgMinkFace@1@AEBVdgBigVector@@@Z 0000000180061110 f i physics_2009:dgMinkowskiConv.obj
 0001:00060b40       ?CalcSeparatingPlaneSimd@dgContactSolver@@AEAA?AW4dgMinkReturnCode@1@AEAPEAVdgMinkFace@1@AEBVdgVector@@@Z 0000000180061b40 f i physics_2009:dgMinkowskiConv.obj
 0001:000611c0       ?CalcSeparatingPlane@dgContactSolver@@AEAA?AW4dgMinkReturnCode@1@AEAPEAVdgMinkFace@1@AEBVdgVector@@@Z 00000001800621c0 f i physics_2009:dgMinkowskiConv.obj
 0001:00061840       ?CalcSeparatingPlaneLarge@dgContactSolver@@AEAA?AW4dgMinkReturnCode@1@AEAPEAVdgMinkFace@1@AEBVdgBigVector@@@Z 0000000180062840 f i physics_2009:dgMinkowskiConv.obj
 0001:00061fd0       ?CalculatePolySoupToSphereContactsContinue@dgWorld@@AEBAHAEAVdgCollisionParamProxi@@@Z 0000000180062fd0 f   physics_2009:dgMinkowskiConv.obj
 0001:000626c0       ?CalculateClosestPoints@dgContactSolver@@AEAAHXZ 00000001800636c0 f i physics_2009:dgMinkowskiConv.obj
 0001:000635c0       ?CalculateContactAlternateMethod@dgContactSolver@@AEAAHQEAVdgMinkFace@1@HQEAVdgContactPoint@@H@Z 00000001800645c0 f i physics_2009:dgMinkowskiConv.obj
 0001:00064ed0       ?CalculateContactsSimd@dgContactSolver@@AEAAHQEAVdgMinkFace@1@HQEAVdgContactPoint@@H@Z 0000000180065ed0 f i physics_2009:dgMinkowskiConv.obj
 0001:00066190       ?CalculateContacts@dgContactSolver@@AEAAHQEAVdgMinkFace@1@HQEAVdgContactPoint@@H@Z 0000000180067190 f i physics_2009:dgMinkowskiConv.obj
 0001:00067b80       ?CalculateContactsContinuesSimd@dgContactSolver@@AEAAHHQEAVdgContactPoint@@HPEBVdgVector@@1M@Z 0000000180068b80 f i physics_2009:dgMinkowskiConv.obj
 0001:00067da0       ?CalculateContactsContinues@dgContactSolver@@AEAAHHQEAVdgContactPoint@@HPEBVdgVector@@1M@Z 0000000180068da0 f i physics_2009:dgMinkowskiConv.obj
 0001:000681b0       ?CalculateClipPlaneSimd@dgContactSolver@@AEAAPEAVdgMinkFace@1@XZ 00000001800691b0 f i physics_2009:dgMinkowskiConv.obj
 0001:00068fa0       ?CalculateClipPlane@dgContactSolver@@AEAAPEAVdgMinkFace@1@XZ 0000000180069fa0 f i physics_2009:dgMinkowskiConv.obj
 0001:00069d90       ?CalculateClipPlaneLarge@dgContactSolver@@AEAAPEAVdgMinkFace@1@XZ 000000018006ad90 f i physics_2009:dgMinkowskiConv.obj
 0001:0006ace0       ?HullHullContactsSimd@dgContactSolver@@QEAAHH@Z 000000018006bce0 f i physics_2009:dgMinkowskiConv.obj
 0001:0006b000       ?HullHullContacts@dgContactSolver@@QEAAHH@Z 000000018006c000 f i physics_2009:dgMinkowskiConv.obj
 0001:0006b460       ?HullHullContactsLarge@dgContactSolver@@QEAAHH@Z 000000018006c460 f i physics_2009:dgMinkowskiConv.obj
 0001:0006b980       ?HullHullContinueContactsSimd@dgContactSolver@@QEAAHAEAMQEAVdgContactPoint@@HHH@Z 000000018006c980 f i physics_2009:dgMinkowskiConv.obj
 0001:0006c350       ?HullHullContinueContacts@dgContactSolver@@QEAAHAEAMQEAVdgContactPoint@@HHH@Z 000000018006d350 f i physics_2009:dgMinkowskiConv.obj
 0001:0006cde0       ?ClosestPoint@dgWorld@@AEBAHAEAVdgCollisionParamProxi@@@Z 000000018006dde0 f   physics_2009:dgMinkowskiConv.obj
 0001:0006d090       ?CalculateHullToHullContactsSimd@dgWorld@@AEBAHAEAVdgCollisionParamProxi@@@Z 000000018006e090 f   physics_2009:dgMinkowskiConv.obj
 0001:0006d380       ?CalculateHullToHullContacts@dgWorld@@AEBAHAEAVdgCollisionParamProxi@@@Z 000000018006e380 f   physics_2009:dgMinkowskiConv.obj
 0001:0006d670       ?CalculatePolySoupToHullContactsDescreteSimd@dgWorld@@AEBAHAEAVdgCollisionParamProxi@@@Z 000000018006e670 f   physics_2009:dgMinkowskiConv.obj
 0001:0006d9e0       ?CalculatePolySoupToHullContactsDescrete@dgWorld@@AEBAHAEAVdgCollisionParamProxi@@@Z 000000018006e9e0 f   physics_2009:dgMinkowskiConv.obj
 0001:0006dd50       ?CalculateConvexToNonConvexContactsContinueSimd@dgWorld@@AEBAHAEAVdgCollisionParamProxi@@@Z 000000018006ed50 f   physics_2009:dgMinkowskiConv.obj
 0001:0006e250       ?CalculateConvexToNonConvexContactsContinue@dgWorld@@AEBAHAEAVdgCollisionParamProxi@@@Z 000000018006f250 f   physics_2009:dgMinkowskiConv.obj
 0001:0006e750       ?CalculateConvexToNonConvexContactsSimd@dgWorld@@AEBAHAEAVdgCollisionParamProxi@@@Z 000000018006f750 f   physics_2009:dgMinkowskiConv.obj
 0001:0006f130       ?CalculateConvexToNonConvexContacts@dgWorld@@AEBAHAEAVdgCollisionParamProxi@@@Z 0000000180070130 f   physics_2009:dgMinkowskiConv.obj
 0001:0006fb60       ?CalculateBoxToSphereContacts@dgWorld@@AEBAHAEAVdgCollisionParamProxi@@@Z 0000000180070b60 f   physics_2009:dgMinkowskiConv.obj
 0001:000713c0       ?CalculateConvexToConvexContactsSimd@dgWorld@@AEBAHAEAVdgCollisionParamProxi@@@Z 00000001800723c0 f   physics_2009:dgMinkowskiConv.obj
 0001:00071ed0       ?CalculateConvexToConvexContacts@dgWorld@@AEBAHAEAVdgCollisionParamProxi@@@Z 0000000180072ed0 f   physics_2009:dgMinkowskiConv.obj
 0001:000729d0       ?CalculateSignature@dgCollisionBox@@MEBAHXZ 00000001800739d0 f   physics_2009:dgCollisionBox.obj
 0001:00072a90       ?GetCollisionInfo@dgCollisionBox@@MEBAXPEAVdgCollisionInfo@@@Z 0000000180073a90 f   physics_2009:dgCollisionBox.obj
 0001:00072b30       ?BeginPolygon@NewtonMeshEffect@@QEAAXXZ 0000000180073b30 f   NewtonMeshEffect.obj
 0001:00072b30       ?PlaneSplite@dgCollisionConvexHull@@EEBAXAEBVdgPlane@@PEAPEAV1@1@Z 0000000180073b30 f   physics_2009:dgCollisionConvexHull.obj
 0001:00072b30       ?PlaneSplite@dgCollisionBox@@MEBAXAEBVdgPlane@@PEAPEAVdgCollisionConvexHull@@1@Z 0000000180073b30 f   physics_2009:dgCollisionBox.obj
 0001:00072b40       ??_GdgCollisionBox@@UEAAPEAXI@Z 0000000180073b40 f i physics_2009:dgCollisionBox.obj
 0001:00072b40       ??_EdgCollisionBox@@UEAAPEAXI@Z 0000000180073b40 f i physics_2009:dgCollisionBox.obj
 0001:00072b90       ?CalcAABB@dgCollisionBox@@MEBAXAEBVdgMatrix@@AEAVdgVector@@1@Z 0000000180073b90 f   physics_2009:dgCollisionBox.obj
 0001:00072cc0       ?CalcAABBSimD@dgCollisionBox@@MEBAXAEBVdgMatrix@@AEAVdgVector@@1@Z 0000000180073cc0 f   physics_2009:dgCollisionBox.obj
 0001:00072d20       ?CalculatePlaneIntersection@dgCollisionBox@@MEBAHAEBVdgVector@@0QEAV2@@Z 0000000180073d20 f   physics_2009:dgCollisionBox.obj
 0001:000730e0       ?CalculatePlaneIntersectionSimd@dgCollisionBox@@MEBAHAEBVdgVector@@0QEAV2@@Z 00000001800740e0 f   physics_2009:dgCollisionBox.obj
 0001:00073430       ?Serialize@dgCollisionBox@@MEBAXP6AXPEAXPEBX_K@Z0@Z 0000000180074430 f   physics_2009:dgCollisionBox.obj
 0001:000734c0       ?Init@dgCollisionBox@@IEAAXMMM@Z 00000001800744c0 f   physics_2009:dgCollisionBox.obj
 0001:000739f0       ?SupportVertex@dgCollisionBox@@MEBA?AVdgVector@@AEBV2@@Z 00000001800749f0 f   physics_2009:dgCollisionBox.obj
 0001:000739f0       ?SupportVertexSimd@dgCollisionBox@@MEBA?AVdgVector@@AEBV2@@Z 00000001800749f0 f   physics_2009:dgCollisionBox.obj
 0001:00073a50       ?RayCast@dgCollisionBox@@MEBAMAEBVdgVector@@0AEAVdgContactPoint@@P6AIPEBVdgBody@@PEBVdgCollision@@PEAX@Z24@Z 0000000180074a50 f   physics_2009:dgCollisionBox.obj
 0001:00073c50       ?CalculateMassProperties@dgCollisionBox@@MEBAMAEAVdgVector@@00@Z 0000000180074c50 f   physics_2009:dgCollisionBox.obj
 0001:00074080       ??0dgCollisionBox@@QEAA@IMMMAEBVdgMatrix@@@Z 0000000180075080 f   physics_2009:dgCollisionBox.obj
 0001:000740e0       ??0dgCollisionBox@@QEAA@PEAVdgWorld@@P6AXPEAX1_K@Z1@Z 00000001800750e0 f   physics_2009:dgCollisionBox.obj
 0001:00074150       ??1dgCollision@@MEAA@XZ    0000000180075150 f   physics_2009:dgCollision.obj
 0001:00074160       ?GetVolume@dgCollisionScene@@EEBAMXZ 0000000180075160 f i physics_2009:dgCollisionScene.obj
 0001:00074160       ?GetBoxMinRadius@dgCollisionScene@@EEBAMXZ 0000000180075160 f i physics_2009:dgCollisionScene.obj
 0001:00074160       ?GetVolume@dgCollisionMesh@@UEBAMXZ 0000000180075160 f i physics_2009:dgCollisionMesh.obj
 0001:00074160       ?GetVolume@dgCollisionConvexPolygon@dgCollisionMesh@@UEBAMXZ 0000000180075160 f i physics_2009:dgCollisionMesh.obj
 0001:00074160       ?GetVolume@dgCollisionNull@@MEBAMXZ 0000000180075160 f i physics_2009:dgCollisionNull.obj
 0001:00074160       ?RayCastSimd@dgCollision@@UEBAMAEBVdgVector@@0AEAVdgContactPoint@@P6AIPEBVdgBody@@PEBV1@PEAX@Z24@Z 0000000180075160 f i physics_2009:dgCollision.obj
 0001:00074160       ?GetBoxMinRadius@dgCollisionMesh@@UEBAMXZ 0000000180075160 f i physics_2009:dgCollisionMesh.obj
 0001:00074160       ?GetBoxMaxRadius@dgCollisionScene@@EEBAMXZ 0000000180075160 f i physics_2009:dgCollisionScene.obj
 0001:00074160       ?GetBoxMaxRadius@dgCollisionMesh@@UEBAMXZ 0000000180075160 f i physics_2009:dgCollisionMesh.obj
 0001:00074160       ?GetBoxMinRadius@dgCollisionConvexPolygon@dgCollisionMesh@@UEBAMXZ 0000000180075160 f i physics_2009:dgCollisionMesh.obj
 0001:00074160       ?RayCast@dgCollisionConvexPolygon@dgCollisionMesh@@UEBAMAEBVdgVector@@0AEAVdgContactPoint@@P6AIPEBVdgBody@@PEBVdgCollision@@PEAX@Z24@Z 0000000180075160 f i physics_2009:dgCollisionMesh.obj
 0001:00074160       ?GetBoxMaxRadius@dgCollisionConvexPolygon@dgCollisionMesh@@UEBAMXZ 0000000180075160 f i physics_2009:dgCollisionMesh.obj
 0001:00074160       ?GetVolume@dgCollisionPoint@@UEBAMXZ 0000000180075160 f i physics_2009:dgCollisionSphere.obj
 0001:00074170       ?Quantize@dgCollision@@SAIM@Z 0000000180075170 f   physics_2009:dgCollision.obj
 0001:00074180       ?MakeCRC@dgCollision@@SAIPEAXH@Z 0000000180075180 f   physics_2009:dgCollision.obj
 0001:00074190       ?GetCollisionInfo@dgCollision@@UEBAXPEAVdgCollisionInfo@@@Z 0000000180075190 f   physics_2009:dgCollision.obj
 0001:00074210       ?SerializeLow@dgCollision@@UEBAXP6AXPEAXPEBX_K@Z0@Z 0000000180075210 f   physics_2009:dgCollision.obj
 0001:00074280       ??_GdgCollision@@MEAAPEAXI@Z 0000000180075280 f i physics_2009:dgCollision.obj
 0001:00074280       ??_EdgCollision@@MEAAPEAXI@Z 0000000180075280 f i physics_2009:dgCollision.obj
 0001:000742b0       ??0dgCollision@@IEAA@IAEBVdgMatrix@@W4dgCollisionID@@@Z 00000001800752b0 f   physics_2009:dgCollision.obj
 0001:00074330       ??0dgCollision@@IEAA@PEAVdgWorld@@P6AXPEAX1_K@Z1@Z 0000000180075330 f   physics_2009:dgCollision.obj
 0001:000743b0       ?CalculateSignature@dgCollisionEllipse@@EEBAHXZ 00000001800753b0 f   physics_2009:dgCollisionEllipse.obj
 0001:00074470       ?CalculateMassProperties@dgCollisionEllipse@@EEBAMAEAVdgVector@@00@Z 0000000180075470 f   physics_2009:dgCollisionEllipse.obj
 0001:00074480       ?GetCollisionInfo@dgCollisionEllipse@@EEBAXPEAVdgCollisionInfo@@@Z 0000000180075480 f   physics_2009:dgCollisionEllipse.obj
 0001:00074510       ?Serialize@dgCollisionEllipse@@EEBAXP6AXPEAXPEBX_K@Z0@Z 0000000180075510 f   physics_2009:dgCollisionEllipse.obj
 0001:00074560       ??_EdgCollisionEllipse@@UEAAPEAXI@Z 0000000180075560 f i physics_2009:dgCollisionEllipse.obj
 0001:00074560       ??_GdgCollisionEllipse@@UEAAPEAXI@Z 0000000180075560 f i physics_2009:dgCollisionEllipse.obj
 0001:000745a0       ?CalcAABB@dgCollisionEllipse@@MEBAXAEBVdgMatrix@@AEAVdgVector@@1@Z 00000001800755a0 f   physics_2009:dgCollisionEllipse.obj
 0001:00074730       ??0dgCollisionEllipse@@QEAA@IMMMAEBVdgMatrix@@@Z 0000000180075730 f   physics_2009:dgCollisionEllipse.obj
 0001:00074800       ??0dgCollisionEllipse@@QEAA@PEAVdgWorld@@P6AXPEAX1_K@Z1@Z 0000000180075800 f   physics_2009:dgCollisionEllipse.obj
 0001:000748b0       ?SupportVertex@dgCollisionEllipse@@MEBA?AVdgVector@@AEBV2@@Z 00000001800758b0 f   physics_2009:dgCollisionEllipse.obj
 0001:000749b0       ?SupportVertexSimd@dgCollisionEllipse@@MEBA?AVdgVector@@AEBV2@@Z 00000001800759b0 f   physics_2009:dgCollisionEllipse.obj
 0001:00074a70       ?CalculatePlaneIntersectionSimd@dgCollisionEllipse@@EEBAHAEBVdgVector@@0QEAV2@@Z 0000000180075a70 f   physics_2009:dgCollisionEllipse.obj
 0001:00074a70       ?CalculatePlaneIntersection@dgCollisionEllipse@@EEBAHAEBVdgVector@@0QEAV2@@Z 0000000180075a70 f   physics_2009:dgCollisionEllipse.obj
 0001:00074b70       ?DebugCollision@dgCollisionEllipse@@MEBAXAEBVdgMatrix@@P6AXPEAXHPEBMH@Z1@Z 0000000180075b70 f   physics_2009:dgCollisionEllipse.obj
 0001:00074ed0       ?RayCast@dgCollisionEllipse@@MEBAMAEBVdgVector@@0AEAVdgContactPoint@@P6AIPEBVdgBody@@PEBVdgCollision@@PEAX@Z24@Z 0000000180075ed0 f   physics_2009:dgCollisionEllipse.obj
 0001:00074fe0       ?RayCastSimd@dgCollisionEllipse@@MEBAMAEBVdgVector@@0AEAVdgContactPoint@@P6AIPEBVdgBody@@PEBVdgCollision@@PEAX@Z24@Z 0000000180075fe0 f   physics_2009:dgCollisionEllipse.obj
 0001:000750f0       ?CalculateSignature@dgCollisionCapsule@@EEBAHXZ 00000001800760f0 f   physics_2009:dgCollisionCapsule.obj
 0001:00075170       ?GetCollisionInfo@dgCollisionCapsule@@EEBAXPEAVdgCollisionInfo@@@Z 0000000180076170 f   physics_2009:dgCollisionCapsule.obj
 0001:00075210       ??_GdgCollisionCapsule@@UEAAPEAXI@Z 0000000180076210 f i physics_2009:dgCollisionCapsule.obj
 0001:00075210       ??_EdgCollisionCapsule@@UEAAPEAXI@Z 0000000180076210 f i physics_2009:dgCollisionCapsule.obj
 0001:00075260       ?SupportVertex@dgCollisionCapsule@@EEBA?AVdgVector@@AEBV2@@Z 0000000180076260 f   physics_2009:dgCollisionCapsule.obj
 0001:00075260       ?SupportVertexSimd@dgCollisionCapsule@@EEBA?AVdgVector@@AEBV2@@Z 0000000180076260 f   physics_2009:dgCollisionCapsule.obj
 0001:000752f0       ?Serialize@dgCollisionCapsule@@EEBAXP6AXPEAXPEBX_K@Z0@Z 00000001800762f0 f   physics_2009:dgCollisionCapsule.obj
 0001:00075360       ?Init@dgCollisionCapsule@@AEAAXMM@Z 0000000180076360 f   physics_2009:dgCollisionCapsule.obj
 0001:00075910       ?TesselateTriangle@dgCollisionCapsule@@AEBAXHMAEBVdgVector@@00AEAHPEAV2@@Z 0000000180076910 f   physics_2009:dgCollisionCapsule.obj
 0001:00075e40       ?DebugCollision@dgCollisionCapsule@@EEBAXAEBVdgMatrix@@P6AXPEAXHPEBMH@Z1@Z 0000000180076e40 f   physics_2009:dgCollisionCapsule.obj
 0001:00076420       ?RayCast@dgCollisionCapsule@@EEBAMAEBVdgVector@@0AEAVdgContactPoint@@P6AIPEBVdgBody@@PEBVdgCollision@@PEAX@Z24@Z 0000000180077420 f   physics_2009:dgCollisionCapsule.obj
 0001:00076d40       ?CalculateMassProperties@dgCollisionCapsule@@EEBAMAEAVdgVector@@00@Z 0000000180077d40 f   physics_2009:dgCollisionCapsule.obj
 0001:00077170       ?CalculatePlaneIntersection@dgCollisionCapsule@@EEBAHAEBVdgVector@@0QEAV2@@Z 0000000180078170 f   physics_2009:dgCollisionCapsule.obj
 0001:00077b20       ??0dgCollisionCapsule@@QEAA@IMMAEBVdgMatrix@@@Z 0000000180078b20 f   physics_2009:dgCollisionCapsule.obj
 0001:00077b80       ??0dgCollisionCapsule@@QEAA@PEAVdgWorld@@P6AXPEAX1_K@Z1@Z 0000000180078b80 f   physics_2009:dgCollisionCapsule.obj
 0001:00077be0       ?CalculatePlaneIntersectionSimd@dgCollisionCapsule@@EEBAHAEBVdgVector@@0QEAV2@@Z 0000000180078be0 f   physics_2009:dgCollisionCapsule.obj
 0001:00077bf0       ?CalculateSignature@dgCollisionCone@@EEBAHXZ 0000000180078bf0 f   physics_2009:dgCollisionCone.obj
 0001:00077c70       ?DebugCollision@dgCollisionCone@@EEBAXAEBVdgMatrix@@P6AXPEAXHPEBMH@Z1@Z 0000000180078c70 f   physics_2009:dgCollisionCone.obj
 0001:00077ea0       ?SupportVertexSimd@dgCollisionCylinder@@EEBA?AVdgVector@@AEBV2@@Z 0000000180078ea0 f   physics_2009:dgCollisionCylinder.obj
 0001:00077ea0       ?SupportVertexSimd@dgCollisionCone@@EEBA?AVdgVector@@AEBV2@@Z 0000000180078ea0 f   physics_2009:dgCollisionCone.obj
 0001:00077ea0       ?SupportVertexSimd@dgCollisionChamferCylinder@@MEBA?AVdgVector@@AEBV2@@Z 0000000180078ea0 f   physics_2009:dgCollisionChamferCylinder.obj
 0001:00077ec0       ?GetCollisionInfo@dgCollisionCone@@EEBAXPEAVdgCollisionInfo@@@Z 0000000180078ec0 f   physics_2009:dgCollisionCone.obj
 0001:00077f50       ??_EdgCollisionCone@@UEAAPEAXI@Z 0000000180078f50 f i physics_2009:dgCollisionCone.obj
 0001:00077f50       ??_GdgCollisionCone@@UEAAPEAXI@Z 0000000180078f50 f i physics_2009:dgCollisionCone.obj
 0001:00077fa0       ?Init@dgCollisionCone@@AEAAXMM@Z 0000000180078fa0 f   physics_2009:dgCollisionCone.obj
 0001:00078320       ?SupportVertex@dgCollisionCone@@EEBA?AVdgVector@@AEBV2@@Z 0000000180079320 f   physics_2009:dgCollisionCone.obj
 0001:000783d0       ?CalculateMassProperties@dgCollisionCone@@EEBAMAEAVdgVector@@00@Z 00000001800793d0 f   physics_2009:dgCollisionCone.obj
 0001:00078830       ?CalculatePlaneIntersection@dgCollisionCylinder@@EEBAHAEBVdgVector@@0QEAV2@@Z 0000000180079830 f   physics_2009:dgCollisionCylinder.obj
 0001:00078830       ?CalculatePlaneIntersection@dgCollisionCone@@EEBAHAEBVdgVector@@0QEAV2@@Z 0000000180079830 f   physics_2009:dgCollisionCone.obj
 0001:00078a90       ?CalculatePlaneIntersectionSimd@dgCollisionCylinder@@EEBAHAEBVdgVector@@0QEAV2@@Z 0000000180079a90 f   physics_2009:dgCollisionCylinder.obj
 0001:00078a90       ?CalculatePlaneIntersectionSimd@dgCollisionCone@@EEBAHAEBVdgVector@@0QEAV2@@Z 0000000180079a90 f   physics_2009:dgCollisionCone.obj
 0001:00078d30       ?Serialize@dgCollisionCone@@EEBAXP6AXPEAXPEBX_K@Z0@Z 0000000180079d30 f   physics_2009:dgCollisionCone.obj
 0001:00078da0       ??0dgCollisionCone@@QEAA@IMMAEBVdgMatrix@@@Z 0000000180079da0 f   physics_2009:dgCollisionCone.obj
 0001:00078e00       ??0dgCollisionCone@@QEAA@PEAVdgWorld@@P6AXPEAX1_K@Z1@Z 0000000180079e00 f   physics_2009:dgCollisionCone.obj
 0001:00078e60       ?CalculateSignature@dgCollisionCylinder@@EEBAHXZ 0000000180079e60 f   physics_2009:dgCollisionCylinder.obj
 0001:00078ee0       ?DebugCollision@dgCollisionCylinder@@EEBAXAEBVdgMatrix@@P6AXPEAXHPEBMH@Z1@Z 0000000180079ee0 f   physics_2009:dgCollisionCylinder.obj
 0001:00079170       ?GetCollisionInfo@dgCollisionCylinder@@EEBAXPEAVdgCollisionInfo@@@Z 000000018007a170 f   physics_2009:dgCollisionCylinder.obj
 0001:00079200       ??_EdgCollisionCylinder@@UEAAPEAXI@Z 000000018007a200 f i physics_2009:dgCollisionCylinder.obj
 0001:00079200       ??_GdgCollisionCylinder@@UEAAPEAXI@Z 000000018007a200 f i physics_2009:dgCollisionCylinder.obj
 0001:00079250       ?Serialize@dgCollisionCylinder@@EEBAXP6AXPEAXPEBX_K@Z0@Z 000000018007a250 f   physics_2009:dgCollisionCylinder.obj
 0001:000792c0       ?Init@dgCollisionCylinder@@AEAAXMM@Z 000000018007a2c0 f   physics_2009:dgCollisionCylinder.obj
 0001:00079660       ?SupportVertex@dgCollisionCylinder@@EEBA?AVdgVector@@AEBV2@@Z 000000018007a660 f   physics_2009:dgCollisionCylinder.obj
 0001:000796f0       ?CalculateMassProperties@dgCollisionCylinder@@EEBAMAEAVdgVector@@00@Z 000000018007a6f0 f   physics_2009:dgCollisionCylinder.obj
 0001:00079af0       ?RayCast@dgCollisionCylinder@@EEBAMAEBVdgVector@@0AEAVdgContactPoint@@P6AIPEBVdgBody@@PEBVdgCollision@@PEAX@Z24@Z 000000018007aaf0 f   physics_2009:dgCollisionCylinder.obj
 0001:00079fe0       ??0dgCollisionCylinder@@QEAA@IMMAEBVdgMatrix@@@Z 000000018007afe0 f   physics_2009:dgCollisionCylinder.obj
 0001:0007a040       ??0dgCollisionCylinder@@QEAA@PEAVdgWorld@@P6AXPEAX1_K@Z1@Z 000000018007b040 f   physics_2009:dgCollisionCylinder.obj
 0001:0007a0a0       ?CalculateSignature@dgCollisionChamferCylinder@@MEBAHXZ 000000018007b0a0 f   physics_2009:dgCollisionChamferCylinder.obj
 0001:0007a120       ?GetCollisionInfo@dgCollisionChamferCylinder@@MEBAXPEAVdgCollisionInfo@@@Z 000000018007b120 f   physics_2009:dgCollisionChamferCylinder.obj
 0001:0007a1b0       ??_GdgCollisionChamferCylinder@@UEAAPEAXI@Z 000000018007b1b0 f i physics_2009:dgCollisionChamferCylinder.obj
 0001:0007a1b0       ??_EdgCollisionChamferCylinder@@UEAAPEAXI@Z 000000018007b1b0 f i physics_2009:dgCollisionChamferCylinder.obj
 0001:0007a200       ?Serialize@dgCollisionChamferCylinder@@MEBAXP6AXPEAXPEBX_K@Z0@Z 000000018007b200 f   physics_2009:dgCollisionChamferCylinder.obj
 0001:0007a270       ?Init@dgCollisionChamferCylinder@@IEAAXMM@Z 000000018007b270 f   physics_2009:dgCollisionChamferCylinder.obj
 0001:0007a8a0       ?DebugCollision@dgCollisionChamferCylinder@@MEBAXAEBVdgMatrix@@P6AXPEAXHPEBMH@Z1@Z 000000018007b8a0 f   physics_2009:dgCollisionChamferCylinder.obj
 0001:0007b090       ?SupportVertex@dgCollisionChamferCylinder@@MEBA?AVdgVector@@AEBV2@@Z 000000018007c090 f   physics_2009:dgCollisionChamferCylinder.obj
 0001:0007b1c0       ?RayCast@dgCollisionChamferCylinder@@MEBAMAEBVdgVector@@0AEAVdgContactPoint@@P6AIPEBVdgBody@@PEBVdgCollision@@PEAX@Z24@Z 000000018007c1c0 f   physics_2009:dgCollisionChamferCylinder.obj
 0001:0007b3f0       ?RayCastSimd@dgCollisionChamferCylinder@@MEBAMAEBVdgVector@@0AEAVdgContactPoint@@P6AIPEBVdgBody@@PEBVdgCollision@@PEAX@Z24@Z 000000018007c3f0 f   physics_2009:dgCollisionChamferCylinder.obj
 0001:0007b620       ?CalculatePlaneIntersection@dgCollisionChamferCylinder@@MEBAHAEBVdgVector@@0QEAV2@@Z 000000018007c620 f   physics_2009:dgCollisionChamferCylinder.obj
 0001:0007bf50       ??0dgCollisionChamferCylinder@@QEAA@IMMAEBVdgMatrix@@@Z 000000018007cf50 f   physics_2009:dgCollisionChamferCylinder.obj
 0001:0007bfb0       ??0dgCollisionChamferCylinder@@QEAA@PEAVdgWorld@@P6AXPEAX1_K@Z1@Z 000000018007cfb0 f   physics_2009:dgCollisionChamferCylinder.obj
 0001:0007c010       ?CalculatePlaneIntersectionSimd@dgCollisionChamferCylinder@@MEBAHAEBVdgVector@@0QEAV2@@Z 000000018007d010 f   physics_2009:dgCollisionChamferCylinder.obj
 0001:0007c020       ?Malloc@dgMemoryAllocator@@QEAAPEAXH@Z 000000018007d020 f i corelib_2009:dgMemory.obj
 0001:0007c1a0       ?Free@dgMemoryAllocator@@QEAAXPEAX@Z 000000018007d1a0 f i corelib_2009:dgMemory.obj
 0001:0007c2d0       ?__malloc__@dgMemoryAllocator@@CAPEAXI@Z 000000018007d2d0 f i corelib_2009:dgMemory.obj
 0001:0007c2e0       ?dgSetMemoryDrivers@@YAXP6APEAXI@ZP6AXPEAXI@Z@Z 000000018007d2e0 f   corelib_2009:dgMemory.obj
 0001:0007c2f0       ?dgGetMemoryUsed@@YAHXZ    000000018007d2f0 f   corelib_2009:dgMemory.obj
 0001:0007c300       ?dgMallocStack@@YAPEAX_K@Z 000000018007d300 f   corelib_2009:dgMemory.obj
 0001:0007c340       ?dgFreeStack@@YAXPEAX@Z    000000018007d340 f   corelib_2009:dgMemory.obj
 0001:0007c370       ?dgMalloc@@YAPEAX_K@Z      000000018007d370 f   corelib_2009:dgMemory.obj
 0001:0007c390       ?dgFree@@YAXPEAX@Z         000000018007d390 f   corelib_2009:dgMemory.obj
 0001:0007c3b0       ?dgCRC@@YAIPEBXHI@Z        000000018007d3b0 f   corelib_2009:dgCRC.obj
 0001:0007c410       ?TransformTriplex@dgMatrix@@QEBAXQEAXHQEBXHH@Z 000000018007d410 f   corelib_2009:dgMatrix.obj
 0001:0007c770       ?dgGetIdentityMatrix@@YAAEBVdgMatrix@@XZ 000000018007d770 f   corelib_2009:dgMatrix.obj
 0001:0007c840       ??0dgMatrix@@QEAA@AEBVdgQuaternion@@AEBVdgVector@@@Z 000000018007d840 f   corelib_2009:dgMatrix.obj
 0001:0007ca10       ??DdgMatrix@@QEBA?AV0@AEBV0@@Z 000000018007da10 f   corelib_2009:dgMatrix.obj
 0001:0007ced0       ?Symetric3by3Inverse@dgMatrix@@QEBA?AV1@XZ 000000018007ded0 f   corelib_2009:dgMatrix.obj
 0001:0007d190       ?CalcPitchYawRoll@dgMatrix@@QEBA?AVdgVector@@XZ 000000018007e190 f   corelib_2009:dgMatrix.obj
 0001:0007d280       ?Minimum@dgRedBackNode@@QEBAPEAV1@XZ 000000018007e280 f   corelib_2009:dgTree.obj
 0001:0007d2a0       ?Next@dgRedBackNode@@QEBAPEAV1@XZ 000000018007e2a0 f   corelib_2009:dgTree.obj
 0001:0007d2e0       ?InsertFixup@dgRedBackNode@@QEAAXPEAPEAV1@@Z 000000018007e2e0 f   corelib_2009:dgTree.obj
 0001:0007d4f0       ?RemoveFixup@dgRedBackNode@@QEAAXPEAV1@PEAPEAV1@@Z 000000018007e4f0 f   corelib_2009:dgTree.obj
 0001:0007d830       ?Unlink@dgRedBackNode@@QEAAXPEAPEAV1@@Z 000000018007e830 f   corelib_2009:dgTree.obj
 0001:0007d960       ?RemoveAllLow@dgRedBackNode@@QEAAXXZ 000000018007e960 f   corelib_2009:dgTree.obj
 0001:0007d9a0       ?RemoveAll@dgRedBackNode@@QEAAXXZ 000000018007e9a0 f   corelib_2009:dgTree.obj
 0001:0007d9f0       ?Remove@dgRedBackNode@@QEAAXPEAPEAV1@@Z 000000018007e9f0 f   corelib_2009:dgTree.obj
 0001:0007da20       ??0dgThreads@@QEAA@XZ      000000018007ea20 f   corelib_2009:dgThreads.obj
 0001:0007db10       ?GetThreadCount@dgThreads@@QEBAHXZ 000000018007eb10 f   corelib_2009:dgThreads.obj
 0001:0007db20       ?DestroydgThreads@dgThreads@@QEAAXXZ 000000018007eb20 f   corelib_2009:dgThreads.obj
 0001:0007dc30       ?SubmitJob@dgThreads@@QEAAHPEAVdgWorkerThread@@@Z 000000018007ec30 f   corelib_2009:dgThreads.obj
 0001:0007dce0       ?DoWork@dgThreads@@AEAAXXZ 000000018007ece0 f   corelib_2009:dgThreads.obj
 0001:0007dd90       ?SynchronizationBarrier@dgThreads@@QEAAXXZ 000000018007ed90 f   corelib_2009:dgThreads.obj
 0001:0007ddc0       ?CalculateChunkSizes@dgThreads@@QEBAXHQEAH@Z 000000018007edc0 f   corelib_2009:dgThreads.obj
 0001:0007de20       ?dgGetLock@dgThreads@@QEAAXXZ 000000018007ee20 f   corelib_2009:dgThreads.obj
 0001:0007de60       ?dgReleaseLock@dgThreads@@QEAAXXZ 000000018007ee60 f   corelib_2009:dgThreads.obj
 0001:0007de70       ?dgGetIndirectLock@dgThreads@@QEAAXPEAH@Z 000000018007ee70 f   corelib_2009:dgThreads.obj
 0001:0007dea0       ?dgReleaseIndirectLock@dgThreads@@QEAAXPEAH@Z 000000018007eea0 f   corelib_2009:dgThreads.obj
 0001:0007deb0       ??1dgThreads@@QEAA@XZ      000000018007eeb0 f   corelib_2009:dgThreads.obj
 0001:0007ded0       ?ThreadExecute@dgThreads@@CAIPEAX@Z 000000018007eed0 f   corelib_2009:dgThreads.obj
 0001:0007def0       ?CreateThreaded@dgThreads@@QEAAXH@Z 000000018007eef0 f   corelib_2009:dgThreads.obj
 0001:0007dff0       ?Pop@?$dgDownHeap@PEAVdgEdge@@M@@QEAAXXZ 000000018007eff0 f i corelib_2009:dgPolyhedra.obj
 0001:0007ee90       ?DeleteEdge@dgPolyhedra@@QEAAXPEAVdgEdge@@@Z 000000018007fe90 f   corelib_2009:dgPolyhedra.obj
 0001:0007ef20       ?FaceNormal@dgPolyhedra@@QEBA?AVdgVector@@PEAVdgEdge@@QEBMH@Z 000000018007ff20 f   corelib_2009:dgPolyhedra.obj
 0001:0007ef80       ?Addtop@?$dgList@UEDGE_HANDLE@InternalPolyhedra@@@@QEAAPEAVdgListNode@1@AEBUEDGE_HANDLE@InternalPolyhedra@@@Z 000000018007ff80 f i corelib_2009:dgPolyhedra.obj
 0001:0007f080       ?Insert@?$dgTree@VdgEdge@@_J@@QEAAPEAVdgTreeNode@1@PEAV21@_J@Z 0000000180080080 f i corelib_2009:dgPolyhedra.obj
 0001:0007fcc0       ??0dgPolyhedra@@QEAA@XZ    0000000180080cc0 f   corelib_2009:dgPolyhedra.obj
 0001:0007fce0       ??1dgPolyhedra@@UEAA@XZ    0000000180080ce0 f   corelib_2009:dgPolyhedra.obj
 0001:0007fd20       ?DeleteFace@dgPolyhedra@@QEAAXPEAVdgEdge@@@Z 0000000180080d20 f   corelib_2009:dgPolyhedra.obj
 0001:0007fdb0       ?DeleteDegenerateFaces@dgPolyhedra@@QEAAXQEBMHM@Z 0000000180080db0 f   corelib_2009:dgPolyhedra.obj
 0001:0007ff40       ?SwapInfo@dgPolyhedra@@QEAAXAEAV1@@Z 0000000180080f40 f   corelib_2009:dgPolyhedra.obj
 0001:000806f0       ?Update@dgPolyhedraDescriptor@@QEAAXAEBVdgPolyhedra@@@Z 00000001800816f0 f   corelib_2009:dgPolyhedra.obj
 0001:00080930       ??_GdgPolyhedra@@UEAAPEAXI@Z 0000000180081930 f i corelib_2009:dgPolyhedra.obj
 0001:00080930       ??_EdgPolyhedra@@UEAAPEAXI@Z 0000000180081930 f i corelib_2009:dgPolyhedra.obj
 0001:00080990       ?CollapseEdge@dgPolyhedra@@AEAAPEAVdgEdge@@PEAV2@@Z 0000000180081990 f   corelib_2009:dgPolyhedra.obj
 0001:00080d90       ?Insert@?$dgTree@VdgEdge@@_J@@QEAAPEAVdgTreeNode@1@AEBVdgEdge@@_JAEA_N@Z 0000000180081d90 f i corelib_2009:dgPolyhedra.obj
 0001:00081130       ?EndFace@dgPolyhedra@@QEAAXXZ 0000000180082130 f   corelib_2009:dgPolyhedra.obj
 0001:00081150       ?AddFace@dgPolyhedra@@QEAAPEAVdgEdge@@HQEBHQEB_J@Z 0000000180082150 f   corelib_2009:dgPolyhedra.obj
 0001:000815a0       ?Optimize@dgPolyhedra@@QEAAXQEBMHM@Z 00000001800825a0 f   corelib_2009:dgPolyhedra.obj
 0001:00082440       ??0dgPolyhedra@@QEAA@AEBV0@@Z 0000000180083440 f   corelib_2009:dgPolyhedra.obj
 0001:000825f0       ?AddFace@dgPolyhedra@@QEAAPEAVdgEdge@@HQEBH@Z 00000001800835f0 f   corelib_2009:dgPolyhedra.obj
 0001:00082650       ?AddFace@dgPolyhedra@@QEAAPEAVdgEdge@@HHH@Z 0000000180083650 f   corelib_2009:dgPolyhedra.obj
 0001:00082690       ?AddHalfEdge@dgPolyhedra@@QEAAPEAVdgEdge@@HH@Z 0000000180083690 f   corelib_2009:dgPolyhedra.obj
 0001:00082700       ?SpliteEdge@dgPolyhedra@@QEAAXHPEAVdgEdge@@@Z 0000000180083700 f   corelib_2009:dgPolyhedra.obj
 0001:00082960       ?SpliteEdgeAndTriangulate@dgPolyhedra@@QEAAXHPEAVdgEdge@@@Z 0000000180083960 f   corelib_2009:dgPolyhedra.obj
 0001:00082cb0       ?GetConectedSurface@dgPolyhedra@@QEBA_NAEAV1@@Z 0000000180083cb0 f   corelib_2009:dgPolyhedra.obj
 0001:000847b0       ?TriangulateFace@dgPolyhedra@@QEAA_NPEAVdgEdge@@QEBMHAEAVdgVector@@@Z 00000001800857b0 f   corelib_2009:dgPolyhedra.obj
 0001:00084830       ?Triangulate@dgPolyhedra@@QEAAXQEBMHPEAV1@@Z 0000000180085830 f   corelib_2009:dgPolyhedra.obj
 0001:00084a90       ?ConvexPartition@dgPolyhedra@@QEAAXQEBMHPEAV1@@Z 0000000180085a90 f   corelib_2009:dgPolyhedra.obj
 0001:00084b20       ??0dgStackBase@@IEAA@H@Z   0000000180085b20 f   corelib_2009:dgStack.obj
 0001:00084b40       ??1dgStackBase@@IEAA@XZ    0000000180085b40 f   corelib_2009:dgStack.obj
 0001:00084b60       ?dgGetCpuType@@YA?AW4dgCpuClass@@XZ 0000000180085b60 f   corelib_2009:dgTypes.obj
 0001:00084b90       ?GetMinMax@@YAXAEAVdgVector@@0QEBMHH@Z 0000000180085b90 f   corelib_2009:dgTypes.obj
 0001:00086020       ?dgVertexListToIndexList@@YAHQEAMHHHHQEAHM@Z 0000000180087020 f   corelib_2009:dgTypes.obj
 0001:00086220       ?ForAllSectorsSimd@dgAABBTree@@QEBAXQEBHQEBMAEBVdgVector@@2P6A?AW4dgIntersectStatus@@PEAX1H0H@Z3@Z 0000000180087220 f i corelib_2009:dgAABBPolygonSoup.obj
 0001:000864e0       ?ForAllSectors@dgAABBTree@@QEBAXQEBHQEBMAEBVdgVector@@2P6A?AW4dgIntersectStatus@@PEAX1H0H@Z3@Z 00000001800874e0 f i corelib_2009:dgAABBPolygonSoup.obj
 0001:000868b0       ?CompareBox@dgAABBTree@@CAHQEBV1@0PEAX@Z 00000001800878b0 f i corelib_2009:dgAABBPolygonSoup.obj
 0001:00086900       ??0dgAABBPolygonSoup@@IEAA@XZ 0000000180087900 f   corelib_2009:dgAABBPolygonSoup.obj
 0001:00086930       ??1dgAABBPolygonSoup@@MEAA@XZ 0000000180087930 f   corelib_2009:dgAABBPolygonSoup.obj
 0001:00086980       ?ForAllSectorsSimd@dgAABBPolygonSoup@@MEBAXAEBVdgVector@@0P6A?AW4dgIntersectStatus@@PEAXQEBMHQEBHH@ZQEAX@Z 0000000180087980 f   corelib_2009:dgAABBPolygonSoup.obj
 0001:000869c0       ?ForAllSectors@dgAABBPolygonSoup@@MEBAXAEBVdgVector@@0P6A?AW4dgIntersectStatus@@PEAXQEBMHQEBHH@ZQEAX@Z 00000001800879c0 f   corelib_2009:dgAABBPolygonSoup.obj
 0001:00086a00       ?Serialize@dgAABBPolygonSoup@@UEBAXP6AXPEAXPEBX_K@Z0@Z 0000000180087a00 f   corelib_2009:dgAABBPolygonSoup.obj
 0001:00086ad0       ?Deserialize@dgAABBPolygonSoup@@UEAAXP6AXPEAX0_K@Z0@Z 0000000180087ad0 f   corelib_2009:dgAABBPolygonSoup.obj
 0001:00086be0       ??$dgSort@VdgAABBTree@@@@YAXQEAVdgAABBTree@@HP6AHQEBV0@1PEAX@Z2@Z 0000000180087be0 f i corelib_2009:dgAABBPolygonSoup.obj
 0001:00086eb0       ?Resize@?$dgArray@VdgTriplex@@@@QEBAXH@Z 0000000180087eb0 f i corelib_2009:dgAABBPolygonSoup.obj
 0001:00086fd0       ?Resize@?$dgArray@H@@QEBAXH@Z 0000000180087fd0 f i corelib_2009:dgAABBPolygonSoup.obj
 0001:000870c0       ??_GdgPolygonSoupDatabase@@MEAAPEAXI@Z 00000001800880c0 f i corelib_2009:dgAABBPolygonSoup.obj
 0001:000870c0       ??_EdgPolygonSoupDatabase@@MEAAPEAXI@Z 00000001800880c0 f i corelib_2009:dgAABBPolygonSoup.obj
 0001:00087110       ?CalcExtends@dgAABBTree@@QEAAXQEAVdgTriplex@@HQEBH@Z 0000000180088110 f i corelib_2009:dgAABBPolygonSoup.obj
 0001:00087440       ?ForAllSectorsRayHitSimd@dgAABBTree@@QEBAXAEBVFastRayTest@@PEBHPEBMP6AMPEAXQEBMHQEBHH@ZQEAX@Z 0000000180088440 f i corelib_2009:dgAABBPolygonSoup.obj
 0001:00087800       ?ForAllSectorsRayHit@dgAABBTree@@QEBAXAEBVFastRayTest@@PEBHPEBMP6AMPEAXQEBMHQEBHH@ZQEAX@Z 0000000180088800 f i corelib_2009:dgAABBPolygonSoup.obj
 0001:00087bf0       ?ForAllSectorsSupportVertex@dgAABBTree@@QEBA?AVdgVector@@AEBV2@QEBHQEBM@Z 0000000180088bf0 f i corelib_2009:dgAABBPolygonSoup.obj
 0001:00088260       ?CalcBoxFromBoxArray@dgAABBTree@@AEAAXQEBV1@HPEAVdgTriplex@@AEAH@Z 0000000180089260 f i corelib_2009:dgAABBPolygonSoup.obj
 0001:000885f0       ?GetAxis@dgAABBTree@@AEBAHQEBV1@HQEBVdgTriplex@@@Z 00000001800895f0 f i corelib_2009:dgAABBPolygonSoup.obj
 0001:000889e0       ?SpliteBoxArray@dgAABBTree@@AEBAHQEAV1@HQEBVdgTriplex@@@Z 00000001800899e0 f i corelib_2009:dgAABBPolygonSoup.obj
 0001:00088de0       ??_GdgAABBPolygonSoup@@MEAAPEAXI@Z 0000000180089de0 f i corelib_2009:dgAABBPolygonSoup.obj
 0001:00088de0       ??_EdgAABBPolygonSoup@@MEAAPEAXI@Z 0000000180089de0 f i corelib_2009:dgAABBPolygonSoup.obj
 0001:00088e50       ?ForAllSectorsSupportVectex@dgAABBPolygonSoup@@MEBA?AVdgVector@@AEBV2@@Z 0000000180089e50 f   corelib_2009:dgAABBPolygonSoup.obj
 0001:00088ea0       ?GetAABB@dgAABBPolygonSoup@@UEBAXAEAVdgVector@@0@Z 0000000180089ea0 f   corelib_2009:dgAABBPolygonSoup.obj
 0001:00088f90       ?ForAllSectorsRayHit@dgAABBPolygonSoup@@MEBAXAEBVFastRayTest@@P6AMPEAXQEBMHQEBHH@ZQEAX@Z 0000000180089f90 f   corelib_2009:dgAABBPolygonSoup.obj
 0001:00088fc0       ?ForAllSectorsRayHitSimd@dgAABBPolygonSoup@@MEBAXAEBVFastRayTest@@P6AMPEAXQEBMHQEBHH@ZQEAX@Z 0000000180089fc0 f   corelib_2009:dgAABBPolygonSoup.obj
 0001:00088ff0       ?CollectMyFaces@dgAABBPolygonSoup@@CA?AW4dgIntersectStatus@@PEAXQEBMHQEBHH@Z 0000000180089ff0 f   corelib_2009:dgAABBPolygonSoup.obj
 0001:000893c0       ?Build@dgAABBTree@@QEAAXPEAV1@QEAV1@QEBV1@HPEBV1@AEAHQEAVdgTriplex@@4@Z 000000018008a3c0 f i corelib_2009:dgAABBPolygonSoup.obj
 0001:00089590       ?CollectAllFaces@dgAABBPolygonSoup@@CA?AW4dgIntersectStatus@@PEAXQEBMHQEBHH@Z 000000018008a590 f   corelib_2009:dgAABBPolygonSoup.obj
 0001:00089a90       ?Create@dgAABBPolygonSoup@@IEAAXAEBVdgPolygonSoupDatabaseBuilder@@@Z 000000018008aa90 f   corelib_2009:dgAABBPolygonSoup.obj
 0001:0008a0c0       ?AddFilterFace@dgPolySoupFilterAllocator@@QEAAHIQEAH@Z 000000018008b0c0 f i corelib_2009:dgPolygonSoupBuilder.obj
 0001:0008a1b0       ?Begin@dgPolygonSoupDatabaseBuilder@@QEAAXXZ 000000018008b1b0 f   corelib_2009:dgPolygonSoupBuilder.obj
 0001:0008a1c0       ??_GdgPolySoupFilterAllocator@@UEAAPEAXI@Z 000000018008b1c0 f i corelib_2009:dgPolygonSoupBuilder.obj
 0001:0008a1c0       ??_EdgPolySoupFilterAllocator@@UEAAPEAXI@Z 000000018008b1c0 f i corelib_2009:dgPolygonSoupBuilder.obj
 0001:0008a200       ??1dgPolygonSoupDatabaseBuilder@@QEAA@XZ 000000018008b200 f   corelib_2009:dgPolygonSoupBuilder.obj
 0001:0008a260       ??0dgPolygonSoupDatabaseBuilder@@QEAA@XZ 000000018008b260 f   corelib_2009:dgPolygonSoupBuilder.obj
 0001:0008a2c0       ?FilterFace@dgPolygonSoupDatabaseBuilder@@AEAAHHQEAH@Z 000000018008b2c0 f   corelib_2009:dgPolygonSoupBuilder.obj
 0001:0008ac90       ?AddConvexFace@dgPolygonSoupDatabaseBuilder@@AEAAHHQEAH0@Z 000000018008bc90 f   corelib_2009:dgPolygonSoupBuilder.obj
 0001:0008b720       ?AddMesh@dgPolygonSoupDatabaseBuilder@@QEAAXQEBMHHHQEBH11AEBVdgMatrix@@@Z 000000018008c720 f   corelib_2009:dgPolygonSoupBuilder.obj
 0001:0008ba20       ?OptimizeByGroupID@dgPolygonSoupDatabaseBuilder@@AEAAXAEAV1@HH0@Z 000000018008ca20 f   corelib_2009:dgPolygonSoupBuilder.obj
 0001:0008bff0       ?OptimizeByIndividualFaces@dgPolygonSoupDatabaseBuilder@@AEAAXXZ 000000018008cff0 f   corelib_2009:dgPolygonSoupBuilder.obj
 0001:0008c160       ?OptimizeByGroupID@dgPolygonSoupDatabaseBuilder@@AEAAXXZ 000000018008d160 f   corelib_2009:dgPolygonSoupBuilder.obj
 0001:0008ca20       ?EndAndOptimize@dgPolygonSoupDatabaseBuilder@@AEAAX_N@Z 000000018008da20 f   corelib_2009:dgPolygonSoupBuilder.obj
 0001:0008cc00       ?End@dgPolygonSoupDatabaseBuilder@@QEAAX_N@Z 000000018008dc00 f   corelib_2009:dgPolygonSoupBuilder.obj
 0001:0008e090       ?BoxTestSimd@FastRayTest@@QEBAHAEBVdgVector@@0@Z 000000018008f090 f   corelib_2009:dgIntersections.obj
 0001:0008e130       ?PolygonIntersectSimd@FastRayTest@@QEBAMAEBVdgVector@@QEBMHQEBHH@Z 000000018008f130 f   corelib_2009:dgIntersections.obj
 0001:0008e3a0       ??0FastRayTest@@QEAA@AEBVdgVector@@0@Z 000000018008f3a0 f   corelib_2009:dgIntersections.obj
 0001:0008e690       ?BoxTest@FastRayTest@@QEBAHAEBVdgVector@@0@Z 000000018008f690 f   corelib_2009:dgIntersections.obj
 0001:0008e730       ?PolygonIntersect@FastRayTest@@QEBAMAEBVdgVector@@QEBMHQEBHH@Z 000000018008f730 f   corelib_2009:dgIntersections.obj
 0001:0008e9b0       ?dgRayBoxClip@@YA_NAEAVdgVector@@0AEBV1@1@Z 000000018008f9b0 f   corelib_2009:dgIntersections.obj
 0001:0008ec80       ?dgPointToRayDistance@@YA?AVdgVector@@AEBV1@00@Z 000000018008fc80 f   corelib_2009:dgIntersections.obj
 0001:0008edb0       ?dgRayToRayDistance@@YAXAEBVdgVector@@000AEAV1@1@Z 000000018008fdb0 f   corelib_2009:dgIntersections.obj
 0001:0008f120       ?dgPointToTriangleDistance@@YA?AVdgVector@@AEBV1@000@Z 0000000180090120 f   corelib_2009:dgIntersections.obj
 0001:0008f5c0       ?dgPointToTriangleDistance@@YA?AVdgBigVector@@AEBV1@000@Z 00000001800905c0 f   corelib_2009:dgIntersections.obj
 0001:0008fae0       ??0dgQuaternion@@QEAA@AEBVdgVector@@M@Z 0000000180090ae0 f   corelib_2009:dgQuaternion.obj
 0001:0008fb50       ??0dgQuaternion@@QEAA@AEBVdgMatrix@@@Z 0000000180090b50 f   corelib_2009:dgQuaternion.obj
 0001:0008fcf8       _cfltcvt_init              0000000180090cf8 f   LIBCMT:_fpinit_.obj
 0001:0008fd80       _fpmath                    0000000180090d80 f   LIBCMT:_fpinit_.obj
 0001:0008fd88       ceilf                      0000000180090d88 f   LIBCMT:_ceilf_.obj
 0001:000900c0       sinf                       00000001800910c0 f   LIBCMT:_sincosf_.obj
 0001:00090504       cosf                       0000000180091504 f   LIBCMT:_sincosf_.obj
 0001:00090928       sqrtf                      0000000180091928 f   LIBCMT:_sqrtf_.obj
 0001:00090a04       malloc                     0000000180091a04 f   LIBCMT:malloc.obj
 0001:00090abc       free                       0000000180091abc f   LIBCMT:free.obj
 0001:00090b10       memset                     0000000180091b10 f   LIBCMT:memset.obj
 0001:00090c10       memcpy                     0000000180091c10 f   LIBCMT:memcpy.obj
 0001:00090c10       memmove                    0000000180091c10     LIBCMT:memcpy.obj
 0001:00090f44       atan2f                     0000000180091f44 f   LIBCMT:_atan2f_.obj
 0001:00091420       _CRT_INIT                  0000000180092420 f   LIBCMT:dllcrt0.obj
 0001:00091674       _DllMainCRTStartup         0000000180092674 f   LIBCMT:dllcrt0.obj
 0001:000916b4       sprintf                    00000001800926b4 f   LIBCMT:sprintf.obj
 0001:00091750       _purecall                  0000000180092750 f   LIBCMT:purevirt.obj
 0001:00091788       acosf                      0000000180092788 f   LIBCMT:_acosf_.obj
 0001:00091a28       asinf                      0000000180092a28 f   LIBCMT:_asinf_.obj
 0001:00091c88       logf                       0000000180092c88 f   LIBCMT:_logf_.obj
 0001:00091eb0       powf                       0000000180092eb0 f   LIBCMT:_powf_.obj
 0001:000923a4       __onexitinit               00000001800933a4 f   LIBCMT:onexit.obj
 0001:000923e8       _onexit                    00000001800933e8 f   LIBCMT:onexit.obj
 0001:000924f0       atexit                     00000001800934f0 f   LIBCMT:onexit.obj
 0001:00092508       _endthreadex               0000000180093508 f   LIBCMT:threadex.obj
 0001:00092618       _beginthreadex             0000000180093618 f   LIBCMT:threadex.obj
 0001:0009271c       sqrt                       000000018009371c f   LIBCMT:_sqrt_.obj
 0001:00092828       ??0_LocaleUpdate@@QEAA@PEAUlocaleinfo_struct@@@Z 0000000180093828 f i LIBCMT:cvt.obj
 0001:000928d4       _forcdecpt_l               00000001800938d4 f   LIBCMT:cvt.obj
 0001:00092954       _cropzeros_l               0000000180093954 f   LIBCMT:cvt.obj
 0001:000929f4       _positive                  00000001800939f4 f   LIBCMT:cvt.obj
 0001:00092a0c       _fassign_l                 0000000180093a0c f   LIBCMT:cvt.obj
 0001:00092a50       _fassign                   0000000180093a50 f   LIBCMT:cvt.obj
 0001:00092a58       _forcdecpt                 0000000180093a58 f   LIBCMT:cvt.obj
 0001:00092a60       _cropzeros                 0000000180093a60 f   LIBCMT:cvt.obj
 0001:00092cc0       _cftoe_l                   0000000180093cc0 f   LIBCMT:cvt.obj
 0001:00092dcc       _cftoa_l                   0000000180093dcc f   LIBCMT:cvt.obj
 0001:000933bc       _cftof_l                   00000001800943bc f   LIBCMT:cvt.obj
 0001:000934a4       _cftog_l                   00000001800944a4 f   LIBCMT:cvt.obj
 0001:000935e8       _cfltcvt_l                 00000001800945e8 f   LIBCMT:cvt.obj
 0001:00093680       _cfltcvt                   0000000180094680 f   LIBCMT:cvt.obj
 0001:000936a4       _initp_misc_cfltcvt_tab    00000001800946a4 f   LIBCMT:cmiscdat.obj
 0001:00093800       _handle_errorf             0000000180094800 f   LIBCMT:_libm_error_.obj
 0001:00093960       _handle_error              0000000180094960 f   LIBCMT:_libm_error_.obj
 0001:00093ab0       _controlfp_s               0000000180094ab0 f   LIBCMT:_contrlfp_.obj
 0001:00093b24       _amsg_exit                 0000000180094b24 f   LIBCMT:crt0dat.obj
 0001:00093b54       __crtCorExitProcess        0000000180094b54 f   LIBCMT:crt0dat.obj
 0001:00093b90       __crtExitProcess           0000000180094b90 f   LIBCMT:crt0dat.obj
 0001:00093ba8       _lockexit                  0000000180094ba8 f   LIBCMT:crt0dat.obj
 0001:00093bb4       _unlockexit                0000000180094bb4 f   LIBCMT:crt0dat.obj
 0001:00093bf4       _initterm_e                0000000180094bf4 f   LIBCMT:crt0dat.obj
 0001:00093c30       _cinit                     0000000180094c30 f   LIBCMT:crt0dat.obj
 0001:00093e6c       _exit                      0000000180094e6c f   LIBCMT:crt0dat.obj
 0001:00093e78       _cexit                     0000000180094e78 f   LIBCMT:crt0dat.obj
 0001:00093e88       _init_pointers             0000000180094e88 f   LIBCMT:crt0dat.obj
 0001:00093ef0       _NMSG_WRITE                0000000180094ef0 f   LIBCMT:crt0msg.obj
 0001:00094118       _FF_MSGBANNER              0000000180095118 f   LIBCMT:crt0msg.obj
 0001:0009415c       _heap_init                 000000018009515c f   LIBCMT:heapinit.obj
 0001:000941a8       _heap_term                 00000001800951a8 f   LIBCMT:heapinit.obj
 0001:000941c8       _get_errno_from_oserr      00000001800951c8 f   LIBCMT:dosmap.obj
 0001:00094210       _errno                     0000000180095210 f   LIBCMT:dosmap.obj
 0001:00094230       __doserrno                 0000000180095230 f   LIBCMT:dosmap.obj
 0001:00094250       _dosmaperr                 0000000180095250 f   LIBCMT:dosmap.obj
 0001:00094298       _initp_heap_handler        0000000180095298 f   LIBCMT:handler.obj
 0001:000942a0       _callnewh                  00000001800952a0 f   LIBCMT:handler.obj
 0001:000942d4       _encode_pointer            00000001800952d4 f   LIBCMT:tidtable.obj
 0001:000942dc       _encoded_null              00000001800952dc f   LIBCMT:tidtable.obj
 0001:000942e8       _decode_pointer            00000001800952e8 f   LIBCMT:tidtable.obj
 0001:000942f0       __fls_getvalue             00000001800952f0 f   LIBCMT:tidtable.obj
 0001:000942f8       __get_flsindex             00000001800952f8 f   LIBCMT:tidtable.obj
 0001:00094300       __fls_setvalue             0000000180095300 f   LIBCMT:tidtable.obj
 0001:00094308       _mtterm                    0000000180095308 f   LIBCMT:tidtable.obj
 0001:00094330       _initptd                   0000000180095330 f   LIBCMT:tidtable.obj
 0001:000943e4       _getptd_noexit             00000001800953e4 f   LIBCMT:tidtable.obj
 0001:00094468       _getptd                    0000000180095468 f   LIBCMT:tidtable.obj
 0001:0009448c       _freefls                   000000018009548c f   LIBCMT:tidtable.obj
 0001:000945c4       _freeptd                   00000001800955c4 f   LIBCMT:tidtable.obj
 0001:00094604       _mtinit                    0000000180095604 f   LIBCMT:tidtable.obj
 0001:00094688       _malloc_crt                0000000180095688 f   LIBCMT:crtheap.obj
 0001:000946f4       _calloc_crt                00000001800956f4 f   LIBCMT:crtheap.obj
 0001:00094778       _realloc_crt               0000000180095778 f   LIBCMT:crtheap.obj
 0001:00094800       _ioinit                    0000000180095800 f   LIBCMT:ioinit.obj
 0001:00094af0       _ioterm                    0000000180095af0 f   LIBCMT:ioinit.obj
 0001:00094b5c       _setenvp                   0000000180095b5c f   LIBCMT:stdenvp.obj
 0001:00094e5c       _setargv                   0000000180095e5c f   LIBCMT:stdargv.obj
 0001:00094f54       __crtGetEnvironmentStringsA 0000000180095f54 f   LIBCMT:a_env.obj
 0001:00095108       _RTC_Initialize            0000000180096108 f   LIBCMT:_initsect_.obj
 0001:00095140       _RTC_Terminate             0000000180096140 f   LIBCMT:_initsect_.obj
 0001:00095178       __C_specific_handler       0000000180096178 f   LIBCMT:chandler.obj
 0001:0009531c       _fpclear                   000000018009631c f   LIBCMT:_fpinit_.obj
 0001:0009531c       _initp_misc_winxfltr       000000018009631c f   LIBCMT:winxfltr.obj
 0001:00095320       _XcptFilter                0000000180096320 f   LIBCMT:winxfltr.obj
 0001:000954f0       __CppXcptFilter            00000001800964f0 f   LIBCMT:winxfltr.obj
 0001:00095510       __security_init_cookie     0000000180096510 f   LIBCMT:gs_support.obj
 0001:000955c4       _flsbuf                    00000001800965c4 f   LIBCMT:_flsbuf.obj
 0001:00095870       _output_l                  0000000180096870 f   LIBCMT:output.obj
 0001:00096358       _initp_misc_invarg         0000000180097358 f   LIBCMT:invarg.obj
 0001:00096360       _invoke_watson             0000000180097360 f   LIBCMT:invarg.obj
 0001:00096488       _invalid_parameter         0000000180097488 f   LIBCMT:invarg.obj
 0001:00096510       abort                      0000000180097510 f   LIBCMT:abort.obj
 0001:000965b4       _set_abort_behavior        00000001800975b4 f   LIBCMT:abort.obj
 0001:000965d0       _initp_misc_purevirt       00000001800975d0 f   LIBCMT:inithelp.obj
 0001:00096708       _exp2                      0000000180097708 f   LIBCMT:_exp2_.obj
 0001:00096a84       log2                       0000000180097a84 f   LIBCMT:_log2_.obj
 0001:00096e04       _msize                     0000000180097e04 f   LIBCMT:msize.obj
 0001:00096e50       _ValidateImageBase         0000000180097e50 f   LIBCMT:pesect.obj
 0001:00096e80       _FindPESection             0000000180097e80 f   LIBCMT:pesect.obj
 0001:00096ed0       _IsNonwritableInCurrentImage 0000000180097ed0 f   LIBCMT:pesect.obj
 0001:00096f14       strrchr                    0000000180097f14 f   LIBCMT:strrchr.obj
 0001:000971b4       __updatetmbcinfo           00000001800981b4 f   LIBCMT:mbctype.obj
 0001:00097300       _setmbcp_nolock            0000000180098300 f   LIBCMT:mbctype.obj
 0001:00097578       _setmbcp                   0000000180098578 f   LIBCMT:mbctype.obj
 0001:00097770       __initmbctable             0000000180098770 f   LIBCMT:mbctype.obj
 0001:00097798       __freetlocinfo             0000000180098798 f   LIBCMT:setlocal.obj
 0001:00097914       __addlocaleref             0000000180098914 f   LIBCMT:setlocal.obj
 0001:000979ac       __removelocaleref          00000001800989ac f   LIBCMT:setlocal.obj
 0001:00097aac       __updatetlocinfo           0000000180098aac f   LIBCMT:setlocal.obj
 0001:00097b24       isdigit                    0000000180098b24 f i LIBCMT:_ctype.obj
 0001:00097ba4       _tolower_l                 0000000180098ba4 f   LIBCMT:tolower.obj
 0001:00097d14       tolower                    0000000180098d14 f   LIBCMT:tolower.obj
 0001:00097d3c       _atodbl_l                  0000000180098d3c f   LIBCMT:atodbl.obj
 0001:00097e40       _atoflt_l                  0000000180098e40 f   LIBCMT:atodbl.obj
 0001:00097f60       strlen                     0000000180098f60 f   LIBCMT:strlen.obj
 0001:00098008       strcpy_s                   0000000180099008 f   LIBCMT:strcpy_s.obj
 0001:0009807c       __GSHandlerCheckCommon     000000018009907c f   LIBCMT:gshandler.obj
 0001:000980e0       __GSHandlerCheck           00000001800990e0 f   LIBCMT:gshandler.obj
 0001:00098100       _fptostr                   0000000180099100 f   LIBCMT:_fptostr.obj
 0001:000981dc       __dtold                    00000001800991dc f   LIBCMT:_cfout_.obj
 0001:000982b4       _fltout2                   00000001800992b4 f   LIBCMT:_cfout_.obj
 0001:00098390       __security_check_cookie    0000000180099390 f   LIBCMT:amdsecgs.obj
 0001:000983b0       _fptrap                    00000001800993b0 f   LIBCMT:crt0fp.obj
 0001:000983bc       _raise_exc_ex              00000001800993bc f   LIBCMT:_fpexcept_.obj
 0001:000986f8       _raise_exc                 00000001800996f8 f   LIBCMT:_fpexcept_.obj
 0001:00098720       _raise_excf                0000000180099720 f   LIBCMT:_fpexcept_.obj
 0001:0009874c       _set_errno_from_matherr    000000018009974c f   LIBCMT:_fpexcept_.obj
 0001:0009877c       _matherr                   000000018009977c f   LIBCMT:_matherr_.obj
 0001:0009877c       __set_flsgetvalue          000000018009977c f   LIBCMT:tidtable.obj
 0001:00098780       _statfp                    0000000180099780 f   LIBCMT:_fpctrl_.obj
 0001:00098794       _clrfp                     0000000180099794 f   LIBCMT:_fpctrl_.obj
 0001:000987b4       _ctrlfp                    00000001800997b4 f   LIBCMT:_fpctrl_.obj
 0001:00098830       _set_statfp                0000000180099830 f   LIBCMT:_fpctrl_.obj
 0001:00098850       _control87                 0000000180099850 f i LIBCMT:_ieee_.obj
 0001:00098aec       _mtinitlocks               0000000180099aec f   LIBCMT:mlock.obj
 0001:00098b78       _mtdeletelocks             0000000180099b78 f   LIBCMT:mlock.obj
 0001:00098bfc       _unlock                    0000000180099bfc f   LIBCMT:mlock.obj
 0001:00098c14       _mtinitlocknum             0000000180099c14 f   LIBCMT:mlock.obj
 0001:00098cfc       _lock                      0000000180099cfc f   LIBCMT:mlock.obj
 0001:00098d40       ?terminate@@YAXXZ          0000000180099d40 f   LIBCMT:hooks.obj
 0001:00098d64       _initp_eh_hooks            0000000180099d64 f   LIBCMT:hooks.obj
 0001:00098d80       _initp_misc_winsig         0000000180099d80 f   LIBCMT:winsig.obj
 0001:00098da0       __get_sigabrt              0000000180099da0 f   LIBCMT:winsig.obj
 0001:00098dac       raise                      0000000180099dac f   LIBCMT:winsig.obj
 0001:00099020       _initp_misc_rand_s         000000018009a020 f   LIBCMT:rand_s.obj
 0001:00099028       _initp_misc_initcrit       000000018009a028 f   LIBCMT:initcrit.obj
 0001:00099030       __crtInitCritSecAndSpinCount 000000018009a030 f   LIBCMT:initcrit.obj
 0001:00099060       __crtMessageBoxA           000000018009a060 f   LIBCMT:crtmbox.obj
 0001:00099254       strcat_s                   000000018009a254 f   LIBCMT:strcat_s.obj
 0001:000992e0       strncpy_s                  000000018009a2e0 f   LIBCMT:strncpy_s.obj
 0001:000993b8       _set_error_mode            000000018009a3b8 f   LIBCMT:errmode.obj
 0001:00099408       _calloc_impl               000000018009a408 f   LIBCMT:calloc_impl.obj
 0001:000994b8       realloc                    000000018009a4b8 f   LIBCMT:realloc.obj
 0001:00099608       _ismbblead                 000000018009a608 f   LIBCMT:ismbbyte.obj
 0001:00099630       _local_unwind              000000018009a630 f   LIBCMT:jmpuwind.obj
 0001:00099660       _NLG_Notify                000000018009a660 f   LIBCMT:jmpuwind.obj
 0001:00099680       __NLG_Dispatch2            000000018009a680 f   LIBCMT:jmpuwind.obj
 0001:00099690       __NLG_Return2              000000018009a690 f   LIBCMT:jmpuwind.obj
 0001:00099694       _lseeki64_nolock           000000018009a694 f   LIBCMT:lseeki64.obj
 0001:0009972c       _lseeki64                  000000018009a72c f   LIBCMT:lseeki64.obj
 0001:00099864       _write_nolock              000000018009a864 f   LIBCMT:write.obj
 0001:00099fc4       _write                     000000018009afc4 f   LIBCMT:write.obj
 0001:0009a0f8       _getbuf                    000000018009b0f8 f   LIBCMT:_getbuf.obj
 0001:0009a14c       _isatty                    000000018009b14c f   LIBCMT:isatty.obj
 0001:0009a1bc       __iob_func                 000000018009b1bc f   LIBCMT:_file.obj
 0001:0009a1c4       __initstdio                000000018009b1c4 f   LIBCMT:_file.obj
 0001:0009a2a8       __endstdio                 000000018009b2a8 f   LIBCMT:_file.obj
 0001:0009a2d0       _lock_file                 000000018009b2d0 f   LIBCMT:_file.obj
 0001:0009a330       _lock_file2                000000018009b330 f   LIBCMT:_file.obj
 0001:0009a360       _unlock_file               000000018009b360 f   LIBCMT:_file.obj
 0001:0009a3b8       _unlock_file2              000000018009b3b8 f   LIBCMT:_file.obj
 0001:0009a3e0       _fileno                    000000018009b3e0 f   LIBCMT:fileno.obj
 0001:0009a418       _isleadbyte_l              000000018009b418 f i LIBCMT:_wctype.obj
 0001:0009a460       isleadbyte                 000000018009b460 f i LIBCMT:_wctype.obj
 0001:0009a4a8       _get_printf_count_output   000000018009b4a8 f   LIBCMT:printf.obj
 0001:0009a4c0       _wctomb_s_l                000000018009b4c0 f   LIBCMT:wctomb.obj
 0001:0009a6d0       wctomb_s                   000000018009b6d0 f   LIBCMT:wctomb.obj
 0001:0009a6e4       __crt_debugger_hook        000000018009b6e4 f   LIBCMT:dbghook.obj
 0001:0009ac2c       __crtLCMapStringA          000000018009bc2c f   LIBCMT:a_map.obj
 0001:0009af30       __crtGetStringTypeA        000000018009bf30 f   LIBCMT:a_str.obj
 0001:0009afbc       __free_lc_time             000000018009bfbc f   LIBCMT:inittime.obj
 0001:0009b1a8       __free_lconv_num           000000018009c1a8 f   LIBCMT:initnum.obj
 0001:0009b1f0       __free_lconv_mon           000000018009c1f0 f   LIBCMT:initmon.obj
 0001:0009b2a0       strcmp                     000000018009c2a0 f   LIBCMT:strcmp.obj
 0001:0009b360       memcmp                     000000018009c360 f   LIBCMT:memcmp.obj
 0001:0009b440       strncmp                    000000018009c440 f   LIBCMT:strncmp.obj
 0001:0009b4f8       _isctype_l                 000000018009c4f8 f   LIBCMT:isctype.obj
 0001:0009b604       _ld12tod                   000000018009c604 f   LIBCMT:_intrncvt_.obj
 0001:0009bc08       _ld12tof                   000000018009cc08 f   LIBCMT:_intrncvt_.obj
 0001:0009c20c       __strgtold12_l             000000018009d20c f   LIBCMT:_strgtold_.obj
 0001:0009cb08       $I10_OUTPUT                000000018009db08 f   LIBCMT:_x10fout_.obj
 0001:0009d670       __report_gsfailure         000000018009e670 f   LIBCMT:gs_report.obj
 0001:0009d7c0       _set_fpsr                  000000018009e7c0 f   LIBCMT:_fpsr_.obj
 0001:0009d7ca       _fclrf                     000000018009e7ca f   LIBCMT:_fpsr_.obj
 0001:0009d7e0       _free_osfhnd               000000018009e7e0 f   LIBCMT:osfinfo.obj
 0001:0009d88c       _get_osfhandle             000000018009e88c f   LIBCMT:osfinfo.obj
 0001:0009d910       __lock_fhandle             000000018009e910 f   LIBCMT:osfinfo.obj
 0001:0009d9b8       _unlock_fhandle            000000018009e9b8 f   LIBCMT:osfinfo.obj
 0001:0009d9e0       _putwch_nolock             000000018009e9e0 f   LIBCMT:putwch.obj
 0001:0009daf4       _mbtowc_l                  000000018009eaf4 f   LIBCMT:mbtowc.obj
 0001:0009dc68       mbtowc                     000000018009ec68 f   LIBCMT:mbtowc.obj
 0001:0009dc70       _fcloseall                 000000018009ec70 f   LIBCMT:closeall.obj
 0001:0009dd20       _flush                     000000018009ed20 f   LIBCMT:fflush.obj
 0001:0009dd9c       _fflush_nolock             000000018009ed9c f   LIBCMT:fflush.obj
 0001:0009ded8       _flushall                  000000018009eed8 f   LIBCMT:fflush.obj
 0001:0009e168       strtol                     000000018009f168 f   LIBCMT:strtol.obj
 0001:0009e198       __ansicp                   000000018009f198 f   LIBCMT:convrtcp.obj
 0001:0009e1ec       __convertcp                000000018009f1ec f   LIBCMT:convrtcp.obj
 0001:0009e474       atol                       000000018009f474 f   LIBCMT:atox.obj
 0001:0009e480       __mtold12                  000000018009f480 f   LIBCMT:_mantold_.obj
 0001:0009e6a0       __initconout               000000018009f6a0 f   LIBCMT:initcon.obj
 0001:0009e6dc       __termcon                  000000018009f6dc f   LIBCMT:initcon.obj
 0001:0009e718       _fclose_nolock             000000018009f718 f   LIBCMT:fclose.obj
 0001:0009e7a4       fclose                     000000018009f7a4 f   LIBCMT:fclose.obj
 0001:0009e81c       _commit                    000000018009f81c f   LIBCMT:commit.obj
 0001:0009e930       _close_nolock              000000018009f930 f   LIBCMT:close.obj
 0001:0009e9ec       _close                     000000018009f9ec f   LIBCMT:close.obj
 0001:0009eb04       _freebuf                   000000018009fb04 f   LIBCMT:_freebuf.obj
 0001:0009eb3c       RtlUnwindEx                000000018009fb3c f   kernel32:KERNEL32.dll
 0001:0009eb42       RtlVirtualUnwind           000000018009fb42 f   kernel32:KERNEL32.dll
 0001:0009eb48       RtlLookupFunctionEntry     000000018009fb48 f   kernel32:KERNEL32.dll
 0001:0009eb50       _frnd                      000000018009fb50 f   LIBCMT:_fpsr_.obj
 0001:0009eb80       _alloca_probe              000000018009fb80     LIBCMT:chkstk.obj
 0001:0009eb80       __chkstk                   000000018009fb80 f   LIBCMT:chkstk.obj
 0001:0009ebe0       _get_fpsr                  000000018009fbe0 f   LIBCMT:_fpsr_.obj
 0002:00000000       __imp_Sleep                00000001800a0000     kernel32:KERNEL32.dll
 0002:00000008       __imp_GetSystemInfo        00000001800a0008     kernel32:KERNEL32.dll
 0002:00000010       __imp_CloseHandle          00000001800a0010     kernel32:KERNEL32.dll
 0002:00000018       __imp_WaitForMultipleObjects 00000001800a0018     kernel32:KERNEL32.dll
 0002:00000020       __imp_DeleteCriticalSection 00000001800a0020     kernel32:KERNEL32.dll
 0002:00000028       __imp_SetEvent             00000001800a0028     kernel32:KERNEL32.dll
 0002:00000030       __imp_LeaveCriticalSection 00000001800a0030     kernel32:KERNEL32.dll
 0002:00000038       __imp_ReleaseSemaphore     00000001800a0038     kernel32:KERNEL32.dll
 0002:00000040       __imp_EnterCriticalSection 00000001800a0040     kernel32:KERNEL32.dll
 0002:00000048       __imp_WaitForSingleObject  00000001800a0048     kernel32:KERNEL32.dll
 0002:00000050       __imp_InitializeCriticalSection 00000001800a0050     kernel32:KERNEL32.dll
 0002:00000058       __imp_CreateEventA         00000001800a0058     kernel32:KERNEL32.dll
 0002:00000060       __imp_CreateSemaphoreA     00000001800a0060     kernel32:KERNEL32.dll
 0002:00000068       __imp_HeapAlloc            00000001800a0068     kernel32:KERNEL32.dll
 0002:00000070       __imp_GetLastError         00000001800a0070     kernel32:KERNEL32.dll
 0002:00000078       __imp_HeapFree             00000001800a0078     kernel32:KERNEL32.dll
 0002:00000080       __imp_GetCurrentThreadId   00000001800a0080     kernel32:KERNEL32.dll
 0002:00000088       __imp_FlsSetValue          00000001800a0088     kernel32:KERNEL32.dll
 0002:00000090       __imp_GetCommandLineA      00000001800a0090     kernel32:KERNEL32.dll
 0002:00000098       __imp_ExitThread           00000001800a0098     kernel32:KERNEL32.dll
 0002:000000a0       __imp_CreateThread         00000001800a00a0     kernel32:KERNEL32.dll
 0002:000000a8       __imp_GetModuleHandleW     00000001800a00a8     kernel32:KERNEL32.dll
 0002:000000b0       __imp_GetProcAddress       00000001800a00b0     kernel32:KERNEL32.dll
 0002:000000b8       __imp_ExitProcess          00000001800a00b8     kernel32:KERNEL32.dll
 0002:000000c0       __imp_WriteFile            00000001800a00c0     kernel32:KERNEL32.dll
 0002:000000c8       __imp_GetStdHandle         00000001800a00c8     kernel32:KERNEL32.dll
 0002:000000d0       __imp_GetModuleFileNameA   00000001800a00d0     kernel32:KERNEL32.dll
 0002:000000d8       __imp_HeapSetInformation   00000001800a00d8     kernel32:KERNEL32.dll
 0002:000000e0       __imp_HeapCreate           00000001800a00e0     kernel32:KERNEL32.dll
 0002:000000e8       __imp_HeapDestroy          00000001800a00e8     kernel32:KERNEL32.dll
 0002:000000f0       __imp_EncodePointer        00000001800a00f0     kernel32:KERNEL32.dll
 0002:000000f8       __imp_DecodePointer        00000001800a00f8     kernel32:KERNEL32.dll
 0002:00000100       __imp_FlsGetValue          00000001800a0100     kernel32:KERNEL32.dll
 0002:00000108       __imp_FlsFree              00000001800a0108     kernel32:KERNEL32.dll
 0002:00000110       __imp_SetLastError         00000001800a0110     kernel32:KERNEL32.dll
 0002:00000118       __imp_FlsAlloc             00000001800a0118     kernel32:KERNEL32.dll
 0002:00000120       __imp_SetHandleCount       00000001800a0120     kernel32:KERNEL32.dll
 0002:00000128       __imp_GetFileType          00000001800a0128     kernel32:KERNEL32.dll
 0002:00000130       __imp_GetStartupInfoA      00000001800a0130     kernel32:KERNEL32.dll
 0002:00000138       __imp_FreeEnvironmentStringsA 00000001800a0138     kernel32:KERNEL32.dll
 0002:00000140       __imp_GetEnvironmentStrings 00000001800a0140     kernel32:KERNEL32.dll
 0002:00000148       __imp_FreeEnvironmentStringsW 00000001800a0148     kernel32:KERNEL32.dll
 0002:00000150       __imp_WideCharToMultiByte  00000001800a0150     kernel32:KERNEL32.dll
 0002:00000158       __imp_GetEnvironmentStringsW 00000001800a0158     kernel32:KERNEL32.dll
 0002:00000160       __imp_RtlUnwindEx          00000001800a0160     kernel32:KERNEL32.dll
 0002:00000168       __imp_QueryPerformanceCounter 00000001800a0168     kernel32:KERNEL32.dll
 0002:00000170       __imp_GetTickCount         00000001800a0170     kernel32:KERNEL32.dll
 0002:00000178       __imp_GetCurrentProcessId  00000001800a0178     kernel32:KERNEL32.dll
 0002:00000180       __imp_GetSystemTimeAsFileTime 00000001800a0180     kernel32:KERNEL32.dll
 0002:00000188       __imp_TerminateProcess     00000001800a0188     kernel32:KERNEL32.dll
 0002:00000190       __imp_GetCurrentProcess    00000001800a0190     kernel32:KERNEL32.dll
 0002:00000198       __imp_UnhandledExceptionFilter 00000001800a0198     kernel32:KERNEL32.dll
 0002:000001a0       __imp_SetUnhandledExceptionFilter 00000001800a01a0     kernel32:KERNEL32.dll
 0002:000001a8       __imp_IsDebuggerPresent    00000001800a01a8     kernel32:KERNEL32.dll
 0002:000001b0       __imp_RtlVirtualUnwind     00000001800a01b0     kernel32:KERNEL32.dll
 0002:000001b8       __imp_RtlLookupFunctionEntry 00000001800a01b8     kernel32:KERNEL32.dll
 0002:000001c0       __imp_RtlCaptureContext    00000001800a01c0     kernel32:KERNEL32.dll
 0002:000001c8       __imp_HeapSize             00000001800a01c8     kernel32:KERNEL32.dll
 0002:000001d0       __imp_GetCPInfo            00000001800a01d0     kernel32:KERNEL32.dll
 0002:000001d8       __imp_GetACP               00000001800a01d8     kernel32:KERNEL32.dll
 0002:000001e0       __imp_GetOEMCP             00000001800a01e0     kernel32:KERNEL32.dll
 0002:000001e8       __imp_IsValidCodePage      00000001800a01e8     kernel32:KERNEL32.dll
 0002:000001f0       __imp_RaiseException       00000001800a01f0     kernel32:KERNEL32.dll
 0002:000001f8       __imp_LoadLibraryA         00000001800a01f8     kernel32:KERNEL32.dll
 0002:00000200       __imp_InitializeCriticalSectionAndSpinCount 00000001800a0200     kernel32:KERNEL32.dll
 0002:00000208       __imp_HeapReAlloc          00000001800a0208     kernel32:KERNEL32.dll
 0002:00000210       __imp_SetFilePointer       00000001800a0210     kernel32:KERNEL32.dll
 0002:00000218       __imp_GetConsoleCP         00000001800a0218     kernel32:KERNEL32.dll
 0002:00000220       __imp_GetConsoleMode       00000001800a0220     kernel32:KERNEL32.dll
 0002:00000228       __imp_GetLocaleInfoA       00000001800a0228     kernel32:KERNEL32.dll
 0002:00000230       __imp_LCMapStringA         00000001800a0230     kernel32:KERNEL32.dll
 0002:00000238       __imp_MultiByteToWideChar  00000001800a0238     kernel32:KERNEL32.dll
 0002:00000240       __imp_LCMapStringW         00000001800a0240     kernel32:KERNEL32.dll
 0002:00000248       __imp_GetStringTypeA       00000001800a0248     kernel32:KERNEL32.dll
 0002:00000250       __imp_GetStringTypeW       00000001800a0250     kernel32:KERNEL32.dll
 0002:00000258       __imp_SetStdHandle         00000001800a0258     kernel32:KERNEL32.dll
 0002:00000260       __imp_WriteConsoleA        00000001800a0260     kernel32:KERNEL32.dll
 0002:00000268       __imp_GetConsoleOutputCP   00000001800a0268     kernel32:KERNEL32.dll
 0002:00000270       __imp_WriteConsoleW        00000001800a0270     kernel32:KERNEL32.dll
 0002:00000278       __imp_CreateFileA          00000001800a0278     kernel32:KERNEL32.dll
 0002:00000280       __imp_FlushFileBuffers     00000001800a0280     kernel32:KERNEL32.dll
 0002:00000288       \177KERNEL32_NULL_THUNK_DATA 00000001800a0288     kernel32:KERNEL32.dll
 0002:00000290       __xc_a                     00000001800a0290     LIBCMT:crt0init.obj
 0002:000002a0       __xc_z                     00000001800a02a0     LIBCMT:crt0init.obj
 0002:000002a8       __xi_a                     00000001800a02a8     LIBCMT:crt0init.obj
 0002:000002c8       __xi_z                     00000001800a02c8     LIBCMT:crt0init.obj
 0002:000002d0       __xp_a                     00000001800a02d0     LIBCMT:crt0init.obj
 0002:000002e8       __xp_z                     00000001800a02e8     LIBCMT:crt0init.obj
 0002:000002f0       __xt_a                     00000001800a02f0     LIBCMT:crt0init.obj
 0002:000002f8       __xt_z                     00000001800a02f8     LIBCMT:crt0init.obj
 0002:00000320       ??_C@_0IE@IMGBDMJL@Newton?5Game?5Dynamics?5is?5the?5prop@ 00000001800a0320     Newton.obj
 0002:000003b0       __mask@@AbsDouble@         00000001800a03b0     Newton.obj
 0002:000003c0       __real@3727c5ac            00000001800a03c0     Newton.obj
 0002:000003d0       __mask@@NegFloat@          00000001800a03d0     Newton.obj
 0002:000003e0       __real@3f800000            00000001800a03e0     Newton.obj
 0002:000003e4       __real@3ca3d70a            00000001800a03e4     Newton.obj
 0002:000003e8       __real@2edbe6ff            00000001800a03e8     Newton.obj
 0002:000003ec       __real@3c888889            00000001800a03ec     Newton.obj
 0002:000003f0       __real@3a83126f            00000001800a03f0     Newton.obj
 0002:000003f4       __real@4479ffff            00000001800a03f4     Newton.obj
 0002:000003f8       __real@426fffff            00000001800a03f8     Newton.obj
 0002:000003fc       __real@3e000000            00000001800a03fc     Newton.obj
 0002:00000400       __real@40000000            00000001800a0400     Newton.obj
 0002:00000404       __real@3c23d70a            00000001800a0404     Newton.obj
 0002:00000408       __real@3f333333            00000001800a0408     Newton.obj
 0002:0000040c       __real@58aa87bf            00000001800a040c     Newton.obj
 0002:00000410       __real@42c80000            00000001800a0410     Newton.obj
 0002:00000414       __real@57e35fa9            00000001800a0414     Newton.obj
 0002:00000418       __real@322bcc77            00000001800a0418     Newton.obj
 0002:0000041c       __real@3f13b646            00000001800a041c     Newton.obj
 0002:00000420       __real@3f7fbe77            00000001800a0420     Newton.obj
 0002:00000424       __real@38d1b717            00000001800a0424     Newton.obj
 0002:00000428       __real@bf800000            00000001800a0428     Newton.obj
 0002:0000042c       __real@358637bd            00000001800a042c     Newton.obj
 0002:00000430       __real@c2c80000            00000001800a0430     Newton.obj
 0002:00000434       __real@3d4ccccd            00000001800a0434     NewtonAproximateConvexPartition.obj
 0002:00000440       ??_7NewtonUserJoint@@6B@   00000001800a0440     NewtonClass.obj
 0002:000004a0       __real@58635fa9            00000001800a04a0     NewtonClass.obj
 0002:000004a4       __real@ba83126f            00000001800a04a4     NewtonClass.obj
 0002:000004a8       __real@d8635fa9            00000001800a04a8     NewtonClass.obj
 0002:000004ac       __real@42c60000            00000001800a04ac     NewtonClass.obj
 0002:000004b0       ??_7NewtonMeshEffect@@6B@  00000001800a04b0     NewtonMeshEffect.obj
 0002:000004b8       __real@3f19999a            00000001800a04b8     NewtonMeshEffect.obj
 0002:000004bc       __real@3f000000            00000001800a04bc     NewtonMeshEffect.obj
 0002:000004c0       __real@3e22f986            00000001800a04c0     NewtonMeshEffect.obj
 0002:000004c4       __real@3fc90fd8            00000001800a04c4     NewtonMeshEffect.obj
 0002:000004c8       __real@40c90fd8            00000001800a04c8     NewtonMeshEffect.obj
 0002:000004cc       __real@3f7ff972            00000001800a04cc     NewtonMeshEffect.obj
 0002:000004d0       __real@bf7ff972            00000001800a04d0     NewtonMeshEffect.obj
 0002:000004d4       __real@3f7d70a4            00000001800a04d4     NewtonMeshEffect.obj
 0002:000004d8       __real@d01502f9            00000001800a04d8     NewtonMeshEffect.obj
 0002:000004dc       __real@501502f9            00000001800a04dc     NewtonMeshEffect.obj
 0002:000004e0       __real@24e69595            00000001800a04e0     NewtonMeshEffect.obj
 0002:000004e4       __real@b727c5ac            00000001800a04e4     NewtonMeshEffect.obj
 0002:000004e8       ??_C@_0P@GHFPNOJB@bad?5allocation?$AA@ 00000001800a04e8     NewtonStdAfx.obj
 0002:00000510       ??_7dgCollisionPoint@@6B@  00000001800a0510     physics_2009:dgWorld.obj
 0002:000005f8       ??_C@_04IABPNMKE@simd?$AA@ 00000001800a05f8     physics_2009:dgWorld.obj
 0002:00000600       ??_C@_03MKEPLMIM@x87?$AA@  00000001800a0600     physics_2009:dgWorld.obj
 0002:00000608       ??_7dgWorkerThread@@6B@    00000001800a0608     physics_2009:dgWorld.obj
 0002:00000618       ??_7dgSetTrreadRoundMode@dgWorld@@6B@ 00000001800a0618     physics_2009:dgWorld.obj
 0002:00000628       ??_7dgSolverWorlkerThreads@@6B@ 00000001800a0628     physics_2009:dgWorld.obj
 0002:00000638       ??_7dgParallelSolverClear@@6B@ 00000001800a0638     physics_2009:dgWorld.obj
 0002:00000648       ??_7dgParallelSolverBodyInertia@@6B@ 00000001800a0648     physics_2009:dgWorld.obj
 0002:00000658       ??_7dgParallelSolverUpdateVeloc@@6B@ 00000001800a0658     physics_2009:dgWorld.obj
 0002:00000668       ??_7dgParallelSolverUpdateForce@@6B@ 00000001800a0668     physics_2009:dgWorld.obj
 0002:00000678       ??_7dgParallelSolverCalculateForces@@6B@ 00000001800a0678     physics_2009:dgWorld.obj
 0002:00000688       ??_7dgParallelSolverInitInternalForces@@6B@ 00000001800a0688     physics_2009:dgWorld.obj
 0002:00000698       ??_7dgParallelSolverBuildJacobianRows@@6B@ 00000001800a0698     physics_2009:dgWorld.obj
 0002:000006a8       ??_7dgParallelSolverJointAcceleration@@6B@ 00000001800a06a8     physics_2009:dgWorld.obj
 0002:000006b8       ??_7dgParallelSolverInitFeedbackUpdate@@6B@ 00000001800a06b8     physics_2009:dgWorld.obj
 0002:000006c8       ??_7dgParallelSolverBuildJacobianMatrix@@6B@ 00000001800a06c8     physics_2009:dgWorld.obj
 0002:000006d8       __real@58e35fa9            00000001800a06d8     physics_2009:dgWorld.obj
 0002:000006e0       __mask@@AbsFloat@          00000001800a06e0     physics_2009:dgWorldDynamicUpdate.obj
 0002:000006f0       __real@42700000            00000001800a06f0     physics_2009:dgWorldDynamicUpdate.obj
 0002:000006f4       __real@3f666666            00000001800a06f4     physics_2009:dgWorldDynamicUpdate.obj
 0002:000006f8       __real@233877aa            00000001800a06f8     physics_2009:dgWorldDynamicUpdate.obj
 0002:00000710       __real@40800000            00000001800a0710     physics_2009:dgWorldDynamicUpdate.obj
 0002:00000714       __real@a4e69595            00000001800a0714     physics_2009:dgWorldDynamicUpdate.obj
 0002:00000718       __real@3e800000            00000001800a0718     physics_2009:dgWorldDynamicUpdate.obj
 0002:0000071c       __real@c0800000            00000001800a071c     physics_2009:dgWorldDynamicUpdate.obj
 0002:00000720       __real@358637be            00000001800a0720     physics_2009:dgNarrowPhaseCollision.obj
 0002:00000724       __real@3f7fdf3b            00000001800a0724     physics_2009:dgNarrowPhaseCollision.obj
 0002:00000728       __real@60ad78ec            00000001800a0728     physics_2009:dgNarrowPhaseCollision.obj
 0002:00000730       ??_7dgCollisionMesh@@6B@   00000001800a0730     physics_2009:dgCollisionMesh.obj
 0002:00000810       __real@179abe15            00000001800a0810     physics_2009:dgCollisionMesh.obj
 0002:00000814       __real@3e31c433            00000001800a0814     physics_2009:dgCollisionMesh.obj
 0002:00000820       ??_7dgCollisionConvexPolygon@dgCollisionMesh@@6B@ 00000001800a0820     physics_2009:dgCollisionMesh.obj
 0002:00000908       __real@3dcccccd            00000001800a0908     physics_2009:dgCollisionMesh.obj
 0002:0000090c       __real@3b23d70b            00000001800a090c     physics_2009:dgCollisionMesh.obj
 0002:00000910       __real@3f7ff2e5            00000001800a0910     physics_2009:dgCollisionMesh.obj
 0002:00000914       __real@c0000000            00000001800a0914     physics_2009:dgCollisionMesh.obj
 0002:00000918       __real@bdcccccd            00000001800a0918     physics_2009:dgCollisionMesh.obj
 0002:0000091c       __real@3c000000            00000001800a091c     physics_2009:dgCollisionMesh.obj
 0002:00000920       __real@bb800000            00000001800a0920     physics_2009:dgCollisionMesh.obj
 0002:00000930       ??_7dgCollisionBVH@@6BdgCollisionMesh@@@ 00000001800a0930     physics_2009:dgCollisionBVH.obj
 0002:00000a10       ??_7dgCollisionBVH@@6BdgAABBPolygonSoup@@@ 00000001800a0a10     physics_2009:dgCollisionBVH.obj
 0002:00000a58       __real@3f800347            00000001800a0a58     physics_2009:dgCollisionBVH.obj
 0002:00000a5c       __real@3f99999a            00000001800a0a5c     physics_2009:dgCollisionBVH.obj
 0002:00000a60       __real@e0ad78ec            00000001800a0a60     physics_2009:dgCollisionBVH.obj
 0002:00000a64       __real@42800000            00000001800a0a64     physics_2009:dgCollisionScene.obj
 0002:00000a70       ??_7dgCollisionScene@@6B@  00000001800a0a70     physics_2009:dgCollisionScene.obj
 0002:00000b3c       __real@447a0000            00000001800a0b3c     physics_2009:dgBody.obj
 0002:00000b40       __real@41200000            00000001800a0b40     physics_2009:dgBody.obj
 0002:00000b44       __real@3fcccccd            00000001800a0b44     physics_2009:dgBody.obj
 0002:00000b48       __real@3c4ccccd            00000001800a0b48     physics_2009:dgBody.obj
 0002:00000b4c       __real@3f4ccccd            00000001800a0b4c     physics_2009:dgBody.obj
 0002:00000b50       __real@44fd2000            00000001800a0b50     physics_2009:dgBody.obj
 0002:00000b60       ??_7dgBallConstraint@@6B@  00000001800a0b60     physics_2009:dgBallConstraint.obj
 0002:00000bc0       __real@432f0000            00000001800a0bc0     physics_2009:dgBallConstraint.obj
 0002:00000bc4       __real@42b40000            00000001800a0bc4     physics_2009:dgBallConstraint.obj
 0002:00000bc8       __real@40a00000            00000001800a0bc8     physics_2009:dgBallConstraint.obj
 0002:00000bcc       __real@3f8ccccd            00000001800a0bcc     physics_2009:dgBallConstraint.obj
 0002:00000bd0       __real@41800000            00000001800a0bd0     physics_2009:dgBallConstraint.obj
 0002:00000bd4       __real@bfc90fd0            00000001800a0bd4     physics_2009:dgBallConstraint.obj
 0002:00000bd8       __real@3fc90fd0            00000001800a0bd8     physics_2009:dgBallConstraint.obj
 0002:00000be0       ??_7dgHingeConstraint@@6B@ 00000001800a0be0     physics_2009:dgHingeConstraint.obj
 0002:00000c40       __real@3f8147ae            00000001800a0c40     physics_2009:dgHingeConstraint.obj
 0002:00000c50       ??_7dgSlidingConstraint@@6B@ 00000001800a0c50     physics_2009:dgSlidingConstraint.obj
 0002:00000cb0       ??_7dgCorkscrewConstraint@@6B@ 00000001800a0cb0     physics_2009:dgCorkscrewConstraint.obj
 0002:00000d10       ??_7dgUniversalConstraint@@6B@ 00000001800a0d10     physics_2009:dgUniversalConstraint.obj
 0002:00000d70       ??_7dgUpVectorConstraint@@6B@ 00000001800a0d70     physics_2009:dgUpVectorConstraint.obj
 0002:00000dd0       __real@3f7eb852            00000001800a0dd0     physics_2009:dgUpVectorConstraint.obj
 0002:00000de0       ??_7dgCollisionConvexHull@@6B@ 00000001800a0de0     physics_2009:dgCollisionConvexHull.obj
 0002:00000ed0       __real@c202a05f20000000    00000001800a0ed0     physics_2009:dgCollisionConvexHull.obj
 0002:00000ed8       __real@3f7ffcb9            00000001800a0ed8     physics_2009:dgCollisionConvexHull.obj
 0002:00000edc       __real@b58637bd            00000001800a0edc     physics_2009:dgCollisionConvexHull.obj
 0002:00000ee0       __real@3a000000            00000001800a0ee0     physics_2009:dgCollisionConvexHull.obj
 0002:00000ee4       __real@45000000            00000001800a0ee4     physics_2009:dgCollisionConvexHull.obj
 0002:00000ee8       __real@43000000            00000001800a0ee8     physics_2009:dgCollisionConvexHull.obj
 0002:00000eec       __real@3f7ae148            00000001800a0eec     physics_2009:dgCollisionConvexHull.obj
 0002:00000ef0       ??_7dgBroadPhaseApplyExternalForce@@6B@ 00000001800a0ef0     physics_2009:dgBroadPhaseCollision.obj
 0002:00000f00       ??_7dgBroadPhaseCellPairsWorkerThread@@6B@ 00000001800a0f00     physics_2009:dgBroadPhaseCollision.obj
 0002:00000f10       ??_7dgBroadPhaseMaterialCallbackWorkerThread@@6B@ 00000001800a0f10     physics_2009:dgBroadPhaseCollision.obj
 0002:00000f20       ??_7dgBroadPhaseCalculateContactsWorkerThread@@6B@ 00000001800a0f20     physics_2009:dgBroadPhaseCollision.obj
 0002:00000f30       __real@3c800000            00000001800a0f30     physics_2009:dgBroadPhaseCollision.obj
 0002:00000f40       ??_7dgUserConstraint@@6B@  00000001800a0f40     physics_2009:dgUserConstraint.obj
 0002:00000fa0       ??_7dgConstraint@@6B@      00000001800a0fa0     physics_2009:dgBilateralConstraint.obj
 0002:00000ff0       ??_7dgBilateralConstraint@@6B@ 00000001800a0ff0     physics_2009:dgBilateralConstraint.obj
 0002:00001050       __real@44bb8000            00000001800a1050     physics_2009:dgBilateralConstraint.obj
 0002:00001054       __real@461c4000            00000001800a1054     physics_2009:dgBilateralConstraint.obj
 0002:00001058       __real@c61c4000            00000001800a1058     physics_2009:dgBilateralConstraint.obj
 0002:0000105c       __real@43c80000            00000001800a105c     physics_2009:dgBilateralConstraint.obj
 0002:00001060       __real@43bb8000            00000001800a1060     physics_2009:dgBilateralConstraint.obj
 0002:00001070       ??_7dgCollisionSphere@@6B@ 00000001800a1070     physics_2009:dgCollisionSphere.obj
 0002:00001158       __real@3ecccccd            00000001800a1158     physics_2009:dgCollisionSphere.obj
 0002:0000115c       __real@40860a90            00000001800a115c     physics_2009:dgCollisionSphere.obj
 0002:00001170       ??_7dgConvexCollision@@6B@ 00000001800a1170     physics_2009:dgConvexCollision.obj
 0002:00001258       __real@44800000            00000001800a1258     physics_2009:dgConvexCollision.obj
 0002:0000125c       __real@43800000            00000001800a125c     physics_2009:dgConvexCollision.obj
 0002:00001260       __real@358637bc            00000001800a1260     physics_2009:dgConvexCollision.obj
 0002:00001264       __real@b8d1b717            00000001800a1264     physics_2009:dgConvexCollision.obj
 0002:00001268       __real@1e3ce508            00000001800a1268     physics_2009:dgConvexCollision.obj
 0002:0000126c       __real@2b8cbccc            00000001800a126c     physics_2009:dgConvexCollision.obj
 0002:00001270       __real@3716feb5            00000001800a1270     physics_2009:dgConvexCollision.obj
 0002:00001274       __real@979abe15            00000001800a1274     physics_2009:dgConvexCollision.obj
 0002:00001280       ??_7dgCollisionNull@@6B@   00000001800a1280     physics_2009:dgCollisionNull.obj
 0002:00001368       __real@3e99999a            00000001800a1368     physics_2009:dgContact.obj
 0002:0000136c       __real@42480000            00000001800a136c     physics_2009:dgContact.obj
 0002:00001370       ??_7dgContact@@6B@         00000001800a1370     physics_2009:dgContact.obj
 0002:000013c0       ??_7dgCollisionConvexModifier@@6B@ 00000001800a13c0     physics_2009:dgCollisionConvexModifier.obj
 0002:000014a8       __real@ccbebc20            00000001800a14a8     physics_2009:dgCollisionConvexModifier.obj
 0002:000014b0       ??_7dgCompoundCollision@@6B@ 00000001800a14b0     physics_2009:dgCompoundCollision.obj
 0002:00001578       __real@9e3ce508            00000001800a1578     physics_2009:dgCompoundCollision.obj
 0002:00001580       ??_7dgCollisionUserMesh@@6B@ 00000001800a1580     physics_2009:dgCollisionUserMesh.obj
 0002:00001660       ??_7dgCollisionHeightField@@6B@ 00000001800a1660     physics_2009:dgCollisionHeightField.obj
 0002:00001740       __real@d368d4a5            00000001800a1740     physics_2009:dgCollisionHeightField.obj
 0002:00001748       __real@0000000000000000    00000001800a1748     physics_2009:dgMinkowskiConv.obj
 0002:00001750       __mask@@NegDouble@         00000001800a1750     physics_2009:dgMinkowskiConv.obj
 0002:00001760       __real@3ff0000000000000    00000001800a1760     physics_2009:dgMinkowskiConv.obj
 0002:00001768       __real@3af357c2a0000000    00000001800a1768     physics_2009:dgMinkowskiConv.obj
 0002:00001770       __real@4415af1d80000000    00000001800a1770     physics_2009:dgMinkowskiConv.obj
 0002:00001778       __real@bf13cd36            00000001800a1778     physics_2009:dgMinkowskiConv.obj
 0002:0000177c       __real@3f13cd36            00000001800a177c     physics_2009:dgMinkowskiConv.obj
 0002:00001780       __real@40400000            00000001800a1780     physics_2009:dgMinkowskiConv.obj
 0002:00001784       __real@3f7f7cee            00000001800a1784     physics_2009:dgMinkowskiConv.obj
 0002:00001788       __real@3f7fd806            00000001800a1788     physics_2009:dgMinkowskiConv.obj
 0002:0000178c       __real@3d0ef333            00000001800a178c     physics_2009:dgMinkowskiConv.obj
 0002:00001790       __real@3f3504f3            00000001800a1790     physics_2009:dgMinkowskiConv.obj
 0002:00001794       __real@3d0ef2c6            00000001800a1794     physics_2009:dgMinkowskiConv.obj
 0002:00001798       __real@3f7fd814            00000001800a1798     physics_2009:dgMinkowskiConv.obj
 0002:0000179c       __real@3a03126f            00000001800a179c     physics_2009:dgMinkowskiConv.obj
 0002:000017a0       __real@3089705f            00000001800a17a0     physics_2009:dgMinkowskiConv.obj
 0002:000017a8       __real@3f1a36e2e0000000    00000001800a17a8     physics_2009:dgMinkowskiConv.obj
 0002:000017b0       __real@4202a05f20000000    00000001800a17b0     physics_2009:dgMinkowskiConv.obj
 0002:000017b8       __real@3eb0c6f7a0000000    00000001800a17b8     physics_2009:dgMinkowskiConv.obj
 0002:000017c0       __real@3f40624de0000000    00000001800a17c0     physics_2009:dgMinkowskiConv.obj
 0002:000017c8       __real@3feffbe760000000    00000001800a17c8     physics_2009:dgMinkowskiConv.obj
 0002:000017d0       __real@bff0000000000000    00000001800a17d0     physics_2009:dgMinkowskiConv.obj
 0002:000017d8       __real@3e112e0be0000000    00000001800a17d8     physics_2009:dgMinkowskiConv.obj
 0002:000017e0       __real@38d1b718            00000001800a17e0     physics_2009:dgMinkowskiConv.obj
 0002:000017e8       __real@3f50624de0000000    00000001800a17e8     physics_2009:dgMinkowskiConv.obj
 0002:000017f0       __real@3f1a36e3068db8c0    00000001800a17f0     physics_2009:dgMinkowskiConv.obj
 0002:000017f8       __real@3eb0c6f7bb730840    00000001800a17f8     physics_2009:dgMinkowskiConv.obj
 0002:00001800       __real@3b000000            00000001800a1800     physics_2009:dgMinkowskiConv.obj
 0002:00001808       __real@3f60000000000000    00000001800a1808     physics_2009:dgMinkowskiConv.obj
 0002:00001810       __real@3f80000000000000    00000001800a1810     physics_2009:dgMinkowskiConv.obj
 0002:00001818       __real@3b800000            00000001800a1818     physics_2009:dgMinkowskiConv.obj
 0002:00001820       __real@3f40000000000000    00000001800a1820     physics_2009:dgMinkowskiConv.obj
 0002:00001828       __real@42000000            00000001800a1828     physics_2009:dgMinkowskiConv.obj
 0002:0000182c       __real@3d800000            00000001800a182c     physics_2009:dgMinkowskiConv.obj
 0002:00001830       ??_7dgCollisionBox@@6B@    00000001800a1830     physics_2009:dgCollisionBox.obj
 0002:00001920       __real@41000000            00000001800a1920     physics_2009:dgCollisionBox.obj
 0002:00001924       __real@3eaaaaab            00000001800a1924     physics_2009:dgCollisionBox.obj
 0002:00001930       ??_7dgCollision@@6B@       00000001800a1930     physics_2009:dgCollision.obj
 0002:00001a00       ??_7dgCollisionEllipse@@6B@ 00000001800a1a00     physics_2009:dgCollisionEllipse.obj
 0002:00001af0       ??_7dgCollisionCapsule@@6B@ 00000001800a1af0     physics_2009:dgCollisionCapsule.obj
 0002:00001bd8       __real@3e2aaaab            00000001800a1bd8     physics_2009:dgCollisionCapsule.obj
 0002:00001bdc       __real@4086e51b            00000001800a1bdc     physics_2009:dgCollisionCapsule.obj
 0002:00001be0       __real@40ca57a8            00000001800a1be0     physics_2009:dgCollisionCapsule.obj
 0002:00001be4       __real@bf000000            00000001800a1be4     physics_2009:dgCollisionCapsule.obj
 0002:00001be8       __real@80000000            00000001800a1be8     physics_2009:dgCollisionCapsule.obj
 0002:00001bf0       ??_7dgCollisionCone@@6B@   00000001800a1bf0     physics_2009:dgCollisionCone.obj
 0002:00001cd8       __real@3d2aaaab            00000001800a1cd8     physics_2009:dgCollisionCone.obj
 0002:00001cdc       __real@3e19999a            00000001800a1cdc     physics_2009:dgCollisionCone.obj
 0002:00001ce0       __real@4006e51b            00000001800a1ce0     physics_2009:dgCollisionCone.obj
 0002:00001cf0       ??_7dgCollisionCylinder@@6B@ 00000001800a1cf0     physics_2009:dgCollisionCylinder.obj
 0002:00001de0       ??_7dgCollisionChamferCylinder@@6B@ 00000001800a1de0     physics_2009:dgCollisionChamferCylinder.obj
 0002:00001ec8       __real@3f490fd0            00000001800a1ec8     physics_2009:dgCollisionChamferCylinder.obj
 0002:00001ecc       __real@3e860a8b            00000001800a1ecc     physics_2009:dgCollisionChamferCylinder.obj
 0002:00001ed0       __real@219392ef            00000001800a1ed0     physics_2009:dgCollisionChamferCylinder.obj
 0002:00001ee4       __real@bf7ffcb9            00000001800a1ee4     corelib_2009:dgMatrix.obj
 0002:00001ee8       __real@3f7fffef            00000001800a1ee8     corelib_2009:dgMatrix.obj
 0002:00001eec       __real@bf7fffef            00000001800a1eec     corelib_2009:dgMatrix.obj
 0002:00001ef8       __real@4000000000000000    00000001800a1ef8     corelib_2009:dgPolyhedra.obj
 0002:00001f00       __real@3d71979980000000    00000001800a1f00     corelib_2009:dgPolyhedra.obj
 0002:00001f08       __real@4024000000000000    00000001800a1f08     corelib_2009:dgPolyhedra.obj
 0002:00001f10       __real@4030000000000000    00000001800a1f10     corelib_2009:dgPolyhedra.obj
 0002:00001f18       __real@3fe69fbe80000000    00000001800a1f18     corelib_2009:dgPolyhedra.obj
 0002:00001f20       __real@bfecccccc0000000    00000001800a1f20     corelib_2009:dgPolyhedra.obj
 0002:00001f28       ??_7dgPolyhedra@@6B@       00000001800a1f28     corelib_2009:dgPolyhedra.obj
 0002:00001f30       __real@4010000000000000    00000001800a1f30     corelib_2009:dgPolyhedra.obj
 0002:00001f38       __real@3fefff2e40000000    00000001800a1f38     corelib_2009:dgPolyhedra.obj
 0002:00001f40       __real@3f70000000000000    00000001800a1f40     corelib_2009:dgPolyhedra.obj
 0002:00001f48       __real@3f1a36e2eb1c432d    00000001800a1f48     corelib_2009:dgTypes.obj
 0002:00001f50       ??_7dgPolygonSoupDatabase@@6B@ 00000001800a1f50     corelib_2009:dgAABBPolygonSoup.obj
 0002:00001f90       ??_7dgAABBPolygonSoup@@6B@ 00000001800a1f90     corelib_2009:dgAABBPolygonSoup.obj
 0002:00001fd8       ??_7dgPolySoupFilterAllocator@@6B@ 00000001800a1fd8     corelib_2009:dgPolygonSoupBuilder.obj
 0002:00001fe0       __real@3fb5555560000000    00000001800a1fe0     corelib_2009:dgPolygonSoupBuilder.obj
 0002:00001fe8       __real@3fe0000000000000    00000001800a1fe8     corelib_2009:dgPolygonSoupBuilder.obj
 0002:00001ff0       __real@bc8f5c29            00000001800a1ff0     corelib_2009:dgIntersections.obj
 0002:00001ff4       __real@bc23d70a            00000001800a1ff4     corelib_2009:dgIntersections.obj
 0002:00002000       _FPinit                    00000001800a2000     LIBCMT:_fpinit_.obj
 0002:00002008       _FPmtinit                  00000001800a2008     LIBCMT:_fpinit_.obj
 0002:00002010       _FPmtterm                  00000001800a2010     LIBCMT:_fpinit_.obj
 0002:00002018       ??_C@_05KFMLJNHJ@ceilf?$AA@ 00000001800a2018     LIBCMT:_ceilf_.obj
 0002:000020d8       __real@3fc555555545e87d    00000001800a20d8     LIBCMT:_sincosf_.obj
 0002:000020e0       __real@3f2a013a88a37196    00000001800a20e0     LIBCMT:_sincosf_.obj
 0002:000020e8       __real@3f56c16bf55699d7    00000001800a20e8     LIBCMT:_sincosf_.obj
 0002:000020f0       __real@3e92524743cc46b8    00000001800a20f0     LIBCMT:_sincosf_.obj
 0002:000020f8       __real@411e848000000000    00000001800a20f8     LIBCMT:_sincosf_.obj
 0002:00002100       ??_C@_04LAGPAAHP@sinf?$AA@ 00000001800a2100     LIBCMT:_sincosf_.obj
 0002:00002108       __real@3fc5555555555555    00000001800a2108     LIBCMT:_sincosf_.obj
 0002:00002110       ??_C@_04OBBKPIAC@cosf?$AA@ 00000001800a2110     LIBCMT:_sincosf_.obj
 0002:00002118       ??_C@_05KGFAIMPG@sqrtf?$AA@ 00000001800a2118     LIBCMT:_sqrtf_.obj
 0002:000028a8       __real@3fd5555555555538    00000001800a28a8     LIBCMT:_atan2f_.obj
 0002:000028b0       __real@3fc2492482bd6be1    00000001800a28b0     LIBCMT:_atan2f_.obj
 0002:000028b8       __real@3fc99999999643a3    00000001800a28b8     LIBCMT:_atan2f_.obj
 0002:000028c0       __real@3fd5555555550877    00000001800a28c0     LIBCMT:_atan2f_.obj
 0002:000028c8       __real@4070000000000000    00000001800a28c8     LIBCMT:_atan2f_.obj
 0002:000028d0       __real@3fb0000000000000    00000001800a28d0     LIBCMT:_atan2f_.obj
 0002:000028d8       ??_C@_06LEACALBF@atan2f?$AA@ 00000001800a28d8     LIBCMT:_atan2f_.obj
 0002:000028e0       _pRawDllMain               00000001800a28e0     LIBCMT:dllcrt0.obj
 0002:000028e0       _pDefaultRawDllMain        00000001800a28e0     LIBCMT:dllcrt0.obj
 0002:00002908       __real@3f561f0d            00000001800a2908     LIBCMT:_acosf_.obj
 0002:0000290c       __real@3e3c94dc            00000001800a290c     LIBCMT:_acosf_.obj
 0002:00002910       __real@3d678bdd            00000001800a2910     LIBCMT:_acosf_.obj
 0002:00002914       __real@3f8d6fa5            00000001800a2914     LIBCMT:_acosf_.obj
 0002:00002918       __real@3b81ce6b            00000001800a2918     LIBCMT:_acosf_.obj
 0002:0000291c       __real@bc5b3fe1            00000001800a291c     LIBCMT:_acosf_.obj
 0002:00002920       __real@40490fdb            00000001800a2920     LIBCMT:_acosf_.obj
 0002:00002924       ??_C@_05FFFCHCED@acosf?$AA@ 00000001800a2924     LIBCMT:_acosf_.obj
 0002:00002938       __real@bfc90fdb            00000001800a2938     LIBCMT:_asinf_.obj
 0002:0000293c       ??_C@_05ECHIKDO@asinf?$AA@ 00000001800a293c     LIBCMT:_asinf_.obj
 0002:00002d78       ??_C@_04HIGFGEHP@logf?$AA@ 00000001800a2d78     LIBCMT:_logf_.obj
 0002:00002d80       __real@36a0000000000000    00000001800a2d80     LIBCMT:_powf_.obj
 0002:00002d88       __real@47efffffe0000000    00000001800a2d88     LIBCMT:_powf_.obj
 0002:00002d90       ??_C@_04MBFDLNIM@powf?$AA@ 00000001800a2d90     LIBCMT:_powf_.obj
 0002:00002d98       ??_C@_04EIAKFFMI@sqrt?$AA@ 00000001800a2d98     LIBCMT:_sqrt_.obj
 0002:00002da0       ??_C@_05KLBDPFGC@e?$CL000?$AA@ 00000001800a2da0     LIBCMT:cvt.obj
 0002:00002da8       ??_C@_0P@MIGLKIOC@CorExitProcess?$AA@ 00000001800a2da8     LIBCMT:crt0dat.obj
 0002:00002db8       ??_C@_1BI@BGOHAHKC@?$AAm?$AAs?$AAc?$AAo?$AAr?$AAe?$AAe?$AA?4?$AAd?$AAl?$AAl?$AA?$AA@ 00000001800a2db8     LIBCMT:crt0dat.obj
 0002:00002dd0       ??_C@_0P@GGKDKEEG@runtime?5error?5?$AA@ 00000001800a2dd0     LIBCMT:crt0msg.obj
 0002:00002de0       ??_C@_02PCIJFNDE@?$AN?6?$AA@ 00000001800a2de0     LIBCMT:crt0msg.obj
 0002:00002de8       ??_C@_0O@MJNIPGOH@TLOSS?5error?$AN?6?$AA@ 00000001800a2de8     LIBCMT:crt0msg.obj
 0002:00002df8       ??_C@_0N@BONNPDHF@SING?5error?$AN?6?$AA@ 00000001800a2df8     LIBCMT:crt0msg.obj
 0002:00002e08       ??_C@_0P@MBDAJNE@DOMAIN?5error?$AN?6?$AA@ 00000001800a2e08     LIBCMT:crt0msg.obj
 0002:00002e20       ??_C@_0JL@DFDOOABL@R6034?$AN?6An?5application?5has?5made?5a@ 00000001800a2e20     LIBCMT:crt0msg.obj
 0002:00002ec0       ??_C@_0PH@EPAFIJ@R6033?$AN?6?9?5Attempt?5to?5use?5MSIL?5cod@ 00000001800a2ec0     LIBCMT:crt0msg.obj
 0002:00002fb8       ??_C@_0DD@BKEEABMM@R6032?$AN?6?9?5not?5enough?5space?5for?5lo@ 00000001800a2fb8     LIBCMT:crt0msg.obj
 0002:00002ff0       ??_C@_0GD@OFKILIED@R6031?$AN?6?9?5Attempt?5to?5initialize?5t@ 00000001800a2ff0     LIBCMT:crt0msg.obj
 0002:00003058       ??_C@_0BP@LPMHJOKI@R6030?$AN?6?9?5CRT?5not?5initialized?$AN?6?$AA@ 00000001800a3058     LIBCMT:crt0msg.obj
 0002:00003078       ??_C@_0CF@KJDAIALP@R6028?$AN?6?9?5unable?5to?5initialize?5he@ 00000001800a3078     LIBCMT:crt0msg.obj
 0002:000030a0       ??_C@_0DF@GAKBPDFP@R6027?$AN?6?9?5not?5enough?5space?5for?5lo@ 00000001800a30a0     LIBCMT:crt0msg.obj
 0002:000030d8       ??_C@_0DF@IBLNNAIG@R6026?$AN?6?9?5not?5enough?5space?5for?5st@ 00000001800a30d8     LIBCMT:crt0msg.obj
 0002:00003110       ??_C@_0CG@IOHKGFNJ@R6025?$AN?6?9?5pure?5virtual?5function?5c@ 00000001800a3110     LIBCMT:crt0msg.obj
 0002:00003138       ??_C@_0DF@JIJJFJDC@R6024?$AN?6?9?5not?5enough?5space?5for?5_o@ 00000001800a3138     LIBCMT:crt0msg.obj
 0002:00003170       ??_C@_0CJ@EGEJHFME@R6019?$AN?6?9?5unable?5to?5open?5console?5@ 00000001800a3170     LIBCMT:crt0msg.obj
 0002:000031a0       ??_C@_0CB@GNHNIELH@R6018?$AN?6?9?5unexpected?5heap?5error?$AN?6@ 00000001800a31a0     LIBCMT:crt0msg.obj
 0002:000031c8       ??_C@_0CN@FOLDKNG@R6017?$AN?6?9?5unexpected?5multithread?5@ 00000001800a31c8     LIBCMT:crt0msg.obj
 0002:000031f8       ??_C@_0CM@FAHFJNHO@R6016?$AN?6?9?5not?5enough?5space?5for?5th@ 00000001800a31f8     LIBCMT:crt0msg.obj
 0002:00003230       ??_C@_0JG@LBKMGKLD@?$AN?6This?5application?5has?5requested@ 00000001800a3230     LIBCMT:crt0msg.obj
 0002:000032c8       ??_C@_0CM@FLCNIPKK@R6009?$AN?6?9?5not?5enough?5space?5for?5en@ 00000001800a32c8     LIBCMT:crt0msg.obj
 0002:000032f8       ??_C@_0CK@KMMJOAPP@R6008?$AN?6?9?5not?5enough?5space?5for?5ar@ 00000001800a32f8     LIBCMT:crt0msg.obj
 0002:00003328       ??_C@_0CN@LEKKICBM@R6002?$AN?6?9?5floating?5point?5support?5@ 00000001800a3328     LIBCMT:crt0msg.obj
 0002:00003358       ??_C@_0CF@GOGNBNAK@Microsoft?5Visual?5C?$CL?$CL?5Runtime?5Lib@ 00000001800a3358     LIBCMT:crt0msg.obj
 0002:00003380       ??_C@_02PHMGELLB@?6?6?$AA@ 00000001800a3380     LIBCMT:crt0msg.obj
 0002:00003384       ??_C@_03KHICJKCI@?4?4?4?$AA@ 00000001800a3384     LIBCMT:crt0msg.obj
 0002:00003388       ??_C@_0BH@DNAGHKFM@?$DMprogram?5name?5unknown?$DO?$AA@ 00000001800a3388     LIBCMT:crt0msg.obj
 0002:000033a0       ??_C@_0BK@OFGJDLJJ@Runtime?5Error?$CB?6?6Program?3?5?$AA@ 00000001800a33a0     LIBCMT:crt0msg.obj
 0002:000033c0       _XcptActTab                00000001800a33c0     LIBCMT:winxfltr.obj
 0002:00003460       ??_C@_1O@CEDCILHN@?$AA?$CI?$AAn?$AAu?$AAl?$AAl?$AA?$CJ?$AA?$AA@ 00000001800a3460     LIBCMT:output.obj
 0002:00003470       ??_C@_06OJHGLDPL@?$CInull?$CJ?$AA@ 00000001800a3470     LIBCMT:output.obj
 0002:00003480       __lookuptable              00000001800a3480     LIBCMT:output.obj
 0002:00003710       __real@3fc5555555548f7c    00000001800a3710     LIBCMT:_exp2_.obj
 0002:00003718       __real@3fa5555555545d4e    00000001800a3718     LIBCMT:_exp2_.obj
 0002:00003720       __real@3f811115b7aa905e    00000001800a3720     LIBCMT:_exp2_.obj
 0002:00003728       __real@3f56c1728d739765    00000001800a3728     LIBCMT:_exp2_.obj
 0002:00003730       __real@4040000000000000    00000001800a3730     LIBCMT:_exp2_.obj
 0002:00003738       __real@3fdffc2b5ee8cd41    00000001800a3738     LIBCMT:_exp2_.obj
 0002:00003740       __real@3ef0e88e25daf0f3    00000001800a3740     LIBCMT:_exp2_.obj
 0002:00003748       __real@3fbb6a194bd1cdeb    00000001800a3748     LIBCMT:_exp2_.obj
 0002:00003750       __real@3f985eaf935d972d    00000001800a3750     LIBCMT:_exp2_.obj
 0002:00003758       __real@3f885dd726cbfa41    00000001800a3758     LIBCMT:_exp2_.obj
 0002:00003760       __real@3e9208a80efa0f9c    00000001800a3760     LIBCMT:_exp2_.obj
 0002:00003768       __real@3f437d98a3a06a02    00000001800a3768     LIBCMT:_exp2_.obj
 0002:00003770       __real@3feffc6f012164ad    00000001800a3770     LIBCMT:_exp2_.obj
 0002:00003778       ??_C@_04HPAFEEIN@exp2?$AA@ 00000001800a3778     LIBCMT:_exp2_.obj
 0002:00003bf0       ??_C@_04KGLCPMCP@log2?$AA@ 00000001800a3bf0     LIBCMT:_log2_.obj
 0002:00003c80       ??_C@_0L@KDOEJCKC@_nextafter?$AA@ 00000001800a3c80     LIBCMT:_fpexcept_.obj
 0002:00003c8c       ??_C@_05JGDBENOH@_logb?$AA@ 00000001800a3c8c     LIBCMT:_fpexcept_.obj
 0002:00003c94       ??_C@_03ONILCKOB@_yn?$AA@  00000001800a3c94     LIBCMT:_fpexcept_.obj
 0002:00003c98       ??_C@_03NAKIGLHK@_y1?$AA@  00000001800a3c98     LIBCMT:_fpexcept_.obj
 0002:00003c9c       ??_C@_03MJLDFKDL@_y0?$AA@  00000001800a3c9c     LIBCMT:_fpexcept_.obj
 0002:00003ca0       ??_C@_05GKKHEGJL@frexp?$AA@ 00000001800a3ca0     LIBCMT:_fpexcept_.obj
 0002:00003ca8       ??_C@_04KEPJIHGP@fmod?$AA@ 00000001800a3ca8     LIBCMT:_fpexcept_.obj
 0002:00003cb0       ??_C@_06MEIMCGCF@_hypot?$AA@ 00000001800a3cb0     LIBCMT:_fpexcept_.obj
 0002:00003cb8       ??_C@_05KBKMEMPO@_cabs?$AA@ 00000001800a3cb8     LIBCMT:_fpexcept_.obj
 0002:00003cc0       ??_C@_05CEJMAHNP@ldexp?$AA@ 00000001800a3cc0     LIBCMT:_fpexcept_.obj
 0002:00003cc8       ??_C@_04EHEDPDJG@modf?$AA@ 00000001800a3cc8     LIBCMT:_fpexcept_.obj
 0002:00003cd0       ??_C@_04ODHECPBC@fabs?$AA@ 00000001800a3cd0     LIBCMT:_fpexcept_.obj
 0002:00003cd8       ??_C@_05PBJFFIGL@floor?$AA@ 00000001800a3cd8     LIBCMT:_fpexcept_.obj
 0002:00003ce0       ??_C@_04GFPJNGEK@ceil?$AA@ 00000001800a3ce0     LIBCMT:_fpexcept_.obj
 0002:00003ce8       ??_C@_03IIINPABG@tan?$AA@  00000001800a3ce8     LIBCMT:_fpexcept_.obj
 0002:00003cec       ??_C@_03LALBNOCG@cos?$AA@  00000001800a3cec     LIBCMT:_fpexcept_.obj
 0002:00003cf0       ??_C@_03BLEJJJBH@sin?$AA@  00000001800a3cf0     LIBCMT:_fpexcept_.obj
 0002:00003cf4       ??_C@_05KNGEOGJB@atan2?$AA@ 00000001800a3cf4     LIBCMT:_fpexcept_.obj
 0002:00003cfc       ??_C@_04MLLJIGOK@atan?$AA@ 00000001800a3cfc     LIBCMT:_fpexcept_.obj
 0002:00003d04       ??_C@_04PDIFKINK@acos?$AA@ 00000001800a3d04     LIBCMT:_fpexcept_.obj
 0002:00003d0c       ??_C@_04FIHNOPOL@asin?$AA@ 00000001800a3d0c     LIBCMT:_fpexcept_.obj
 0002:00003d14       ??_C@_04FJHINJAO@tanh?$AA@ 00000001800a3d14     LIBCMT:_fpexcept_.obj
 0002:00003d1c       ??_C@_04HPJJNFIM@cosh?$AA@ 00000001800a3d1c     LIBCMT:_fpexcept_.obj
 0002:00003d24       ??_C@_04COOMCNPB@sinh?$AA@ 00000001800a3d24     LIBCMT:_fpexcept_.obj
 0002:00003d2c       ??_C@_05HGHHAHAP@log10?$AA@ 00000001800a3d2c     LIBCMT:_fpexcept_.obj
 0002:00003d34       ??_C@_03MGHMBJCF@log?$AA@  00000001800a3d34     LIBCMT:_fpexcept_.obj
 0002:00003d38       ??_C@_03JGHBODFD@pow?$AA@  00000001800a3d38     LIBCMT:_fpexcept_.obj
 0002:00003d3c       ??_C@_03KHJOGHMM@exp?$AA@  00000001800a3d3c     LIBCMT:_fpexcept_.obj
 0002:00003d40       ??_C@_0BI@DFKBFLJE@GetProcessWindowStation?$AA@ 00000001800a3d40     LIBCMT:crtmbox.obj
 0002:00003d58       ??_C@_0BK@CIDNPOGP@GetUserObjectInformationA?$AA@ 00000001800a3d58     LIBCMT:crtmbox.obj
 0002:00003d78       ??_C@_0BD@HHGDFDBJ@GetLastActivePopup?$AA@ 00000001800a3d78     LIBCMT:crtmbox.obj
 0002:00003d90       ??_C@_0BA@HNOPNCHB@GetActiveWindow?$AA@ 00000001800a3d90     LIBCMT:crtmbox.obj
 0002:00003da0       ??_C@_0M@CHKKJDAI@MessageBoxA?$AA@ 00000001800a3da0     LIBCMT:crtmbox.obj
 0002:00003db0       ??_C@_0L@NDEGIDAG@USER32?4DLL?$AA@ 00000001800a3db0     LIBCMT:crtmbox.obj
 0002:00003dc0       __lookuptable_s            00000001800a3dc0     LIBCMT:outputs.obj
 0002:00003e1c       ??_C@_13NOLLCAOD@?$AA?$AA?$AA?$AA@ 00000001800a3e1c     LIBCMT:a_map.obj
 0002:00003e1c       __real@00000000            00000001800a3e1c     Newton.obj
 0002:00003e20       __newctype                 00000001800a3e20     LIBCMT:ctype.obj
 0002:00004120       _wctype                    00000001800a4120     LIBCMT:ctype.obj
 0002:00004330       __newclmap                 00000001800a4330     LIBCMT:ctype.obj
 0002:000044b0       __newcumap                 00000001800a44b0     LIBCMT:ctype.obj
 0002:00004630       ??_C@_08JCCMCCIL@HH?3mm?3ss?$AA@ 00000001800a4630     LIBCMT:strftime.obj
 0002:00004640       ??_C@_0BE@CKGJFCPC@dddd?0?5MMMM?5dd?0?5yyyy?$AA@ 00000001800a4640     LIBCMT:strftime.obj
 0002:00004658       ??_C@_08BPBNCDIB@MM?1dd?1yy?$AA@ 00000001800a4658     LIBCMT:strftime.obj
 0002:00004664       ??_C@_02CJNFDJBF@PM?$AA@   00000001800a4664     LIBCMT:strftime.obj
 0002:00004668       ??_C@_02DEDBPAFC@AM?$AA@   00000001800a4668     LIBCMT:strftime.obj
 0002:00004670       ??_C@_08EDHMEBNP@December?$AA@ 00000001800a4670     LIBCMT:strftime.obj
 0002:00004680       ??_C@_08HCHEGEOA@November?$AA@ 00000001800a4680     LIBCMT:strftime.obj
 0002:00004690       ??_C@_07JJNFCEND@October?$AA@ 00000001800a4690     LIBCMT:strftime.obj
 0002:00004698       ??_C@_09BHHEALKD@September?$AA@ 00000001800a4698     LIBCMT:strftime.obj
 0002:000046a4       ??_C@_06LBBHFDDG@August?$AA@ 00000001800a46a4     LIBCMT:strftime.obj
 0002:000046ac       ??_C@_04MIEPOIFP@July?$AA@ 00000001800a46ac     LIBCMT:strftime.obj
 0002:000046b4       ??_C@_04CNLMGBGM@June?$AA@ 00000001800a46b4     LIBCMT:strftime.obj
 0002:000046bc       ??_C@_05DMJDNLEJ@April?$AA@ 00000001800a46bc     LIBCMT:strftime.obj
 0002:000046c4       ??_C@_05HPCKOFNC@March?$AA@ 00000001800a46c4     LIBCMT:strftime.obj
 0002:000046d0       ??_C@_08GNJGEPFN@February?$AA@ 00000001800a46d0     LIBCMT:strftime.obj
 0002:000046e0       ??_C@_07CGJPFGJA@January?$AA@ 00000001800a46e0     LIBCMT:strftime.obj
 0002:000046e8       ??_C@_03MKABNOCG@Dec?$AA@  00000001800a46e8     LIBCMT:strftime.obj
 0002:000046ec       ??_C@_03JPJOFNIA@Nov?$AA@  00000001800a46ec     LIBCMT:strftime.obj
 0002:000046f0       ??_C@_03BMAOKBAD@Oct?$AA@  00000001800a46f0     LIBCMT:strftime.obj
 0002:000046f4       ??_C@_03GGCAPAJC@Sep?$AA@  00000001800a46f4     LIBCMT:strftime.obj
 0002:000046f8       ??_C@_03IFJFEIGA@Aug?$AA@  00000001800a46f8     LIBCMT:strftime.obj
 0002:000046fc       ??_C@_03LBGABGKK@Jul?$AA@  00000001800a46fc     LIBCMT:strftime.obj
 0002:00004700       ??_C@_03IDFGHECI@Jun?$AA@  00000001800a4700     LIBCMT:strftime.obj
 0002:00004704       ??_C@_03CNMDKL@May?$AA@    00000001800a4704     LIBCMT:strftime.obj
 0002:00004708       ??_C@_03LEOLGMJP@Apr?$AA@  00000001800a4708     LIBCMT:strftime.obj
 0002:0000470c       ??_C@_03ODNJBKGA@Mar?$AA@  00000001800a470c     LIBCMT:strftime.obj
 0002:00004710       ??_C@_03HJBDCHOM@Feb?$AA@  00000001800a4710     LIBCMT:strftime.obj
 0002:00004714       ??_C@_03JIHJHPIE@Jan?$AA@  00000001800a4714     LIBCMT:strftime.obj
 0002:00004718       ??_C@_08INBOOONO@Saturday?$AA@ 00000001800a4718     LIBCMT:strftime.obj
 0002:00004724       ??_C@_06JECMNKMI@Friday?$AA@ 00000001800a4724     LIBCMT:strftime.obj
 0002:00004730       ??_C@_08HACCIKIA@Thursday?$AA@ 00000001800a4730     LIBCMT:strftime.obj
 0002:00004740       ??_C@_09DLIGFAKA@Wednesday?$AA@ 00000001800a4740     LIBCMT:strftime.obj
 0002:00004750       ??_C@_07BAAGCFCM@Tuesday?$AA@ 00000001800a4750     LIBCMT:strftime.obj
 0002:00004758       ??_C@_06JLEDEDGH@Monday?$AA@ 00000001800a4758     LIBCMT:strftime.obj
 0002:00004760       ??_C@_06OOPIFAJ@Sunday?$AA@ 00000001800a4760     LIBCMT:strftime.obj
 0002:00004768       ??_C@_03FEFJNEK@Sat?$AA@   00000001800a4768     LIBCMT:strftime.obj
 0002:0000476c       ??_C@_03IDIOELNC@Fri?$AA@  00000001800a476c     LIBCMT:strftime.obj
 0002:00004770       ??_C@_03IOFIKPDN@Thu?$AA@  00000001800a4770     LIBCMT:strftime.obj
 0002:00004774       ??_C@_03MHOMLAJA@Wed?$AA@  00000001800a4774     LIBCMT:strftime.obj
 0002:00004778       ??_C@_03NAGEINEP@Tue?$AA@  00000001800a4778     LIBCMT:strftime.obj
 0002:0000477c       ??_C@_03PDAGKDH@Mon?$AA@   00000001800a477c     LIBCMT:strftime.obj
 0002:00004780       ??_C@_03KOEHGMDN@Sun?$AA@  00000001800a4780     LIBCMT:strftime.obj
 0002:00004784       ??_C@_06IMKFLFPG@1?$CDQNAN?$AA@ 00000001800a4784     LIBCMT:_x10fout_.obj
 0002:0000478c       ??_C@_05DNEBIAHO@1?$CDINF?$AA@ 00000001800a478c     LIBCMT:_x10fout_.obj
 0002:00004794       ??_C@_05PHHOCPM@1?$CDIND?$AA@ 00000001800a4794     LIBCMT:_x10fout_.obj
 0002:0000479c       ??_C@_06PGGFOGJG@1?$CDSNAN?$AA@ 00000001800a479c     LIBCMT:_x10fout_.obj
 0002:000047d0       __dnames                   00000001800a47d0     LIBCMT:timeset.obj
 0002:000047e8       __mnames                   00000001800a47e8     LIBCMT:timeset.obj
 0002:00004810       ??_C@_07GPDNMNG@CONOUT$?$AA@ 00000001800a4810     LIBCMT:initcon.obj
 0002:00004878       __rtc_iaa                  00000001800a4878     LIBCMT:_initsect_.obj
 0002:00004880       __rtc_izz                  00000001800a4880     LIBCMT:_initsect_.obj
 0002:00004888       __rtc_taa                  00000001800a4888     LIBCMT:_initsect_.obj
 0002:00004890       __rtc_tzz                  00000001800a4890     LIBCMT:_initsect_.obj
 0002:0000c0d8       __IMPORT_DESCRIPTOR_KERNEL32 00000001800ac0d8     kernel32:KERNEL32.dll
 0002:0000c0ec       __NULL_IMPORT_DESCRIPTOR   00000001800ac0ec     kernel32:KERNEL32.dll
 0003:00000030       ?m_rayCastSimplex@dgConvexCollision@@1PAY03HA 00000001800b0030     physics_2009:dgConvexCollision.obj
 0003:00000070       ?m_hullDirs@dgConvexCollision@@1PAVdgTriplex@@A 00000001800b0070     physics_2009:dgConvexCollision.obj
 0003:00000118       ?mult@dgConvexMassData@@2PAMA 00000001800b0118     physics_2009:dgConvexCollision.obj
 0003:00000150       ?m_negOne@dgConvexCollision@@1VdgVector@@A 00000001800b0150     physics_2009:dgConvexCollision.obj
 0003:00000160       ?m_nrh0p5@dgConvexCollision@@1VdgVector@@A 00000001800b0160     physics_2009:dgConvexCollision.obj
 0003:00000170       ?m_nrh3p0@dgConvexCollision@@1VdgVector@@A 00000001800b0170     physics_2009:dgConvexCollision.obj
 0003:00000180       ?m_indexStep@dgConvexCollision@@1VdgVector@@A 00000001800b0180     physics_2009:dgConvexCollision.obj
 0003:00000190       ?m_index_0123@dgConvexCollision@@1VdgVector@@A 00000001800b0190     physics_2009:dgConvexCollision.obj
 0003:000001a0       ?m_index_4567@dgConvexCollision@@1VdgVector@@A 00000001800b01a0     physics_2009:dgConvexCollision.obj
 0003:000001b0       ?m_huge@dgConvexCollision@@1VdgVector@@A 00000001800b01b0     physics_2009:dgConvexCollision.obj
 0003:000001c0       ?m_negativeTiny@dgConvexCollision@@1VdgVector@@A 00000001800b01c0     physics_2009:dgConvexCollision.obj
 0003:000001d0       ?m_aabb_padd@dgConvexCollision@@1VdgVector@@A 00000001800b01d0     physics_2009:dgConvexCollision.obj
 0003:000001e0       ?m_faceIndex@dgContactSolver@@2PAY03HA 00000001800b01e0     physics_2009:dgMinkowskiConv.obj
 0003:00000220       ?m_edgeArray@dgCollisionBox@@1PAVdgConvexSimplexEdge@@A 00000001800b0220     physics_2009:dgCollisionBox.obj
 0003:00000530       ?g_allocaror@dgInternalMemory@@3VdgMemoryAllocator@@A 00000001800b0530     corelib_2009:dgMemory.obj
 0003:00000b5c       _fltused                   00000001800b0b5c     LIBCMT:_fpinit_.obj
 0003:00000b60       _ldused                    00000001800b0b60     LIBCMT:_fpinit_.obj
 0003:00000c00       _cfltcvt_tab               00000001800b0c00     LIBCMT:cmiscdat.obj
 0003:00000c50       _aexit_rtn                 00000001800b0c50     LIBCMT:crt0dat.obj
 0003:00000dd0       _amblksiz                  00000001800b0dd0     LIBCMT:heapinit.obj
 0003:00000f50       __flsindex                 00000001800b0f50     LIBCMT:tidtable.obj
 0003:00000f60       __badioinfo                00000001800b0f60     LIBCMT:ioinit.obj
 0003:00000fb8       _First_FPE_Indx            00000001800b0fb8     LIBCMT:winxfltr.obj
 0003:00000fbc       _Num_FPE                   00000001800b0fbc     LIBCMT:winxfltr.obj
 0003:00000fc0       _XcptActTabSize            00000001800b0fc0     LIBCMT:winxfltr.obj
 0003:00000fc4       _XcptActTabCount           00000001800b0fc4     LIBCMT:winxfltr.obj
 0003:00000fc8       __nullstring               00000001800b0fc8     LIBCMT:output.obj
 0003:00000fd0       __wnullstring              00000001800b0fd0     LIBCMT:output.obj
 0003:00000fd8       __abort_behavior           00000001800b0fd8     LIBCMT:abort.obj
 0003:00000fe0       __initialmbcinfo           00000001800b0fe0     LIBCMT:mbctype.obj
 0003:00001200       _mbctype                   00000001800b1200     LIBCMT:mbctype.obj
 0003:00001310       _mbcasemap                 00000001800b1310     LIBCMT:mbctype.obj
 0003:00001410       __ptmbcinfo                00000001800b1410     LIBCMT:mbctype.obj
 0003:00001518       __globallocalestatus       00000001800b1518     LIBCMT:glstatus.obj
 0003:00001520       __clocalestr               00000001800b1520     LIBCMT:nlsdata2.obj
 0003:00001530       __initiallocinfo           00000001800b1530     LIBCMT:nlsdata2.obj
 0003:00001690       __ptlocinfo                00000001800b1690     LIBCMT:nlsdata2.obj
 0003:00001698       __lc_clike                 00000001800b1698     LIBCMT:nlsdata2.obj
 0003:000016a0       __initiallocalestructinfo  00000001800b16a0     LIBCMT:nlsdata2.obj
 0003:000016b0       __security_cookie          00000001800b16b0     LIBCMT:gs_cookie.obj
 0003:000016b8       __security_cookie_complement 00000001800b16b8     LIBCMT:gs_cookie.obj
 0003:00001890       _matherr_flag              00000001800b1890     LIBCMT:_matherr_.obj
 0003:00001895       ?dazSupported@?1??_control87@@9@9 00000001800b1895     LIBCMT:_ieee_.obj
 0003:00001ae0       _iob                       00000001800b1ae0     LIBCMT:_file.obj
 0003:00001ea0       _pctype                    00000001800b1ea0     LIBCMT:ctype.obj
 0003:00001ea8       _pwctype                   00000001800b1ea8     LIBCMT:ctype.obj
 0003:00001eb0       __lc_time_c                00000001800b1eb0     LIBCMT:strftime.obj
 0003:00002018       __lc_time_curr             00000001800b2018     LIBCMT:strftime.obj
 0003:00002020       __lconv_static_decimal     00000001800b2020     LIBCMT:lconv.obj
 0003:00002030       __lconv_c                  00000001800b2030     LIBCMT:lconv.obj
 0003:00002088       __lconv                    00000001800b2088     LIBCMT:lconv.obj
 0003:00002090       __mb_cur_max               00000001800b2090     LIBCMT:nlsdata1.obj
 0003:00002094       __decimal_point            00000001800b2094     LIBCMT:nlsdata1.obj
 0003:00002098       __decimal_point_length     00000001800b2098     LIBCMT:nlsdata1.obj
 0003:000020d0       _d_inf                     00000001800b20d0     LIBCMT:_util_.obj
 0003:000020d8       _d_ind                     00000001800b20d8     LIBCMT:_util_.obj
 0003:000020e0       _d_max                     00000001800b20e0     LIBCMT:_util_.obj
 0003:000020e8       _d_min                     00000001800b20e8     LIBCMT:_util_.obj
 0003:000020f0       _d_mzero                   00000001800b20f0     LIBCMT:_util_.obj
 0003:00002110       _timezone                  00000001800b2110     LIBCMT:timeset.obj
 0003:00002114       _daylight                  00000001800b2114     LIBCMT:timeset.obj
 0003:00002118       _dstbias                   00000001800b2118     LIBCMT:timeset.obj
 0003:000021a0       _tzname                    00000001800b21a0     LIBCMT:timeset.obj
 0003:000021d0       _pow10pos                  00000001800b21d0     LIBCMT:_constpow_.obj
 0003:00002330       _pow10neg                  00000001800b2330     LIBCMT:_constpow_.obj
 0003:00002490       _coninpfh                  00000001800b2490     LIBCMT:initcon.obj
 0003:00002498       _confh                     00000001800b2498     LIBCMT:initcon.obj
 0003:000024a0       _lpdays                    00000001800b24a0     LIBCMT:days.obj
 0003:000024d8       _days                      00000001800b24d8     LIBCMT:days.obj
 0003:00002530       ?m_edgeArray@dgCollisionSphere@@1PAVdgConvexSimplexEdge@@A 00000001800b2530     physics_2009:dgCollisionSphere.obj
 0003:00003130       ?m_shapeRefCount@dgCollisionSphere@@1HA 00000001800b3130     physics_2009:dgCollisionSphere.obj
 0003:00003140       ?m_unitSphere@dgCollisionSphere@@1PAVdgVector@@A 00000001800b3140     physics_2009:dgCollisionSphere.obj
 0003:00003260       ?m_iniliazised@dgConvexCollision@@1HA 00000001800b3260     physics_2009:dgConvexCollision.obj
 0003:00003270       ?m_zero@dgConvexCollision@@1VdgVector@@A 00000001800b3270     physics_2009:dgConvexCollision.obj
 0003:00003280       ?m_signMask@dgConvexCollision@@1VdgVector@@A 00000001800b3280     physics_2009:dgConvexCollision.obj
 0003:00003290       ?m_triplexMask@dgConvexCollision@@1VdgVector@@A 00000001800b3290     physics_2009:dgConvexCollision.obj
 0003:000032a0       ?m_multiResDir@dgConvexCollision@@1PAVdgVector@@A 00000001800b32a0     physics_2009:dgConvexCollision.obj
 0003:00003320       ?m_multiResDir_sse@dgConvexCollision@@1PAVdgVector@@A 00000001800b3320     physics_2009:dgConvexCollision.obj
 0003:00003380       ?m_vertex@dgCollisionHeightField@@0PAPEAVdgVector@@A 00000001800b3380     physics_2009:dgCollisionHeightField.obj
 0003:000033c0       ?m_vertexCount@dgCollisionHeightField@@0PAHA 00000001800b33c0     physics_2009:dgCollisionHeightField.obj
 0003:000033e0       ?m_refCount@dgCollisionHeightField@@0HA 00000001800b33e0     physics_2009:dgCollisionHeightField.obj
 0003:000033f0       ?m_negIndex@dgContactSolver@@2T__m128@@A 00000001800b33f0     physics_2009:dgMinkowskiConv.obj
 0003:00003400       ?m_zero@dgContactSolver@@2T__m128@@A 00000001800b3400     physics_2009:dgMinkowskiConv.obj
 0003:00003410       ?m_index_yx@dgContactSolver@@2T__m128@@A 00000001800b3410     physics_2009:dgMinkowskiConv.obj
 0003:00003420       ?m_index_wz@dgContactSolver@@2T__m128@@A 00000001800b3420     physics_2009:dgMinkowskiConv.obj
 0003:00003430       ?m_zeroTolerenace@dgContactSolver@@2T__m128@@A 00000001800b3430     physics_2009:dgMinkowskiConv.obj
 0003:00003440       ?m_nrh0p5@dgContactSolver@@2T__m128@@A 00000001800b3440     physics_2009:dgMinkowskiConv.obj
 0003:00003450       ?m_nrh3p0@dgContactSolver@@2T__m128@@A 00000001800b3450     physics_2009:dgMinkowskiConv.obj
 0003:00003460       ?m_negativeOne@dgContactSolver@@2T__m128@@A 00000001800b3460     physics_2009:dgMinkowskiConv.obj
 0003:00003470       ?m_dir@dgContactSolver@@2PAVdgVector@@A 00000001800b3470     physics_2009:dgMinkowskiConv.obj
 0003:00003550       ?m_edgeArray@dgCollisionCapsule@@0PAVdgConvexSimplexEdge@@A 00000001800b3550     physics_2009:dgCollisionCapsule.obj
 0003:00004bd0       ?m_shapeRefCount@dgCollisionCapsule@@0HA 00000001800b4bd0     physics_2009:dgCollisionCapsule.obj
 0003:00004be0       ?m_edgeArray@dgCollisionCone@@0PAVdgConvexSimplexEdge@@A 00000001800b4be0     physics_2009:dgCollisionCone.obj
 0003:00004fe0       ?m_shapeRefCount@dgCollisionCone@@0HA 00000001800b4fe0     physics_2009:dgCollisionCone.obj
 0003:00004ff0       ?m_edgeArray@dgCollisionCylinder@@0PAVdgConvexSimplexEdge@@A 00000001800b4ff0     physics_2009:dgCollisionCylinder.obj
 0003:000055f0       ?m_shapeRefCount@dgCollisionCylinder@@0HA 00000001800b55f0     physics_2009:dgCollisionCylinder.obj
 0003:00005600       ?m_edgeArray@dgCollisionChamferCylinder@@0PAVdgConvexSimplexEdge@@A 00000001800b5600     physics_2009:dgCollisionChamferCylinder.obj
 0003:00006800       ?m_shapeRefCount@dgCollisionChamferCylinder@@0HA 00000001800b6800     physics_2009:dgCollisionChamferCylinder.obj
 0003:00006810       ?m_shapesDirs@dgCollisionChamferCylinder@@0PAVdgVector@@A 00000001800b6810     physics_2009:dgCollisionChamferCylinder.obj
 0003:000068d4       __fastflag                 00000001800b68d4     LIBCMT:_fpinit_.obj
 0003:000068dc       __error_mode               00000001800b68dc     LIBCMT:dllcrt0.obj
 0003:000068e0       _aenvptr                   00000001800b68e0     LIBCMT:dllcrt0.obj
 0003:000068e8       _wenvptr                   00000001800b68e8     LIBCMT:dllcrt0.obj
 0003:000068f0       __app_type                 00000001800b68f0     LIBCMT:dllcrt0.obj
 0003:000068f8       _umaskval                  00000001800b68f8     LIBCMT:crt0dat.obj
 0003:000068fc       __argc                     00000001800b68fc     LIBCMT:crt0dat.obj
 0003:00006900       __argv                     00000001800b6900     LIBCMT:crt0dat.obj
 0003:00006908       __wargv                    00000001800b6908     LIBCMT:crt0dat.obj
 0003:00006910       _environ                   00000001800b6910     LIBCMT:crt0dat.obj
 0003:00006918       __initenv                  00000001800b6918     LIBCMT:crt0dat.obj
 0003:00006920       _wenviron                  00000001800b6920     LIBCMT:crt0dat.obj
 0003:00006928       __winitenv                 00000001800b6928     LIBCMT:crt0dat.obj
 0003:00006930       _pgmptr                    00000001800b6930     LIBCMT:crt0dat.obj
 0003:00006938       _wpgmptr                   00000001800b6938     LIBCMT:crt0dat.obj
 0003:00006940       _exitflag                  00000001800b6940     LIBCMT:crt0dat.obj
 0003:00006944       _C_Termination_Done        00000001800b6944     LIBCMT:crt0dat.obj
 0003:00006948       _C_Exit_Done               00000001800b6948     LIBCMT:crt0dat.obj
 0003:00006c68       _crtheap                   00000001800b6c68     LIBCMT:heapinit.obj
 0003:00006c70       ?_pnhHeap@@3P6AH_K@ZEA     00000001800b6c70     LIBCMT:handler.obj
 0003:00006c78       _newmode                   00000001800b6c78     LIBCMT:_newmode.obj
 0003:00006c7c       _maxwait                   00000001800b6c7c     LIBCMT:crtheap.obj
 0003:00006d90       __pInvalidArgHandler       00000001800b6d90     LIBCMT:invarg.obj
 0003:00006da0       __pPurecall                00000001800b6da0     LIBCMT:inithelp.obj
 0003:00006db0       __mbulinfo                 00000001800b6db0     LIBCMT:mbctype.obj
 0003:00006dbc       __mbcodepage               00000001800b6dbc     LIBCMT:mbctype.obj
 0003:00006dc0       __ismbcodepage             00000001800b6dc0     LIBCMT:mbctype.obj
 0003:00006dc4       __mblcid                   00000001800b6dc4     LIBCMT:mbctype.obj
 0003:00006dc8       __locale_changed           00000001800b6dc8     LIBCMT:setlocal.obj
 0003:00006dd0       __lc_handle                00000001800b6dd0     LIBCMT:nlsdata2.obj
 0003:00006de8       __lc_codepage              00000001800b6de8     LIBCMT:nlsdata2.obj
 0003:00006dec       __lc_collate_cp            00000001800b6dec     LIBCMT:nlsdata2.obj
 0003:00006df0       _outputformat              00000001800b6df0     LIBCMT:outputformat.obj
 0003:00007030       ?__pInconsistency@@3P6AXXZEA 00000001800b7030     LIBCMT:hooks.obj
 0003:00007098       _cflush                    00000001800b7098     LIBCMT:_file.obj
 0003:000070b0       __lconv_static_null        00000001800b70b0     LIBCMT:lconv.obj
 0003:00007630       _stdbuf                    00000001800b7630     LIBCMT:_sftbuf.obj
 0003:000076fc       _debugger_hook_dummy       00000001800b76fc     <common>
 0003:00007700       __piob                     00000001800b7700     <common>
 0003:00007720       _bufin                     00000001800b7720     <common>
 0003:00008720       _nstream                   00000001800b8720     <common>
 0003:00008728       _pDestructExceptionObject  00000001800b8728     <common>
 0003:00008730       _nhandle                   00000001800b8730     <common>
 0003:00008740       __pioinfo                  00000001800b8740     <common>
 0003:00008940       __env_initialized          00000001800b8940     <common>
 0003:00008948       __onexitend                00000001800b8948     <common>
 0003:00008950       __onexitbegin              00000001800b8950     <common>
 0003:00008958       __mbctype_initialized      00000001800b8958     <common>
 0003:00008960       __dyn_tls_init_callback    00000001800b8960     <common>
 0003:00008968       _acmdln                    00000001800b8968     <common>

 entry point at        0001:00091674

 Static symbols

 0001:0000b380       ?CompareIslands@@YAHQEBVdgIsland@@0PEAX@Z 000000018000c380 f   physics_2009:dgWorldDynamicUpdate.obj
 0001:00020a70       ?CompareContact@@YAHQEBVdgContactPoint@@0PEAX@Z 0000000180021a70 f   physics_2009:dgNarrowPhaseCollision.obj
 0001:0007e0c0       ?NormalizeVertex@InternalPolyhedra@@YAXHQEAVdgTriplex@@QEBMH@Z 000000018007f0c0 f   corelib_2009:dgPolyhedra.obj
 0001:0007e290       ?EdgePlane@InternalPolyhedra@@YA?AVdgBigPlane@@HHHQEBVdgTriplex@@@Z 000000018007f290 f   corelib_2009:dgPolyhedra.obj
 0001:0007e4b0       ?UnboundedLoopPlane@InternalPolyhedra@@YA?AVdgBigPlane@@HHHQEBVdgTriplex@@@Z 000000018007f4b0 f   corelib_2009:dgPolyhedra.obj
 0001:0007e700       ?BigFaceNormal@InternalPolyhedra@@YA?AVdgBigVector@@PEAVdgEdge@@QEBMH@Z 000000018007f700 f   corelib_2009:dgPolyhedra.obj
 0001:0007e950       ?CalculateVertexMetrics@InternalPolyhedra@@YAXQEAUVERTEX_METRIC_STRUCT@1@QEBVdgTriplex@@PEAVdgEdge@@@Z 000000018007f950 f   corelib_2009:dgPolyhedra.obj
 0001:0007ec50       ?IsEssensialPointDiagonal@InternalPolyhedra@@YA_NPEAVdgEdge@@AEBVdgBigVector@@QEBMH@Z 000000018007fc50 f   corelib_2009:dgPolyhedra.obj
 0001:0007f120       ?CalculateAllMetrics@InternalPolyhedra@@YAXPEBVdgPolyhedra@@QEAUVERTEX_METRIC_STRUCT@1@QEBVdgTriplex@@@Z 0000000180080120 f   corelib_2009:dgPolyhedra.obj
 0001:0007f5a0       ?EdgePenalty@InternalPolyhedra@@YAMAEBVdgPolyhedra@@QEBVdgTriplex@@PEAVdgEdge@@@Z 00000001800805a0 f   corelib_2009:dgPolyhedra.obj
 0001:0007ffa0       ?MatchTwins@InternalPolyhedra@@YA_NPEAVdgPolyhedra@@@Z 0000000180080fa0 f   corelib_2009:dgPolyhedra.obj
 0001:00080060       ?FindEarTip@InternalPolyhedra@@YAPEAVdgEdge@@AEBVdgPolyhedra@@PEAV2@QEBMHAEAV?$dgDownHeap@PEAVdgEdge@@M@@AEBVdgVector@@@Z 0000000180081060 f   corelib_2009:dgPolyhedra.obj
 0001:00080ea0       ?CloseOpenBounds@InternalPolyhedra@@YAXPEAVdgPolyhedra@@@Z 0000000180081ea0 f   corelib_2009:dgPolyhedra.obj
 0001:00082e20       ?MarkAdjacentCoplanarFaces@InternalPolyhedra@@YAXAEAVdgPolyhedra@@0PEAVdgEdge@@QEBMH@Z 0000000180083e20 f   corelib_2009:dgPolyhedra.obj
 0001:00083360       ?ConvexPartition@InternalPolyhedra@@YA_NAEAVdgPolyhedra@@QEBMH@Z 0000000180084360 f   corelib_2009:dgPolyhedra.obj
 0001:000842a0       ?TriangulateFace@InternalPolyhedra@@YAPEAVdgEdge@@AEAVdgPolyhedra@@PEAV2@QEBMHAEAV?$dgDownHeap@PEAVdgEdge@@M@@PEAVdgVector@@@Z 00000001800852a0 f   corelib_2009:dgPolyhedra.obj
 0001:00084b50       ?DetectSSE@@YA_NXZ         0000000180085b50 f   corelib_2009:dgTypes.obj
 0001:00084b50       ?DetectSSE_3@@YA_NXZ       0000000180085b50 f   corelib_2009:dgTypes.obj
 0001:00084f30       ?SortVertices@InternalGeoUtil@@YAHQEAMHHHHM@Z 0000000180085f30 f   corelib_2009:dgTypes.obj
 0001:00085990       ?QuickSortVertices@InternalGeoUtil@@YAHQEAMHHHHM@Z 0000000180086990 f   corelib_2009:dgTypes.obj
 0001:0008fe5c       __remainder_piby2f_inline  0000000180090e5c f   LIBCMT:_sincosf_.obj
 0001:0009155c       __DllMainCRTStartup        000000018009255c f   LIBCMT:dllcrt0.obj
 0001:0009254c       _callthreadstartex         000000018009354c f   LIBCMT:threadex.obj
 0001:00092578       _threadstartex             0000000180093578 f   LIBCMT:threadex.obj
 0001:00092a68       _cftoe2_l                  0000000180093a68 f   LIBCMT:cvt.obj
 0001:000931f8       _cftof2_l                  00000001800941f8 f   LIBCMT:cvt.obj
 0001:000936dc       _call_matherr              00000001800946dc f   LIBCMT:_libm_error_.obj
 0001:00093744       _exception_enabled         0000000180094744 f   LIBCMT:_libm_error_.obj
 0001:00093bc0       _initterm                  0000000180094bc0 f   LIBCMT:crt0dat.obj
 0001:00093ce0       doexit                     0000000180094ce0 f   LIBCMT:crt0dat.obj
 0001:00094c8c       parse_cmdline              0000000180095c8c f   LIBCMT:stdargv.obj
 0001:00095754       write_char                 0000000180096754 f   LIBCMT:output.obj
 0001:0009579c       write_multi_char           000000018009679c f   LIBCMT:output.obj
 0001:000957f0       write_string               00000001800967f0 f   LIBCMT:output.obj
 0001:000965d8       splitexp                   00000001800975d8 f   LIBCMT:_exp2_.obj
 0001:00096f3c       ?setSBCS@@YAXPEAUthreadmbcinfostruct@@@Z 0000000180097f3c f   LIBCMT:mbctype.obj
 0001:00096fd0       ?setSBUpLow@@YAXPEAUthreadmbcinfostruct@@@Z 0000000180097fd0 f   LIBCMT:mbctype.obj
 0001:00097270       ?getSystemCP@@YAHH@Z       0000000180098270 f   LIBCMT:mbctype.obj
 0001:00097a54       _updatetlocinfoEx_nolock   0000000180098a54 f   LIBCMT:setlocal.obj
 0001:0009958c       ?x_ismbbtype_l@@YAHPEAUlocaleinfo_struct@@IHH@Z 000000018009a58c f   LIBCMT:ismbbyte.obj
 0001:0009a6ec       ?__crtLCMapStringA_stat@@YAHPEAUlocaleinfo_struct@@KKPEBDHPEADHHH@Z 000000018009b6ec f   LIBCMT:a_map.obj
 0001:0009acc4       ?__crtGetStringTypeA_stat@@YAHPEAUlocaleinfo_struct@@KPEBDHPEAGHHH@Z 000000018009bcc4 f   LIBCMT:a_str.obj
 0001:0009dde4       flsall                     000000018009ede4 f   LIBCMT:fflush.obj
 0001:0009dee4       ?strtoxl@@YAKPEAUlocaleinfo_struct@@PEBDPEAPEBDHH@Z 000000018009eee4 f   LIBCMT:strtol.obj
 0001:0009ebf0       __DllMainCRTStartup$filt$0 000000018009fbf0 f   LIBCMT:dllcrt0.obj
 0001:0009ec0c       _onexit$fin$0              000000018009fc0c f   LIBCMT:onexit.obj
 0001:0009ec20       _callthreadstartex$filt$0  000000018009fc20 f   LIBCMT:threadex.obj
 0001:0009ec3c       doexit$fin$0               000000018009fc3c f   LIBCMT:crt0dat.obj
 0001:0009ec5e       _freefls$fin$1             000000018009fc5e f   LIBCMT:tidtable.obj
 0001:0009ec5e       _initptd$fin$1             000000018009fc5e f   LIBCMT:tidtable.obj
 0001:0009ec7e       _freefls$fin$0             000000018009fc7e f   LIBCMT:tidtable.obj
 0001:0009ec7e       _initptd$fin$0             000000018009fc7e f   LIBCMT:tidtable.obj
 0001:0009eca0       _IsNonwritableInCurrentImage$filt$0 000000018009fca0 f   LIBCMT:pesect.obj
 0001:0009ecc1       __updatetmbcinfo$fin$0     000000018009fcc1 f   LIBCMT:mbctype.obj
 0001:0009ecc1       _setmbcp$fin$0             000000018009fcc1 f   LIBCMT:mbctype.obj
 0001:0009ecda       __updatetlocinfo$fin$0     000000018009fcda f   LIBCMT:setlocal.obj
 0001:0009ecf3       _ctrlfp$filt$0             000000018009fcf3 f   LIBCMT:_ieee_.obj
 0001:0009ecf3       _control87$filt$0          000000018009fcf3 f   LIBCMT:_ieee_.obj
 0001:0009ed1e       _mtinitlocknum$fin$0       000000018009fd1e f   LIBCMT:mlock.obj
 0001:0009ed3a       raise$fin$0                000000018009fd3a f   LIBCMT:winsig.obj
 0001:0009ed56       __crtInitCritSecAndSpinCount$filt$0 000000018009fd56 f   LIBCMT:initcrit.obj
 0001:0009ed77       _lseeki64$fin$0            000000018009fd77 f   LIBCMT:lseeki64.obj
 0001:0009ed77       _write$fin$0               000000018009fd77 f   LIBCMT:lseeki64.obj
 0001:0009ed8e       __lock_fhandle$fin$0       000000018009fd8e f   LIBCMT:osfinfo.obj
 0001:0009eda7       _fcloseall$fin$0           000000018009fda7 f   LIBCMT:closeall.obj
 0001:0009edc0       flsall$fin$0               000000018009fdc0 f   LIBCMT:fflush.obj
 0001:0009edf0       flsall$fin$1               000000018009fdf0 f   LIBCMT:fflush.obj
 0001:0009ee09       fclose$fin$0               000000018009fe09 f   LIBCMT:fclose.obj
 0001:0009ee21       _close$fin$0               000000018009fe21 f   LIBCMT:commit.obj
 0001:0009ee21       _commit$fin$0              000000018009fe21 f   LIBCMT:commit.obj
 0001:0009ee40       ??__Eg_allocaror@dgInternalMemory@@YAXXZ 000000018009fe40 f   corelib_2009:dgMemory.obj
 0001:0009ee50       ??__Fg_allocaror@dgInternalMemory@@YAXXZ 000000018009fe50 f   corelib_2009:dgMemory.obj
