 newton

 Timestamp is 4a902631 (Sat Aug 22 10:09:05 2009)

 Preferred load address is 0000000180000000

 Start         Length     Name                   Class
 0001:00000000 0009769eH .text                   CODE
 0001:000976a0 0000001fH .text$0                 CODE
 0001:000976c0 00000080H .text$00                CODE
 0001:00097740 00000248H .text$x                 CODE
 0001:00097990 0000000cH .text$yc                CODE
 0001:000979a0 00000003H .text$yd                CODE
 0002:00000000 00000290H .idata$5                DATA
 0002:00000290 00000008H .CRT$XCA                DATA
 0002:00000298 00000008H .CRT$XCU                DATA
 0002:000002a0 00000008H .CRT$XCZ                DATA
 0002:000002a8 00000008H .CRT$XIA                DATA
 0002:000002b0 00000018H .CRT$XIC                DATA
 0002:000002c8 00000008H .CRT$XIZ                DATA
 0002:000002d0 00000008H .CRT$XPA                DATA
 0002:000002d8 00000008H .CRT$XPX                DATA
 0002:000002e0 00000008H .CRT$XPXA               DATA
 0002:000002e8 00000008H .CRT$XPZ                DATA
 0002:000002f0 00000008H .CRT$XTA                DATA
 0002:000002f8 00000008H .CRT$XTZ                DATA
 0002:00000300 00004f98H .rdata                  DATA
 0002:00005298 00000060H .rdata$debug            DATA
 0002:000052f8 00000008H .rtc$IAA                DATA
 0002:00005300 00000008H .rtc$IZZ                DATA
 0002:00005308 00000008H .rtc$TAA                DATA
 0002:00005310 00000008H .rtc$TZZ                DATA
 0002:00005318 00006e30H .xdata                  DATA
 0002:0000c148 00000014H .idata$2                DATA
 0002:0000c15c 00000014H .idata$3                DATA
 0002:0000c170 00000290H .idata$4                DATA
 0002:0000c400 000005e2H .idata$6                DATA
 0002:0000c9f0 000027aaH .edata                  DATA
 0003:00000000 00002a2cH .data                   DATA
 0003:00002a40 00006790H .bss                    DATA
 0004:00000000 00004c20H .pdata                  DATA

  Address         Publics by Value              Rva+Base               Lib:Object

 0000:00000000       ___safe_se_handler_count   0000000000000000     <absolute>
 0000:00000000       ___safe_se_handler_table   0000000000000000     <absolute>
 0000:00000000       __ImageBase                0000000180000000     <linker-defined>
 0001:00000000       DllMain                    0000000180001000 f   Newton.obj
 0001:00000010       NewtonGetMemoryUsed        0000000180001010 f   Newton.obj
 0001:00000020       NewtonInvalidateCache      0000000180001020 f   Newton.obj
 0001:00000030       NewtonSetPlatformArchitecture 0000000180001030 f   Newton.obj
 0001:00000040       NewtonGetPlatformArchitecture 0000000180001040 f   Newton.obj
 0001:00000050       NewtonSetThreadsCount      0000000180001050 f   Newton.obj
 0001:00000060       NewtonGetThreadsCount      0000000180001060 f   Newton.obj
 0001:00000070       NewtonSetMultiThreadSolverOnSingleIsland 0000000180001070 f   Newton.obj
 0001:00000080       NewtonGetMultiThreadSolverOnSingleIsland 0000000180001080 f   Newton.obj
 0001:00000090       NewtonSetSolverModel       0000000180001090 f   Newton.obj
 0001:000000a0       NewtonSetFrictionModel     00000001800010a0 f   Newton.obj
 0001:000000b0       NewtonSetPerformanceClock  00000001800010b0 f   Newton.obj
 0001:000000c0       NewtonReadPerformanceTicks 00000001800010c0 f   Newton.obj
 0001:000000d0       NewtonCollisionUpdate      00000001800010d0 f   Newton.obj
 0001:00000110       NewtonSetIslandUpdateEvent 0000000180001110 f   Newton.obj
 0001:00000120       NewtonSetCollisionDestructor 0000000180001120 f   Newton.obj
 0001:00000130       NewtonSetBodyLeaveWorldEvent 0000000180001130 f   Newton.obj
 0001:00000140       NewtonWorldGetVersion      0000000180001140 f   Newton.obj
 0001:00000150       NewtonWorldSetUserData     0000000180001150 f   Newton.obj
 0001:00000160       NewtonWorldGetUserData     0000000180001160 f   Newton.obj
 0001:00000170       NewtonWorldSetDestructorCallBack 0000000180001170 f   Newton.obj
 0001:00000180       NewtonWorldGetDestructorCallBack 0000000180001180 f   Newton.obj
 0001:00000190       NewtonWorldGetBodyCount    0000000180001190 f   Newton.obj
 0001:000001a0       NewtonWorldGetConstraintCount 00000001800011a0 f   Newton.obj
 0001:000001b0       NewtonIslandGetBody        00000001800011b0 f   Newton.obj
 0001:000001c0       NewtonMaterialGetDefaultGroupID 00000001800011c0 f   Newton.obj
 0001:000001d0       NewtonMaterialCreateGroupID 00000001800011d0 f   Newton.obj
 0001:000001e0       NewtonMaterialDestroyAllGroupID 00000001800011e0 f   Newton.obj
 0001:000001f0       NewtonMaterialSetDefaultCollidable 00000001800011f0 f   Newton.obj
 0001:00000220       NewtonMaterialSetContinuousCollisionMode 0000000180001220 f   Newton.obj
 0001:00000250       NewtonWorldGetFirstMaterial 0000000180001250 f   Newton.obj
 0001:00000260       NewtonWorldGetNextMaterial 0000000180001260 f   Newton.obj
 0001:00000270       NewtonMaterialGetContactFaceAttribute 0000000180001270 f   Newton.obj
 0001:00000280       NewtonMaterialGetContactPositionAndNormal 0000000180001280 f   Newton.obj
 0001:000002b0       NewtonMaterialGetContactTangentDirections 00000001800012b0 f   Newton.obj
 0001:000002f0       NewtonMaterialSetContactFrictionState 00000001800012f0 f   Newton.obj
 0001:00000320       NewtonMaterialSetContactNormalAcceleration 0000000180001320 f   Newton.obj
 0001:00000330       NewtonMaterialSetContactTangentAcceleration 0000000180001330 f   Newton.obj
 0001:00000360       NewtonCreateNull           0000000180001360 f   Newton.obj
 0001:00000370       NewtonCreateBox            0000000180001370 f   Newton.obj
 0001:00000420       NewtonCreateSphere         0000000180001420 f   Newton.obj
 0001:00000520       NewtonCreateCone           0000000180001520 f   Newton.obj
 0001:000005c0       NewtonCreateCapsule        00000001800015c0 f   Newton.obj
 0001:00000660       NewtonCreateCylinder       0000000180001660 f   Newton.obj
 0001:00000700       NewtonCreateChamferCylinder 0000000180001700 f   Newton.obj
 0001:000007a0       NewtonCreateConvexHullFromMesh 00000001800017a0 f   Newton.obj
 0001:000007b0       NewtonConvexHullModifierGetMatrix 00000001800017b0 f   Newton.obj
 0001:000007f0       NewtonConvexHullModifierSetMatrix 00000001800017f0 f   Newton.obj
 0001:00000800       NewtonCollisionIsTriggerVolume 0000000180001800 f   Newton.obj
 0001:00000820       NewtonCollisionSetAsTriggerVolume 0000000180001820 f   Newton.obj
 0001:00000830       NewtonConvexCollisionCalculateVolume 0000000180001830 f   Newton.obj
 0001:00000840       NewtonTreeCollisionSetUserRayCastCallback 0000000180001840 f   Newton.obj
 0001:00000850       NewtonTreeCollisionBeginBuild 0000000180001850 f   Newton.obj
 0001:00000860       NewtonTreeCollisionAddFace 0000000180001860 f   Newton.obj
 0001:00000880       NewtonTreeCollisionEndBuild 0000000180001880 f   Newton.obj
 0001:00000890       NewtonSceneCollisionCreateProxy 0000000180001890 f   Newton.obj
 0001:000008a0       NewtonSceneCollisionDestroyProxy 00000001800018a0 f   Newton.obj
 0001:000008b0       NewtonSceneCollisionOptimize 00000001800018b0 f   Newton.obj
 0001:000008c0       NewtonCollisionPointDistance 00000001800018c0 f   Newton.obj
 0001:000008f0       NewtonCollisionClosestPoint 00000001800018f0 f   Newton.obj
 0001:00000940       NewtonCollisionCollide     0000000180001940 f   Newton.obj
 0001:000009b0       NewtonCollisionCollideContinue 00000001800019b0 f   Newton.obj
 0001:00000a60       NewtonCollisionForEachPolygonDo 0000000180001a60 f   Newton.obj
 0001:00000ac0       NewtonCollisionMakeUnique  0000000180001ac0 f   Newton.obj
 0001:00000ad0       NewtonReleaseCollision     0000000180001ad0 f   Newton.obj
 0001:00000ae0       NewtonCollisionSerialize   0000000180001ae0 f   Newton.obj
 0001:00000af0       NewtonCreateCollisionFromSerialization 0000000180001af0 f   Newton.obj
 0001:00000b00       NewtonCollisionGetInfo     0000000180001b00 f   Newton.obj
 0001:00000b10       NewtonGetEulerAngle        0000000180001b10 f   Newton.obj
 0001:00000b50       NewtonCalculateSpringDamperAcceleration 0000000180001b50 f   Newton.obj
 0001:00000bc0       NewtonCreateBody           0000000180001bc0 f   Newton.obj
 0001:00000bd0       NewtonDestroyBody          0000000180001bd0 f   Newton.obj
 0001:00000be0       NewtonBodySetMatrix        0000000180001be0 f   Newton.obj
 0001:00000c40       NewtonBodyGetFirstJoint    0000000180001c40 f   Newton.obj
 0001:00000c50       NewtonBodyGetNextJoint     0000000180001c50 f   Newton.obj
 0001:00000c60       NewtonBodyGetFirstContactJoint 0000000180001c60 f   Newton.obj
 0001:00000c70       NewtonBodyGetNextContactJoint 0000000180001c70 f   Newton.obj
 0001:00000c80       NewtonBodySetCollision     0000000180001c80 f   Newton.obj
 0001:00000c90       NewtonBodySetFreezeState   0000000180001c90 f   Newton.obj
 0001:00000ca0       NewtonBallSetUserCallback  0000000180001ca0 f   Newton.obj
 0001:00000cb0       NewtonBallGetJointAngle    0000000180001cb0 f   Newton.obj
 0001:00000cf0       NewtonBallGetJointOmega    0000000180001cf0 f   Newton.obj
 0001:00000d30       NewtonBallGetJointForce    0000000180001d30 f   Newton.obj
 0001:00000d70       NewtonHingeCalculateStopAlpha 0000000180001d70 f   Newton.obj
 0001:00000d80       NewtonHingeGetJointForce   0000000180001d80 f   Newton.obj
 0001:00000dc0       NewtonHingeSetUserCallback 0000000180001dc0 f   Newton.obj
 0001:00000dc0       NewtonSliderSetUserCallback 0000000180001dc0 f   Newton.obj
 0001:00000dd0       NewtonSliderCalculateStopAccel 0000000180001dd0 f   Newton.obj
 0001:00000de0       NewtonSliderGetJointForce  0000000180001de0 f   Newton.obj
 0001:00000e20       NewtonCorkscrewGetJointVeloc 0000000180001e20 f   Newton.obj
 0001:00000e20       NewtonSliderGetJointVeloc  0000000180001e20 f   Newton.obj
 0001:00000e30       NewtonUniversalCalculateStopAlpha0 0000000180001e30 f   Newton.obj
 0001:00000e30       NewtonCorkscrewCalculateStopAlpha 0000000180001e30 f   Newton.obj
 0001:00000e40       NewtonCorkscrewCalculateStopAccel 0000000180001e40 f   Newton.obj
 0001:00000e50       NewtonUniversalSetUserCallback 0000000180001e50 f   Newton.obj
 0001:00000e50       NewtonCorkscrewSetUserCallback 0000000180001e50 f   Newton.obj
 0001:00000e60       NewtonSliderGetJointPosit  0000000180001e60 f   Newton.obj
 0001:00000e60       NewtonHingeGetJointAngle   0000000180001e60 f   Newton.obj
 0001:00000e60       NewtonUniversalGetJointAngle0 0000000180001e60 f   Newton.obj
 0001:00000e60       NewtonCorkscrewGetJointAngle 0000000180001e60 f   Newton.obj
 0001:00000e70       NewtonCorkscrewGetJointPosit 0000000180001e70 f   Newton.obj
 0001:00000e70       NewtonUniversalGetJointAngle1 0000000180001e70 f   Newton.obj
 0001:00000e80       NewtonHingeGetJointOmega   0000000180001e80 f   Newton.obj
 0001:00000e80       NewtonUniversalGetJointOmega0 0000000180001e80 f   Newton.obj
 0001:00000e80       NewtonCorkscrewGetJointOmega 0000000180001e80 f   Newton.obj
 0001:00000e90       NewtonUniversalGetJointOmega1 0000000180001e90 f   Newton.obj
 0001:00000ea0       NewtonUniversalCalculateStopAlpha1 0000000180001ea0 f   Newton.obj
 0001:00000eb0       NewtonCorkscrewGetJointForce 0000000180001eb0 f   Newton.obj
 0001:00000eb0       NewtonUniversalGetJointForce 0000000180001eb0 f   Newton.obj
 0001:00000ef0       NewtonUpVectorGetPin       0000000180001ef0 f   Newton.obj
 0001:00000f30       NewtonUserJointAddGeneralRow 0000000180001f30 f   Newton.obj
 0001:00000f40       NewtonUserJointSetRowMaximumFriction 0000000180001f40 f   Newton.obj
 0001:00000f50       NewtonUserJointSetRowMinimumFriction 0000000180001f50 f   Newton.obj
 0001:00000f60       NewtonUserJointSetRowAcceleration 0000000180001f60 f   Newton.obj
 0001:00000f70       NewtonUserJointSetRowSpringDamperAcceleration 0000000180001f70 f   Newton.obj
 0001:00000f80       NewtonUserJointSetRowStiffness 0000000180001f80 f   Newton.obj
 0001:00000f90       NewtonUserJointGetRowForce 0000000180001f90 f   Newton.obj
 0001:00000fa0       NewtonUserJointSetFeedbackCollectorCallback 0000000180001fa0 f   Newton.obj
 0001:00000fb0       NewtonJointSetUserData     0000000180001fb0 f   Newton.obj
 0001:00000fc0       NewtonJointGetUserData     0000000180001fc0 f   Newton.obj
 0001:00000fd0       NewtonJointGetInfo         0000000180001fd0 f   Newton.obj
 0001:00000fe0       NewtonJointSetStiffness    0000000180001fe0 f   Newton.obj
 0001:00000ff0       NewtonJointGetStiffness    0000000180001ff0 f   Newton.obj
 0001:00001000       NewtonJointSetDestructor   0000000180002000 f   Newton.obj
 0001:00001010       NewtonDestroyJoint         0000000180002010 f   Newton.obj
 0001:00001020       NewtonMeshDestroy          0000000180002020 f   Newton.obj
 0001:00001040       NewtonMeshCalculateVertexNormals 0000000180002040 f   Newton.obj
 0001:00001050       NewtonMeshApplySphericalMapping 0000000180002050 f   Newton.obj
 0001:00001060       NewtonMeshApplyBoxMapping  0000000180002060 f   Newton.obj
 0001:00001070       NewtonMeshApplyCylindricalMapping 0000000180002070 f   Newton.obj
 0001:00001080       NewtonMeshBeginFace        0000000180002080 f   Newton.obj
 0001:00001090       NewtonMeshAddFace          0000000180002090 f   Newton.obj
 0001:000010b0       NewtonMeshEndFace          00000001800020b0 f   Newton.obj
 0001:000010c0       NewtonMeshGetVertexCount   00000001800020c0 f   Newton.obj
 0001:000010d0       NewtonMeshGetVertexStreams 00000001800020d0 f   Newton.obj
 0001:00001100       NewtonMeshGetIndirectVertexStreams 0000000180002100 f   Newton.obj
 0001:00001180       NewtonMeshFirstMaterial    0000000180002180 f   Newton.obj
 0001:00001190       NewtonMeshNextMaterial     0000000180002190 f   Newton.obj
 0001:000011a0       NewtonMeshMaterialGetMaterial 00000001800021a0 f   Newton.obj
 0001:000011b0       NewtonMeshMaterialGetIndexCount 00000001800021b0 f   Newton.obj
 0001:000011c0       NewtonMeshMaterialGetIndexStream 00000001800021c0 f   Newton.obj
 0001:000011d0       NewtonMeshMaterialGetIndexStreamShort 00000001800021d0 f   Newton.obj
 0001:000011e0       NewtonDestroy              00000001800021e0 f   Newton.obj
 0001:00001230       NewtonWorldCriticalSectionLock 0000000180002230 f   Newton.obj
 0001:00001250       NewtonWorldCriticalSectionUnlock 0000000180002250 f   Newton.obj
 0001:00001270       NewtonUpdate               0000000180002270 f   Newton.obj
 0001:00001330       NewtonSetMinimumFrameRate  0000000180002330 f   Newton.obj
 0001:00001370       NewtonWorldGetFirstBody    0000000180002370 f   Newton.obj
 0001:00001390       NewtonWorldGetNextBody     0000000180002390 f   Newton.obj
 0001:000013b0       NewtonIslandGetBodyAABB    00000001800023b0 f   Newton.obj
 0001:00001420       NewtonMaterialSetSurfaceThickness 0000000180002420 f   Newton.obj
 0001:00001480       NewtonMaterialSetDefaultFriction 0000000180002480 f   Newton.obj
 0001:00001530       NewtonMaterialSetDefaultElasticity 0000000180002530 f   Newton.obj
 0001:00001590       NewtonMaterialSetDefaultSoftness 0000000180002590 f   Newton.obj
 0001:000015f0       NewtonMaterialSetCollisionCallback 00000001800025f0 f   Newton.obj
 0001:00001630       NewtonMaterialGetUserData  0000000180002630 f   Newton.obj
 0001:00001650       NewtonMaterialGetMaterialPairUserData 0000000180002650 f   Newton.obj
 0001:00001660       NewtonMaterialGetContactNormalSpeed 0000000180002660 f   Newton.obj
 0001:000017e0       NewtonMaterialGetContactForce 00000001800027e0 f   Newton.obj
 0001:000018a0       NewtonMaterialGetBodyCollisionID 00000001800028a0 f   Newton.obj
 0001:000018c0       NewtonMaterialSetContactSoftness 00000001800028c0 f   Newton.obj
 0001:000018f0       NewtonMaterialSetContactElasticity 00000001800028f0 f   Newton.obj
 0001:00001920       NewtonMaterialSetContactFrictionCoef 0000000180002920 f   Newton.obj
 0001:000019d0       NewtonCreateConvexHull     00000001800029d0 f   Newton.obj
 0001:00001a90       NewtonCreateConvexHullModifier 0000000180002a90 f   Newton.obj
 0001:00001ab0       NewtonCreateCompoundCollision 0000000180002ab0 f   Newton.obj
 0001:00001ad0       NewtonCreateCompoundCollisionFromMesh 0000000180002ad0 f   Newton.obj
 0001:00001b00       NewtonCollisionSetUserID   0000000180002b00 f   Newton.obj
 0001:00001b10       NewtonCollisionGetUserID   0000000180002b10 f   Newton.obj
 0001:00001b20       NewtonConvexHullGetFaceIndices 0000000180002b20 f   Newton.obj
 0001:00001b40       NewtonCreateTreeCollision  0000000180002b40 f   Newton.obj
 0001:00001b60       NewtonStaticCollisionSetDebugCallback 0000000180002b60 f   Newton.obj
 0001:00001b90       NewtonTreeCollisionGetFaceAtribute 0000000180002b90 f   Newton.obj
 0001:00001ba0       NewtonTreeCollisionSetFaceAtribute 0000000180002ba0 f   Newton.obj
 0001:00001bb0       NewtonCreateHeightFieldCollision 0000000180002bb0 f   Newton.obj
 0001:00001c00       NewtonCreateSceneCollision 0000000180002c00 f   Newton.obj
 0001:00001c20       NewtonSceneProxySetMatrix  0000000180002c20 f   Newton.obj
 0001:00001c40       NewtonSceneProxyGetMatrix  0000000180002c40 f   Newton.obj
 0001:00001c80       NewtonCollisionCalculateAABB 0000000180002c80 f   Newton.obj
 0001:00001cf0       NewtonAddCollisionReference 0000000180002cf0 f   Newton.obj
 0001:00001d00       NewtonBodySetUserData      0000000180002d00 f   Newton.obj
 0001:00001d10       NewtonBodyGetUserData      0000000180002d10 f   Newton.obj
 0001:00001d20       NewtonBodyGetWorld         0000000180002d20 f   Newton.obj
 0001:00001d30       NewtonBodySetTransformCallback 0000000180002d30 f   Newton.obj
 0001:00001d40       NewtonBodyGetTransformCallback 0000000180002d40 f   Newton.obj
 0001:00001d50       NewtonBodyGetForceAndTorqueCallback 0000000180002d50 f   Newton.obj
 0001:00001d60       NewtonBodySetDestructorCallback 0000000180002d60 f   Newton.obj
 0001:00001d70       NewtonBodySetMassMatrix    0000000180002d70 f   Newton.obj
 0001:00001ea0       NewtonBodyGetMassMatrix    0000000180002ea0 f   Newton.obj
 0001:00001f20       NewtonBodyGetInvMass       0000000180002f20 f   Newton.obj
 0001:00001fd0       NewtonBodySetMatrixRecursive 0000000180002fd0 f   Newton.obj
 0001:00002010       NewtonBodyGetMatrix        0000000180003010 f   Newton.obj
 0001:00002030       NewtonBodyGetRotation      0000000180003030 f   Newton.obj
 0001:00002060       NewtonBodyGetForceAcc      0000000180003060 f   Newton.obj
 0001:000020c0       NewtonBodyGetForce         00000001800030c0 f   Newton.obj
 0001:00002120       NewtonBodyCalculateInverseDynamicsForce 0000000180003120 f   Newton.obj
 0001:00002190       NewtonBodyGetTorque        0000000180003190 f   Newton.obj
 0001:000021f0       NewtonBodyGetTorqueAcc     00000001800031f0 f   Newton.obj
 0001:00002250       NewtonBodyGetCentreOfMass  0000000180003250 f   Newton.obj
 0001:000022b0       NewtonContactJointGetContactCount 00000001800032b0 f   Newton.obj
 0001:000022d0       NewtonContactJointGetFirstContact 00000001800032d0 f   Newton.obj
 0001:000022f0       NewtonContactJointGetNextContact 00000001800032f0 f   Newton.obj
 0001:00002310       NewtonContactGetMaterial   0000000180003310 f   Newton.obj
 0001:00002320       NewtonBodyAddBuoyancyForce 0000000180003320 f   Newton.obj
 0001:00002390       NewtonBodyGetCollision     0000000180003390 f   Newton.obj
 0001:000023a0       NewtonBodySetMaterialGroupID 00000001800033a0 f   Newton.obj
 0001:000023b0       NewtonBodyGetMaterialGroupID 00000001800033b0 f   Newton.obj
 0001:000023c0       NewtonBodySetContinuousCollisionMode 00000001800033c0 f   Newton.obj
 0001:000023e0       NewtonBodyGetContinuousCollisionMode 00000001800033e0 f   Newton.obj
 0001:000023f0       NewtonBodySetJointRecursiveCollision 00000001800033f0 f   Newton.obj
 0001:00002410       NewtonBodyGetJointRecursiveCollision 0000000180003410 f   Newton.obj
 0001:00002420       NewtonBodyGetFreezeState   0000000180003420 f   Newton.obj
 0001:00002430       NewtonBodySetAutoSleep     0000000180003430 f   Newton.obj
 0001:00002450       NewtonBodyGetAutoSleep     0000000180003450 f   Newton.obj
 0001:00002460       NewtonBodyGetSleepState    0000000180003460 f   Newton.obj
 0001:00002470       NewtonBodyGetAABB          0000000180003470 f   Newton.obj
 0001:000024c0       NewtonBodySetVelocity      00000001800034c0 f   Newton.obj
 0001:00002530       NewtonBodyGetVelocity      0000000180003530 f   Newton.obj
 0001:00002590       NewtonBodySetOmega         0000000180003590 f   Newton.obj
 0001:00002600       NewtonBodyGetOmega         0000000180003600 f   Newton.obj
 0001:00002660       NewtonBodyGetLinearDamping 0000000180003660 f   Newton.obj
 0001:00002680       NewtonBodyAddImpulse       0000000180003680 f   Newton.obj
 0001:00002700       NewtonConstraintCreateBall 0000000180003700 f   Newton.obj
 0001:00002740       NewtonBallSetConeLimits    0000000180003740 f   Newton.obj
 0001:00002b70       NewtonConstraintCreateHinge 0000000180003b70 f   Newton.obj
 0001:00002bf0       NewtonConstraintCreateSlider 0000000180003bf0 f   Newton.obj
 0001:00002c70       NewtonConstraintCreateCorkscrew 0000000180003c70 f   Newton.obj
 0001:00002cf0       NewtonConstraintCreateUniversal 0000000180003cf0 f   Newton.obj
 0001:00002da0       ?SetCentreOfMass@dgBody@@QEAAXAEBVdgVector@@@Z 0000000180003da0 f i Newton.obj
 0001:00002ec0       NewtonConstraintCreateUpVector 0000000180003ec0 f   Newton.obj
 0001:00002f00       NewtonUpVectorSetPin       0000000180003f00 f   Newton.obj
 0001:00002f40       NewtonConstraintCreateUserJoint 0000000180003f40 f   Newton.obj
 0001:00002fc0       NewtonUserJointAddLinearRow 0000000180003fc0 f   Newton.obj
 0001:00003120       NewtonUserJointAddAngularRow 0000000180004120 f   Newton.obj
 0001:00003230       NewtonJointGetBody0        0000000180004230 f   Newton.obj
 0001:00003240       NewtonJointGetBody1        0000000180004240 f   Newton.obj
 0001:00003270       NewtonJointSetCollisionState 0000000180004270 f   Newton.obj
 0001:00003290       NewtonJointGetCollisionState 0000000180004290 f   Newton.obj
 0001:000032a0       NewtonMeshCreate           00000001800042a0 f   Newton.obj
 0001:000032d0       NewtonMeshCreateFromCollision 00000001800042d0 f   Newton.obj
 0001:00003300       NewtonMeshPlaneClip        0000000180004300 f   Newton.obj
 0001:00003360       ?Unlink@?$dgList@VdgContactMaterial@@@@QEAAXPEAVdgListNode@1@@Z 0000000180004360 f i Newton.obj
 0001:000033d0       NewtonSetWorldSize         00000001800043d0 f   Newton.obj
 0001:00003440       NewtonWorldForEachBodyInAABBDo 0000000180004440 f   Newton.obj
 0001:000034b0       NewtonWorldRayCast         00000001800044b0 f   Newton.obj
 0001:00003540       NewtonWorldConvexCast      0000000180004540 f   Newton.obj
 0001:000035e0       NewtonMaterialGetContactTangentSpeed 00000001800045e0 f   Newton.obj
 0001:000037d0       NewtonMaterialSetContactNormalDirection 00000001800047d0 f   Newton.obj
 0001:00003b90       NewtonMaterialContactRotateTangentDirections 0000000180004b90 f   Newton.obj
 0001:00003d60       NewtonConvexCollisionCalculateInertialMatrix 0000000180004d60 f   Newton.obj
 0001:00003dd0       NewtonCreateUserMeshCollision 0000000180004dd0 f   Newton.obj
 0001:00003ea0       NewtonTreeCollisionGetVertexListIndexListInAABB 0000000180004ea0 f   Newton.obj
 0001:00003f90       NewtonCollisionSupportVertex 0000000180004f90 f   Newton.obj
 0001:00004180       NewtonCollisionRayCast     0000000180005180 f   Newton.obj
 0001:000043f0       NewtonSetEulerAngle        00000001800053f0 f   Newton.obj
 0001:000048d0       NewtonBodySetForce         00000001800058d0 f   Newton.obj
 0001:000049a0       NewtonBodySetTorque        00000001800059a0 f   Newton.obj
 0001:00004a70       NewtonBodySetCentreOfMass  0000000180005a70 f   Newton.obj
 0001:00004ac0       NewtonBodySetLinearDamping 0000000180005ac0 f   Newton.obj
 0001:00004b00       NewtonBodySetAngularDamping 0000000180005b00 f   Newton.obj
 0001:00004bb0       NewtonBodyGetAngularDamping 0000000180005bb0 f   Newton.obj
 0001:00004c00       ?AddForce@dgBody@@QEAAXAEBVdgVector@@@Z 0000000180005c00 f i Newton.obj
 0001:00004cf0       ?AddTorque@dgBody@@QEAAXAEBVdgVector@@@Z 0000000180005cf0 f i Newton.obj
 0001:00004de0       NewtonCreate               0000000180005de0 f   Newton.obj
 0001:00004ee0       NewtonDestroyAllBodies     0000000180005ee0 f   Newton.obj
 0001:00004f50       NewtonBodyAddForce         0000000180005f50 f   Newton.obj
 0001:00004f90       NewtonBodyAddTorque        0000000180005f90 f   Newton.obj
 0001:00004fd0       NewtonContactJointRemoveContact 0000000180005fd0 f   Newton.obj
 0001:00005010       NewtonWorldForEachJointDo  0000000180006010 f   Newton.obj
 0001:000051b0       ?Append@?$dgList@UNewtonMeshPartition@@@@QEAAPEAVdgListNode@1@XZ 00000001800061b0 f i NewtonAproximateConvexPartition.obj
 0001:000052a0       ?CalculateHulls@NewtonAproximateConvexPartition@@QEAAXPEBVdgVector@@H@Z 00000001800062a0 f   NewtonAproximateConvexPartition.obj
 0001:00005400       ?RemoveAll@?$dgList@UNewtonMeshPartition@@@@QEAAXXZ 0000000180006400 f i NewtonAproximateConvexPartition.obj
 0001:000054b0       ??0NewtonAproximateConvexPartition@@QEAA@AEBVNewtonMeshEffect@@NH@Z 00000001800064b0 f   NewtonAproximateConvexPartition.obj
 0001:00005550       ??1NewtonAproximateConvexPartition@@QEAA@XZ 0000000180006550 f   NewtonAproximateConvexPartition.obj
 0001:00005560       ?DefaultAllocMemory@Newton@@SAPEAXH@Z 0000000180006560 f   NewtonClass.obj
 0001:00005570       ?JacobianDerivative@NewtonUserJoint@@UEAAIAEAVdgContraintDescritor@@@Z 0000000180006570 f   NewtonClass.obj
 0001:000055b0       ?SetAcceleration@NewtonUserJoint@@QEAAXN@Z 00000001800065b0 f   NewtonClass.obj
 0001:000055e0       ?SetSpringDamperAcceleration@NewtonUserJoint@@QEAAXNN@Z 00000001800065e0 f   NewtonClass.obj
 0001:00005660       ?GetRowForce@NewtonUserJoint@@QEBANH@Z 0000000180006660 f   NewtonClass.obj
 0001:00005690       ?GetInfo@NewtonUserJoint@@UEBAXPEAVdgConstraintInfo@@@Z 0000000180006690 f   NewtonClass.obj
 0001:000056e0       ??_ENewtonUserJoint@@UEAAPEAXI@Z 00000001800066e0 f i NewtonClass.obj
 0001:000056e0       ??_GNewtonUserJoint@@UEAAPEAXI@Z 00000001800066e0 f i NewtonClass.obj
 0001:00005740       ?SetHighFriction@NewtonUserJoint@@QEAAXN@Z 0000000180006740 f   NewtonClass.obj
 0001:000057b0       ?SetLowerFriction@NewtonUserJoint@@QEAAXN@Z 00000001800067b0 f   NewtonClass.obj
 0001:00005820       ?SetRowStiffness@NewtonUserJoint@@QEAAXN@Z 0000000180006820 f   NewtonClass.obj
 0001:00005880       ?SetUpdateFeedbackFunction@NewtonUserJoint@@QEAAXP6AXPEBUNewtonJoint@@NH@Z@Z 0000000180006880 f   NewtonClass.obj
 0001:00005890       ?DestroyJoints@NewtonDeadJoints@@QEAAXAEAVNewton@@@Z 0000000180006890 f   NewtonClass.obj
 0001:00005920       ??1Newton@@QEAA@XZ         0000000180006920 f   NewtonClass.obj
 0001:00005990       ??0NewtonUserJoint@@QEAA@PEAVdgWorld@@HP6AXPEBUNewtonJoint@@NH@ZP6AX1PEAUNewtonJointRecord@@@ZPEAVdgBody@@5@Z 0000000180006990 f   NewtonClass.obj
 0001:00005a60       ?AddAngularRowJacobian@NewtonUserJoint@@QEAAXAEBVdgVector@@N@Z 0000000180006a60 f   NewtonClass.obj
 0001:00005b50       ?AddGeneralRowJacobian@NewtonUserJoint@@QEAAXPEBN0@Z 0000000180006b50 f   NewtonClass.obj
 0001:00005c40       ?AddLinearRowJacobian@NewtonUserJoint@@QEAAXAEBVdgVector@@00@Z 0000000180006c40 f   NewtonClass.obj
 0001:00005d30       ?Insert@?$dgTree@PEAVdgBody@@PEAX@@QEAAPEAVdgTreeNode@1@AEBQEAVdgBody@@PEAXAEA_N@Z 0000000180006d30 f i NewtonClass.obj
 0001:00005d30       ?Insert@?$dgTree@PEAVdgConstraint@@PEAX@@QEAAPEAVdgTreeNode@1@AEBQEAVdgConstraint@@PEAXAEA_N@Z 0000000180006d30 f i NewtonClass.obj
 0001:00005e10       ??0NewtonDeadJoints@@QEAA@XZ 0000000180006e10 f   NewtonClass.obj
 0001:00005e10       ??0NewtonDeadBodies@@QEAA@XZ 0000000180006e10 f   NewtonClass.obj
 0001:00005e80       ??0Newton@@QEAA@N@Z        0000000180006e80 f   NewtonClass.obj
 0001:00005ee0       ?DestroyJoint@Newton@@QEAAXPEAVdgConstraint@@@Z 0000000180006ee0 f   NewtonClass.obj
 0001:00005f20       ?DestroyBody@Newton@@QEAAXPEAVdgBody@@@Z 0000000180006f20 f   NewtonClass.obj
 0001:00005f60       ?DestroyBodies@NewtonDeadBodies@@QEAAXAEAVNewton@@@Z 0000000180006f60 f   NewtonClass.obj
 0001:000060e0       ?UpdatePhysics@Newton@@QEAAXN@Z 00000001800070e0 f   NewtonClass.obj
 0001:00006130       ?GetShapeFromCollision@NewtonMeshEffectBuilder@@SAXPEAXHPEBNH@Z 0000000180007130 f i NewtonMeshEffect.obj
 0001:00006260       ?AddVertex@NewtonMeshEffect@@AEAAXPEBNH@Z 0000000180007260 f   NewtonMeshEffect.obj
 0001:00006420       ?AddPolygon@NewtonMeshEffect@@QEAAXHPEBNHH@Z 0000000180007420 f   NewtonMeshEffect.obj
 0001:000064e0       ?GetVertexStreams@NewtonMeshEffect@@QEAAXHPEANH0H0@Z 00000001800074e0 f   NewtonMeshEffect.obj
 0001:00006600       ?GetIndirectVertexStreams@NewtonMeshEffect@@QEAAXHPEANPEAH1H011H011@Z 0000000180007600 f   NewtonMeshEffect.obj
 0001:00006870       ?GetNextMaterial@NewtonMeshEffect@@QEAAHH@Z 0000000180007870 f   NewtonMeshEffect.obj
 0001:000068b0       ?GetMaterialGetIndexStream@NewtonMeshEffect@@QEAAXHPEAH@Z 00000001800078b0 f   NewtonMeshEffect.obj
 0001:00006930       ?GetMaterialGetIndexStreamShort@NewtonMeshEffect@@QEAAXHPEAF@Z 0000000180007930 f   NewtonMeshEffect.obj
 0001:000069b0       ?CreateConvexAproximationCollision@NewtonMeshEffect@@QEBAPEAVdgCollision@@NH@Z 00000001800079b0 f   NewtonMeshEffect.obj
 0001:000069e0       ??0NewtonMeshEffect@@QEAA@_N@Z 00000001800079e0 f   NewtonMeshEffect.obj
 0001:00006a60       ??_ENewtonMeshEffect@@UEAAPEAXI@Z 0000000180007a60 f i NewtonMeshEffect.obj
 0001:00006a60       ??_GNewtonMeshEffect@@UEAAPEAXI@Z 0000000180007a60 f i NewtonMeshEffect.obj
 0001:00006ac0       ?EndPolygon@NewtonMeshEffect@@QEAAXXZ 0000000180007ac0 f   NewtonMeshEffect.obj
 0001:00006d20       ?CreateConvexCollision@NewtonMeshEffect@@QEBAPEAVdgCollision@@NH@Z 0000000180007d20 f   NewtonMeshEffect.obj
 0001:00006dc0       ??0NewtonMeshEffect@@QEAA@PEAVdgCollision@@@Z 0000000180007dc0 f   NewtonMeshEffect.obj
 0001:000070a0       ?GetAttriubeArray@NewtonMeshEffect@@AEAAXPEAUdgVertexAtribute@1@@Z 00000001800080a0 f   NewtonMeshEffect.obj
 0001:00007170       ?ApplyAttriubeArray@NewtonMeshEffect@@AEAAXPEAUdgVertexAtribute@1@@Z 0000000180008170 f   NewtonMeshEffect.obj
 0001:00007270       ?GetOrigin@NewtonMeshEffect@@AEBA?AVdgVector@@XZ 0000000180008270 f   NewtonMeshEffect.obj
 0001:000073c0       ?FixCylindricalMapping@NewtonMeshEffect@@AEBAXPEAUdgVertexAtribute@1@@Z 00000001800083c0 f   NewtonMeshEffect.obj
 0001:00007510       ?SphericalMapping@NewtonMeshEffect@@QEAAXH@Z 0000000180008510 f   NewtonMeshEffect.obj
 0001:00007810       ?CylindricalMapping@NewtonMeshEffect@@QEAAXHH@Z 0000000180008810 f   NewtonMeshEffect.obj
 0001:00007d00       ?BoxMapping@NewtonMeshEffect@@QEAAXHHH@Z 0000000180008d00 f   NewtonMeshEffect.obj
 0001:000080c0       ?CalcualetNormals@NewtonMeshEffect@@QEAAXN@Z 00000001800090c0 f   NewtonMeshEffect.obj
 0001:00008530       ?GetFirstMaterial@NewtonMeshEffect@@QEAAHXZ 0000000180009530 f   NewtonMeshEffect.obj
 0001:000086f0       ?CapClipFace@NewtonMeshEffect@@AEAA_NAEBVdgPlane@@AEBVdgMatrix@@HH@Z 00000001800096f0 f   NewtonMeshEffect.obj
 0001:00008a20       ?PlaneClip@NewtonMeshEffect@@QEAAHAEBVdgPlane@@AEBVdgMatrix@@PEAPEAV1@HH@Z 0000000180009a20 f   NewtonMeshEffect.obj
 0001:00009950       ?ModifierGetMatrix@dgCollision@@UEBA?AVdgMatrix@@XZ 000000018000a950 f i physics_2009:dgWorld.obj
 0001:00009980       ?Release@dgCollision@@UEAAHXZ 000000018000a980 f i physics_2009:dgWorld.obj
 0001:000099b0       ?GetSentinelBody@dgWorld@@QEBAPEAVdgBody@@XZ 000000018000a9b0 f   physics_2009:dgWorld.obj
 0001:000099c0       ?SetFrictionMode@dgWorld@@QEAAXH@Z 000000018000a9c0 f   physics_2009:dgWorld.obj
 0001:000099d0       ?SetHardwareMode@dgWorld@@QEAAXH@Z 000000018000a9d0 f   physics_2009:dgWorld.obj
 0001:00009a00       ?GetHardwareMode@dgWorld@@QEAAHPEAD@Z 000000018000aa00 f   physics_2009:dgWorld.obj
 0001:00009a50       ?SetThreadsCount@dgWorld@@QEAAXH@Z 000000018000aa50 f   physics_2009:dgWorld.obj
 0001:00009a90       ?GetThreadsCount@dgWorld@@QEBAHXZ 000000018000aa90 f   physics_2009:dgWorld.obj
 0001:00009aa0       ?EnableThreadOnSingleIsland@dgWorld@@QEAAXH@Z 000000018000aaa0 f   physics_2009:dgWorld.obj
 0001:00009ab0       ?GetThreadOnSingleIsland@dgWorld@@QEBAHXZ 000000018000aab0 f   physics_2009:dgWorld.obj
 0001:00009ac0       ?DestroyConstraint@dgWorld@@QEAAXPEAVdgConstraint@@@Z 000000018000aac0 f   physics_2009:dgWorld.obj
 0001:00009af0       ?UpdateCollision@dgWorld@@QEAAXXZ 000000018000aaf0 f   physics_2009:dgWorld.obj
 0001:00009b80       ?Update@dgWorld@@QEAAXN@Z  000000018000ab80 f   physics_2009:dgWorld.obj
 0001:00009c30       ?SetPerfomanceCounter@dgWorld@@QEAAXP6AIXZ@Z 000000018000ac30 f   physics_2009:dgWorld.obj
 0001:00009c80       ?SetUserData@dgWorld@@QEAAXPEAX@Z 000000018000ac80 f   physics_2009:dgWorld.obj
 0001:00009c90       ?GetUserData@dgWorld@@QEBAPEAXXZ 000000018000ac90 f   physics_2009:dgWorld.obj
 0001:00009ca0       ?SetIslandUpdateCallback@dgWorld@@QEAAXP6AIPEAXH@Z@Z 000000018000aca0 f   physics_2009:dgWorld.obj
 0001:00009cb0       ?SetDestroyCollisionCallback@dgWorld@@QEAAXP6AXPEAVdgCollision@@@Z@Z 000000018000acb0 f   physics_2009:dgWorld.obj
 0001:00009cc0       ?SetLeavingWorldCallback@dgWorld@@QEAAXP6AXPEAVdgBody@@H@Z@Z 000000018000acc0 f   physics_2009:dgWorld.obj
 0001:00009cd0       ?CreateBallConstraint@dgWorld@@QEAAPEAVdgBallConstraint@@AEBVdgVector@@PEAVdgBody@@1@Z 000000018000acd0 f   physics_2009:dgWorld.obj
 0001:00009d50       ?CreateHingeConstraint@dgWorld@@QEAAPEAVdgHingeConstraint@@AEBVdgVector@@0PEAVdgBody@@1@Z 000000018000ad50 f   physics_2009:dgWorld.obj
 0001:00009de0       ?CreateUpVectorConstraint@dgWorld@@QEAAPEAVdgUpVectorConstraint@@AEBVdgVector@@PEAVdgBody@@@Z 000000018000ade0 f   physics_2009:dgWorld.obj
 0001:00009e50       ?CreateSlidingConstraint@dgWorld@@QEAAPEAVdgSlidingConstraint@@AEBVdgVector@@0PEAVdgBody@@1@Z 000000018000ae50 f   physics_2009:dgWorld.obj
 0001:00009ee0       ?CreateCorkscrewConstraint@dgWorld@@QEAAPEAVdgCorkscrewConstraint@@AEBVdgVector@@0PEAVdgBody@@1@Z 000000018000aee0 f   physics_2009:dgWorld.obj
 0001:00009f70       ?CreateUniversalConstraint@dgWorld@@QEAAPEAVdgUniversalConstraint@@AEBVdgVector@@00PEAVdgBody@@1@Z 000000018000af70 f   physics_2009:dgWorld.obj
 0001:0000a000       ?GetConstraintsCount@dgWorld@@QEBAHXZ 000000018000b000 f   physics_2009:dgWorld.obj
 0001:0000a010       ?AddBodyImpulse@dgWorld@@QEAAXPEAVdgBody@@AEBVdgVector@@1@Z 000000018000b010 f   physics_2009:dgWorld.obj
 0001:0000a040       ??_EdgCollisionPoint@@UEAAPEAXI@Z 000000018000b040 f i physics_2009:dgWorld.obj
 0001:0000a040       ??_GdgCollisionPoint@@UEAAPEAXI@Z 000000018000b040 f i physics_2009:dgWorld.obj
 0001:0000a070       ??_GdgParallelSolverInitFeedbackUpdate@@UEAAPEAXI@Z 000000018000b070 f i physics_2009:dgWorld.obj
 0001:0000a070       ??_EdgWorkerThread@@UEAAPEAXI@Z 000000018000b070 f i physics_2009:dgWorld.obj
 0001:0000a070       ??_EdgSetTrreadRoundMode@dgWorld@@UEAAPEAXI@Z 000000018000b070 f i physics_2009:dgWorld.obj
 0001:0000a070       ??_GdgParallelSolverJointAcceleration@@UEAAPEAXI@Z 000000018000b070 f i physics_2009:dgWorld.obj
 0001:0000a070       ??_EdgParallelSolverBuildJacobianRows@@UEAAPEAXI@Z 000000018000b070 f i physics_2009:dgWorld.obj
 0001:0000a070       ??_GdgParallelSolverCalculateForces@@UEAAPEAXI@Z 000000018000b070 f i physics_2009:dgWorld.obj
 0001:0000a070       ??_GdgSolverWorlkerThreads@@UEAAPEAXI@Z 000000018000b070 f i physics_2009:dgWorld.obj
 0001:0000a070       ??_EdgParallelSolverJointAcceleration@@UEAAPEAXI@Z 000000018000b070 f i physics_2009:dgWorld.obj
 0001:0000a070       ??_EdgBroadPhaseCellPairsWorkerThread@@UEAAPEAXI@Z 000000018000b070 f i physics_2009:dgBroadPhaseCollision.obj
 0001:0000a070       ??_GdgSetTrreadRoundMode@dgWorld@@UEAAPEAXI@Z 000000018000b070 f i physics_2009:dgWorld.obj
 0001:0000a070       ??_GdgWorkerThread@@UEAAPEAXI@Z 000000018000b070 f i physics_2009:dgWorld.obj
 0001:0000a070       ??_GdgParallelSolverBuildJacobianMatrix@@UEAAPEAXI@Z 000000018000b070 f i physics_2009:dgWorld.obj
 0001:0000a070       ??_GdgBroadPhaseMaterialCallbackWorkerThread@@UEAAPEAXI@Z 000000018000b070 f i physics_2009:dgBroadPhaseCollision.obj
 0001:0000a070       ??_GdgParallelSolverUpdateForce@@UEAAPEAXI@Z 000000018000b070 f i physics_2009:dgWorld.obj
 0001:0000a070       ??_EdgParallelSolverBodyInertia@@UEAAPEAXI@Z 000000018000b070 f i physics_2009:dgWorld.obj
 0001:0000a070       ??_EdgBroadPhaseCalculateContactsWorkerThread@@UEAAPEAXI@Z 000000018000b070 f i physics_2009:dgBroadPhaseCollision.obj
 0001:0000a070       ??_GdgParallelSolverUpdateVeloc@@UEAAPEAXI@Z 000000018000b070 f i physics_2009:dgWorld.obj
 0001:0000a070       ??_GdgParallelSolverBuildJacobianRows@@UEAAPEAXI@Z 000000018000b070 f i physics_2009:dgWorld.obj
 0001:0000a070       ??_EdgParallelSolverBuildJacobianMatrix@@UEAAPEAXI@Z 000000018000b070 f i physics_2009:dgWorld.obj
 0001:0000a070       ??_GdgParallelSolverClear@@UEAAPEAXI@Z 000000018000b070 f i physics_2009:dgWorld.obj
 0001:0000a070       ??_EdgParallelSolverInitFeedbackUpdate@@UEAAPEAXI@Z 000000018000b070 f i physics_2009:dgWorld.obj
 0001:0000a070       ??_EdgSolverWorlkerThreads@@UEAAPEAXI@Z 000000018000b070 f i physics_2009:dgWorld.obj
 0001:0000a070       ??_GdgParallelSolverBodyInertia@@UEAAPEAXI@Z 000000018000b070 f i physics_2009:dgWorld.obj
 0001:0000a070       ??_EdgParallelSolverCalculateForces@@UEAAPEAXI@Z 000000018000b070 f i physics_2009:dgWorld.obj
 0001:0000a070       ??_GdgBroadPhaseApplyExternalForce@@UEAAPEAXI@Z 000000018000b070 f i physics_2009:dgBroadPhaseCollision.obj
 0001:0000a070       ??_EdgParallelSolverInitInternalForces@@UEAAPEAXI@Z 000000018000b070 f i physics_2009:dgWorld.obj
 0001:0000a070       ??_EdgParallelSolverUpdateForce@@UEAAPEAXI@Z 000000018000b070 f i physics_2009:dgWorld.obj
 0001:0000a070       ??_EdgBroadPhaseMaterialCallbackWorkerThread@@UEAAPEAXI@Z 000000018000b070 f i physics_2009:dgBroadPhaseCollision.obj
 0001:0000a070       ??_EdgBroadPhaseApplyExternalForce@@UEAAPEAXI@Z 000000018000b070 f i physics_2009:dgBroadPhaseCollision.obj
 0001:0000a070       ??_GdgBroadPhaseCellPairsWorkerThread@@UEAAPEAXI@Z 000000018000b070 f i physics_2009:dgBroadPhaseCollision.obj
 0001:0000a070       ??_EdgParallelSolverClear@@UEAAPEAXI@Z 000000018000b070 f i physics_2009:dgWorld.obj
 0001:0000a070       ??_GdgBroadPhaseCalculateContactsWorkerThread@@UEAAPEAXI@Z 000000018000b070 f i physics_2009:dgBroadPhaseCollision.obj
 0001:0000a070       ??_GdgParallelSolverInitInternalForces@@UEAAPEAXI@Z 000000018000b070 f i physics_2009:dgWorld.obj
 0001:0000a070       ??_EdgParallelSolverUpdateVeloc@@UEAAPEAXI@Z 000000018000b070 f i physics_2009:dgWorld.obj
 0001:0000a0a0       ?SetSolverMode@dgWorld@@QEAAXH@Z 000000018000b0a0 f   physics_2009:dgWorld.obj
 0001:0000a0b0       ?RemoveAllGroupID@dgWorld@@QEAAXXZ 000000018000b0b0 f   physics_2009:dgWorld.obj
 0001:0000a110       ?DestroyBody@dgWorld@@QEAAXPEAVdgBody@@@Z 000000018000b110 f   physics_2009:dgWorld.obj
 0001:0000a180       ?GetPerfomanceTicks@dgWorld@@QEBAII@Z 000000018000b180 f   physics_2009:dgWorld.obj
 0001:0000a1a0       ?GetBodiesCount@dgWorld@@QEBAHXZ 000000018000b1a0 f   physics_2009:dgWorld.obj
 0001:0000a1b0       ?AreBodyConnectedByJoints@dgWorld@@AEAA_NPEAVdgBody@@0@Z 000000018000b1b0 f   physics_2009:dgWorld.obj
 0001:0000a2a0       ?FlushCache@dgWorld@@QEAAXXZ 000000018000b2a0 f   physics_2009:dgWorld.obj
 0001:0000a320       ??0dgWorldDynamicUpdate@@QEAA@XZ 000000018000b320 f i physics_2009:dgWorld.obj
 0001:0000a950       ??1dgWorldDynamicUpdate@@QEAA@XZ 000000018000b950 f i physics_2009:dgWorld.obj
 0001:0000aac0       ?DestroyAllBodies@dgWorld@@QEAAXXZ 000000018000bac0 f   physics_2009:dgWorld.obj
 0001:0000ab60       ?CreateBody@dgWorld@@QEAAPEAVdgBody@@PEAVdgCollision@@@Z 000000018000bb60 f   physics_2009:dgWorld.obj
 0001:0000ace0       ?BodySetMatrix@dgWorld@@QEAAXPEAVdgBody@@AEBVdgMatrix@@@Z 000000018000bce0 f   physics_2009:dgWorld.obj
 0001:0000b0c0       ??1dgWorld@@QEAA@XZ        000000018000c0c0 f   physics_2009:dgWorld.obj
 0001:0000b300       ??0dgWorld@@QEAA@XZ        000000018000c300 f   physics_2009:dgWorld.obj
 0001:0000b910       ?GetIslandBody@dgWorld@@QEBAPEAVdgBody@@PEBXH@Z 000000018000c910 f   physics_2009:dgWorldDynamicUpdate.obj
 0001:0000b940       ?ReallocBodyMemory@dgWorldDynamicUpdate@@AEAAXH@Z 000000018000c940 f   physics_2009:dgWorldDynamicUpdate.obj
 0001:0000ba20       ?ReallocIslandMemory@dgWorldDynamicUpdate@@AEAAXH@Z 000000018000ca20 f   physics_2009:dgWorldDynamicUpdate.obj
 0001:0000bb10       ?ReallocJointsMemory@dgWorldDynamicUpdate@@AEAAXH@Z 000000018000cb10 f   physics_2009:dgWorldDynamicUpdate.obj
 0001:0000bbf0       ?ReallocJacobiansMemory@dgWorldDynamicUpdate@@AEAAXHH@Z 000000018000cbf0 f   physics_2009:dgWorldDynamicUpdate.obj
 0001:0000bf00       ?ReallocIntenalForcesMemory@dgWorldDynamicUpdate@@AEAAXHH@Z 000000018000cf00 f   physics_2009:dgWorldDynamicUpdate.obj
 0001:0000c040       ?GetJacobialDerivativesParallel@dgWorldDynamicUpdate@@AEAAHAEBVdgIsland@@_NHN@Z 000000018000d040 f   physics_2009:dgWorldDynamicUpdate.obj
 0001:0000c1a0       ?ThreadExecute@dgParallelSolverJointAcceleration@@UEAAXXZ 000000018000d1a0 f   physics_2009:dgWorldDynamicUpdate.obj
 0001:0000c3c0       ?ThreadExecute@dgParallelSolverInitFeedbackUpdate@@UEAAXXZ 000000018000d3c0 f   physics_2009:dgWorldDynamicUpdate.obj
 0001:0000c500       ??$dgSort@VdgIsland@@@@YAXQEAVdgIsland@@HP6AHQEBV0@1PEAX@Z2@Z 000000018000d500 f i physics_2009:dgWorldDynamicUpdate.obj
 0001:0000c800       ?BuildIsland@dgWorldDynamicUpdate@@AEAAXAEAV?$dgQueue@PEAVdgBody@@@@HHH@Z 000000018000d800 f   physics_2009:dgWorldDynamicUpdate.obj
 0001:0000cb00       ?SpanningTree@dgWorldDynamicUpdate@@AEAAXPEAVdgBody@@@Z 000000018000db00 f   physics_2009:dgWorldDynamicUpdate.obj
 0001:0000d020       ?IntegrateArray@dgWorldDynamicUpdate@@AEBAXPEBVdgBodyInfo@@HNNH_N@Z 000000018000e020 f   physics_2009:dgWorldDynamicUpdate.obj
 0001:0000d700       ?ApplyExternalForcesAndAcceleration@dgJacobianMemory@@QEBAXN@Z 000000018000e700 f   physics_2009:dgWorldDynamicUpdate.obj
 0001:0000e570       ?SwapRows@dgJacobianMemory@@QEBAXHH@Z 000000018000f570 f   physics_2009:dgWorldDynamicUpdate.obj
 0001:0000e770       ?CalculateSimpleBodyReactionsForces@dgJacobianMemory@@QEBAXN@Z 000000018000f770 f   physics_2009:dgWorldDynamicUpdate.obj
 0001:00010780       ?CalculateJointForces@dgJacobianMemory@@QEBANHPEANN@Z 0000000180011780 f   physics_2009:dgWorldDynamicUpdate.obj
 0001:00012040       ?CalculateForcesGameMode@dgJacobianMemory@@QEBAXHN@Z 0000000180013040 f   physics_2009:dgWorldDynamicUpdate.obj
 0001:00013c40       ?ThreadExecute@dgParallelSolverBuildJacobianRows@@UEAAXXZ 0000000180014c40 f   physics_2009:dgWorldDynamicUpdate.obj
 0001:00014400       ?BuildJacobianMatrixParallel@dgWorldDynamicUpdate@@AEAAXAEBVdgIsland@@NH@Z 0000000180015400 f   physics_2009:dgWorldDynamicUpdate.obj
 0001:000147d0       ?ThreadExecute@dgParallelSolverClear@@UEAAXXZ 00000001800157d0 f   physics_2009:dgWorldDynamicUpdate.obj
 0001:00014950       ?ThreadExecute@dgParallelSolverInitInternalForces@@UEAAXXZ 0000000180015950 f   physics_2009:dgWorldDynamicUpdate.obj
 0001:000152c0       ?ThreadExecute@dgParallelSolverUpdateVeloc@@UEAAXXZ 00000001800162c0 f   physics_2009:dgWorldDynamicUpdate.obj
 0001:00015540       ?ThreadExecute@dgParallelSolverUpdateForce@@UEAAXXZ 0000000180016540 f   physics_2009:dgWorldDynamicUpdate.obj
 0001:00015a80       ?ThreadExecute@dgParallelSolverCalculateForces@@UEAAXXZ 0000000180016a80 f   physics_2009:dgWorldDynamicUpdate.obj
 0001:00016140       ?CalculateForcesGameModeParallel@dgJacobianMemory@@QEBAXHNH@Z 0000000180017140 f   physics_2009:dgWorldDynamicUpdate.obj
 0001:00016bd0       ?AddDamingAcceleration@dgBody@@AEAAXXZ 0000000180017bd0 f i physics_2009:dgWorldDynamicUpdate.obj
 0001:00016de0       ?CalculateForcesSimulationMode@dgJacobianMemory@@QEBAXN@Z 0000000180017de0 f   physics_2009:dgWorldDynamicUpdate.obj
 0001:0001af90       ?ThreadExecute@dgParallelSolverBodyInertia@@UEAAXXZ 000000018001bf90 f   physics_2009:dgWorldDynamicUpdate.obj
 0001:0001b030       ?UpdateDynamics@dgWorldDynamicUpdate@@AEAAXPEAVdgWorld@@HN@Z 000000018001c030 f   physics_2009:dgWorldDynamicUpdate.obj
 0001:0001b530       ?ThreadExecute@dgParallelSolverBuildJacobianMatrix@@UEAAXXZ 000000018001c530 f   physics_2009:dgWorldDynamicUpdate.obj
 0001:0001bd50       ?GetJacobialDerivatives@dgWorldDynamicUpdate@@AEAAHAEBVdgIsland@@H_NHN@Z 000000018001cd50 f   physics_2009:dgWorldDynamicUpdate.obj
 0001:0001c5a0       ?BuildJacobianMatrix@dgWorldDynamicUpdate@@AEAAXAEBVdgIsland@@HN@Z 000000018001d5a0 f   physics_2009:dgWorldDynamicUpdate.obj
 0001:0001cf50       ?ThreadExecute@dgSolverWorlkerThreads@@UEAAXXZ 000000018001df50 f   physics_2009:dgWorldDynamicUpdate.obj
 0001:0001d900       ?CreateConvexModifier@dgWorld@@QEAAPEAVdgCollision@@PEAV2@@Z 000000018001e900 f   physics_2009:dgNarrowPhaseCollision.obj
 0001:0001d960       ?CreateCompoundCollision@dgWorld@@QEAAPEAVdgCollision@@HQEBQEAV2@@Z 000000018001e960 f   physics_2009:dgNarrowPhaseCollision.obj
 0001:0001d9c0       ?CreateBVH@dgWorld@@QEAAPEAVdgCollision@@XZ 000000018001e9c0 f   physics_2009:dgNarrowPhaseCollision.obj
 0001:0001d9f0       ?CreateStaticUserMesh@dgWorld@@QEAAPEAVdgCollision@@AEBVdgVector@@0AEBVdgUserMeshCreation@@@Z 000000018001e9f0 f   physics_2009:dgNarrowPhaseCollision.obj
 0001:0001da50       ?CreateBVHFieldCollision@dgWorld@@QEAAPEAVdgCollision@@HHHPEAGPEADNN@Z 000000018001ea50 f   physics_2009:dgNarrowPhaseCollision.obj
 0001:0001daf0       ?CreateScene@dgWorld@@QEAAPEAVdgCollision@@XZ 000000018001eaf0 f   physics_2009:dgNarrowPhaseCollision.obj
 0001:0001db20       ?Serialize@dgWorld@@QEBAXPEAVdgCollision@@P6AXPEAXPEBX_K@Z1@Z 000000018001eb20 f   physics_2009:dgNarrowPhaseCollision.obj
 0001:0001dba0       ?GetDefualtBodyGroupID@dgWorld@@QEBAIXZ 000000018001eba0 f   physics_2009:dgNarrowPhaseCollision.obj
 0001:0001dbb0       ??$dgSort@VdgContactPoint@@@@YAXQEAVdgContactPoint@@HP6AHQEBV0@1PEAX@Z2@Z 000000018001ebb0 f i physics_2009:dgNarrowPhaseCollision.obj
 0001:0001de60       ?GetFirstMaterial@dgWorld@@QEBAPEAVdgContactMaterial@@XZ 000000018001ee60 f   physics_2009:dgNarrowPhaseCollision.obj
 0001:0001de90       ?GetNextMaterial@dgWorld@@QEBAPEAVdgContactMaterial@@PEAV2@@Z 000000018001ee90 f   physics_2009:dgNarrowPhaseCollision.obj
 0001:0001def0       ?ReduceContacts@dgWorld@@AEBAHHQEAVdgContactPoint@@HNH@Z 000000018001eef0 f   physics_2009:dgNarrowPhaseCollision.obj
 0001:0001e0d0       ?PruneContacts@dgWorld@@AEBAHHQEAVdgContactPoint@@H@Z 000000018001f0d0 f   physics_2009:dgNarrowPhaseCollision.obj
 0001:0001e2a0       ?ProcessCachedContacts@dgWorld@@AEBAXPEAVdgContact@@PEBVdgContactMaterial@@NH@Z 000000018001f2a0 f   physics_2009:dgNarrowPhaseCollision.obj
 0001:0001e3b0       ?ProcessTriggers@dgWorld@@AEAAXAEAUdgPair@dgCollidingPairCollector@@NH@Z 000000018001f3b0 f   physics_2009:dgNarrowPhaseCollision.obj
 0001:0001e4e0       ?ValidateContactCache@dgWorld@@AEBAHPEAVdgBody@@0PEAVdgContact@@@Z 000000018001f4e0 f   physics_2009:dgNarrowPhaseCollision.obj
 0001:0001ed10       ?CompoundContactsSimd@dgWorld@@AEBAXQEAUdgPair@dgCollidingPairCollector@@AEAVdgCollisionParamProxi@@@Z 000000018001fd10 f   physics_2009:dgNarrowPhaseCollision.obj
 0001:0001f610       ?CompoundContacts@dgWorld@@AEBAXQEAUdgPair@dgCollidingPairCollector@@AEAVdgCollisionParamProxi@@@Z 0000000180020610 f   physics_2009:dgNarrowPhaseCollision.obj
 0001:00020500       ?ConvexContactsSimd@dgWorld@@AEBAXQEAUdgPair@dgCollidingPairCollector@@AEAVdgCollisionParamProxi@@@Z 0000000180021500 f   physics_2009:dgNarrowPhaseCollision.obj
 0001:00020670       ?ConvexContacts@dgWorld@@AEBAXQEAUdgPair@dgCollidingPairCollector@@AEAVdgCollisionParamProxi@@@Z 0000000180021670 f   physics_2009:dgNarrowPhaseCollision.obj
 0001:000207e0       ?SceneContacts@dgWorld@@AEBAXAEBUdgProxy@dgCollisionScene@@QEAUdgPair@dgCollidingPairCollector@@AEAVdgCollisionParamProxi@@@Z 00000001800217e0 f   physics_2009:dgNarrowPhaseCollision.obj
 0001:00020910       ?SceneContacts@dgWorld@@AEBAXQEAUdgPair@dgCollidingPairCollector@@AEAVdgCollisionParamProxi@@@Z 0000000180021910 f   physics_2009:dgNarrowPhaseCollision.obj
 0001:000209f0       ?SceneContactsSimd@dgWorld@@AEBAXQEAUdgPair@dgCollidingPairCollector@@AEAVdgCollisionParamProxi@@@Z 00000001800219f0 f   physics_2009:dgNarrowPhaseCollision.obj
 0001:00020ad0       ?Append@?$dgList@VdgContactMaterial@@@@QEAAPEAVdgListNode@1@XZ 0000000180021ad0 f i physics_2009:dgNarrowPhaseCollision.obj
 0001:00020bd0       ?GetMaterial@dgWorld@@QEBAPEAVdgContactMaterial@@II@Z 0000000180021bd0 f   physics_2009:dgNarrowPhaseCollision.obj
 0001:00020c20       ?RemoveFromCache@dgWorld@@QEAAXPEAVdgCollision@@@Z 0000000180021c20 f   physics_2009:dgNarrowPhaseCollision.obj
 0001:00020ca0       ?ReleaseCollision@dgWorld@@QEAAXPEAVdgCollision@@@Z 0000000180021ca0 f   physics_2009:dgNarrowPhaseCollision.obj
 0001:00020d70       ?ClosestCompoundPoint@dgWorld@@AEBAHPEAVdgBody@@0AEAVdgTriplex@@11H@Z 0000000180021d70 f   physics_2009:dgNarrowPhaseCollision.obj
 0001:000212c0       ?CalculateContactsSimd@dgWorld@@AEAAXQEAUdgPair@dgCollidingPairCollector@@NH@Z 00000001800222c0 f   physics_2009:dgNarrowPhaseCollision.obj
 0001:00021440       ?CalculateContacts@dgWorld@@AEAAXQEAUdgPair@dgCollidingPairCollector@@NH@Z 0000000180022440 f   physics_2009:dgNarrowPhaseCollision.obj
 0001:000215d0       ?CollideContinueSimd@dgWorld@@QEAAHPEAVdgCollision@@AEBVdgMatrix@@AEBVdgVector@@20122AEANPEAVdgTriplex@@4PEANHH@Z 00000001800225d0 f   physics_2009:dgNarrowPhaseCollision.obj
 0001:00021e40       ?CollideContinue@dgWorld@@QEAAHPEAVdgCollision@@AEBVdgMatrix@@AEBVdgVector@@20122AEANPEAVdgTriplex@@4PEANHH@Z 0000000180022e40 f   physics_2009:dgNarrowPhaseCollision.obj
 0001:000226a0       ?Collide@dgWorld@@QEAAHPEAVdgCollision@@AEBVdgMatrix@@01PEAVdgTriplex@@2PEANHH@Z 00000001800236a0 f   physics_2009:dgNarrowPhaseCollision.obj
 0001:00022bd0       ?ClosestPoint@dgWorld@@QEBAHPEAVdgCollision@@AEBVdgMatrix@@01AEAVdgTriplex@@22H@Z 0000000180023bd0 f   physics_2009:dgNarrowPhaseCollision.obj
 0001:00022fb0       ?ProcessContacts@dgWorld@@AEAAXAEAUdgPair@dgCollidingPairCollector@@NH@Z 0000000180023fb0 f   physics_2009:dgNarrowPhaseCollision.obj
 0001:00024050       ?ClosestPoint@dgWorld@@QEBAHAEAVdgTriplex@@PEAVdgCollision@@AEBVdgMatrix@@00H@Z 0000000180025050 f   physics_2009:dgNarrowPhaseCollision.obj
 0001:00024120       ?CreateNull@dgWorld@@QEAAPEAVdgCollision@@XZ 0000000180025120 f   physics_2009:dgNarrowPhaseCollision.obj
 0001:00024260       ?CreateBox@dgWorld@@QEAAPEAVdgCollision@@NNNHAEBVdgMatrix@@@Z 0000000180025260 f   physics_2009:dgNarrowPhaseCollision.obj
 0001:000244b0       ?CreateSphere@dgWorld@@QEAAPEAVdgCollision@@NHAEBVdgMatrix@@@Z 00000001800254b0 f   physics_2009:dgNarrowPhaseCollision.obj
 0001:00024670       ?CreateEllipse@dgWorld@@QEAAPEAVdgCollision@@NNNHAEBVdgMatrix@@@Z 0000000180025670 f   physics_2009:dgNarrowPhaseCollision.obj
 0001:00024890       ?CreateCapsule@dgWorld@@QEAAPEAVdgCollision@@NNHAEBVdgMatrix@@@Z 0000000180025890 f   physics_2009:dgNarrowPhaseCollision.obj
 0001:00024a80       ?CreateCone@dgWorld@@QEAAPEAVdgCollision@@NNHAEBVdgMatrix@@@Z 0000000180025a80 f   physics_2009:dgNarrowPhaseCollision.obj
 0001:00024c70       ?CreateCylinder@dgWorld@@QEAAPEAVdgCollision@@NNHAEBVdgMatrix@@@Z 0000000180025c70 f   physics_2009:dgNarrowPhaseCollision.obj
 0001:00024e60       ?CreateChamferCylinder@dgWorld@@QEAAPEAVdgCollision@@NNHAEBVdgMatrix@@@Z 0000000180025e60 f   physics_2009:dgNarrowPhaseCollision.obj
 0001:00025050       ?CreateConvexHull@dgWorld@@QEAAPEAVdgCollision@@HPEBNHNHAEBVdgMatrix@@@Z 0000000180026050 f   physics_2009:dgNarrowPhaseCollision.obj
 0001:000252f0       ?CreateFromSerialization@dgWorld@@QEAAPEAVdgCollision@@P6AXPEAX0_K@Z0@Z 00000001800262f0 f   physics_2009:dgNarrowPhaseCollision.obj
 0001:00025c30       ?CreateBodyGroupID@dgWorld@@QEAAIXZ 0000000180026c30 f   physics_2009:dgNarrowPhaseCollision.obj
 0001:00025df0       ?CalculateSignature@dgCollisionConvexPolygon@dgCollisionMesh@@UEBAHXZ 0000000180026df0 f   physics_2009:dgCollisionMesh.obj
 0001:00025e00       ??1dgCollisionMesh@@UEAA@XZ 0000000180026e00 f   physics_2009:dgCollisionMesh.obj
 0001:00025e60       ?IsBilateral@dgConstraint@@MEBA_NXZ 0000000180026e60 f i physics_2009:dgConstraint.obj
 0001:00025e60       ?IsBilateral@dgUpVectorConstraint@@UEBA_NXZ 0000000180026e60 f i physics_2009:dgUpVectorConstraint.obj
 0001:00025e60       ?IsTriggerVolume@dgCollision@@UEBA_NXZ 0000000180026e60 f i physics_2009:dgCollisionMesh.obj
 0001:00025e70       ?SetCollisionCallback@dgCollisionMesh@@QEAAXP6AXPEBVdgBody@@0HHPEBNH@Z@Z 0000000180026e70 f   physics_2009:dgCollisionMesh.obj
 0001:00025e80       ?SetCollisionRayCastCallback@dgCollisionMesh@@QEAAXP6ANNPEANHPEAX@Z@Z 0000000180026e80 f   physics_2009:dgCollisionMesh.obj
 0001:00025e90       ?CalcAABBSimD@dgCollisionMesh@@EEBAXAEBVdgMatrix@@AEAVdgVector@@1@Z 0000000180026e90 f   physics_2009:dgCollisionMesh.obj
 0001:00025e90       ?CalcAABBSimD@dgCollisionScene@@EEBAXAEBVdgMatrix@@AEAVdgVector@@1@Z 0000000180026e90 f   physics_2009:dgCollisionScene.obj
 0001:00025e90       ?CalcAABBSimD@dgCollisionNull@@MEBAXAEBVdgMatrix@@AEAVdgVector@@1@Z 0000000180026e90 f   physics_2009:dgCollisionNull.obj
 0001:00025ea0       ?GetVolume@dgCollisionMesh@@UEBANXZ 0000000180026ea0 f   physics_2009:dgCollisionMesh.obj
 0001:00025ea0       ?GetVolume@dgCollisionConvexPolygon@dgCollisionMesh@@UEBANXZ 0000000180026ea0 f   physics_2009:dgCollisionMesh.obj
 0001:00025ea0       ?GetVolume@dgCollisionScene@@EEBANXZ 0000000180026ea0 f   physics_2009:dgCollisionScene.obj
 0001:00025ea0       ?RayCastSimd@dgCollision@@UEBANAEBVdgVector@@0AEAVdgContactPoint@@P6AIPEBVdgBody@@PEBV1@PEAX@Z24@Z 0000000180026ea0 f   physics_2009:dgCollision.obj
 0001:00025ea0       ?PolygonIntersectSimd@FastRayTest@@QEBANAEBVdgVector@@QEBNHQEBHH@Z 0000000180026ea0 f   corelib_2009:dgIntersections.obj
 0001:00025ea0       ?GetBoxMinRadius@dgCollisionConvexPolygon@dgCollisionMesh@@UEBANXZ 0000000180026ea0 f   physics_2009:dgCollisionMesh.obj
 0001:00025ea0       ?GetVolume@dgCollisionPoint@@UEBANXZ 0000000180026ea0 f   physics_2009:dgCollisionSphere.obj
 0001:00025ea0       ?GetVolume@dgCollisionNull@@MEBANXZ 0000000180026ea0 f   physics_2009:dgCollisionNull.obj
 0001:00025ea0       ?GetBoxMinRadius@dgCollisionScene@@EEBANXZ 0000000180026ea0 f   physics_2009:dgCollisionScene.obj
 0001:00025ea0       ?RayCast@dgCollisionConvexPolygon@dgCollisionMesh@@UEBANAEBVdgVector@@0AEAVdgContactPoint@@P6AIPEBVdgBody@@PEBVdgCollision@@PEAX@Z24@Z 0000000180026ea0 f   physics_2009:dgCollisionMesh.obj
 0001:00025ea0       ?GetBoxMinRadius@dgCollisionMesh@@UEBANXZ 0000000180026ea0 f   physics_2009:dgCollisionMesh.obj
 0001:00025ea0       ?GetBoxMaxRadius@dgCollisionMesh@@UEBANXZ 0000000180026ea0 f   physics_2009:dgCollisionMesh.obj
 0001:00025ea0       ?GetBoxMaxRadius@dgCollisionConvexPolygon@dgCollisionMesh@@UEBANXZ 0000000180026ea0 f   physics_2009:dgCollisionMesh.obj
 0001:00025ea0       ?GetBoxMaxRadius@dgCollisionScene@@EEBANXZ 0000000180026ea0 f   physics_2009:dgCollisionScene.obj
 0001:00025eb0       ?SupportVertex@dgCollisionConvexPolygon@dgCollisionMesh@@UEBA?AVdgVector@@AEBV3@@Z 0000000180026eb0 f   physics_2009:dgCollisionMesh.obj
 0001:000260c0       ?CalculatePlaneIntersection@dgCollisionConvexPolygon@dgCollisionMesh@@UEBAHAEBVdgVector@@0QEAV3@@Z 00000001800270c0 f   physics_2009:dgCollisionMesh.obj
 0001:00026d80       ??_GdgCollisionMesh@@UEAAPEAXI@Z 0000000180027d80 f i physics_2009:dgCollisionMesh.obj
 0001:00026d80       ??_EdgCollisionMesh@@UEAAPEAXI@Z 0000000180027d80 f i physics_2009:dgCollisionMesh.obj
 0001:00026e00       ?CalculateVolumeIntegral@dgCollisionScene@@EEBA?AVdgVector@@AEBVdgMatrix@@P6AIPEAX10AEAVdgPlane@@@Z1@Z 0000000180027e00 f   physics_2009:dgCollisionScene.obj
 0001:00026e00       ?SupportVertexSimd@dgCollisionCapsule@@EEBA?AVdgVector@@AEBV2@@Z 0000000180027e00 f   physics_2009:dgCollisionCapsule.obj
 0001:00026e00       ?SupportVertexSimd@dgCollisionConvexModifier@@MEBA?AVdgVector@@AEBV2@@Z 0000000180027e00 f   physics_2009:dgCollisionConvexModifier.obj
 0001:00026e00       ?SupportVertex@dgCollisionNull@@MEBA?AVdgVector@@AEBV2@@Z 0000000180027e00 f   physics_2009:dgCollisionNull.obj
 0001:00026e00       ?CalculateVolumeIntegral@dgCollisionMesh@@EEBA?AVdgVector@@AEBVdgMatrix@@P6AIPEAX10AEAVdgPlane@@@Z1@Z 0000000180027e00 f   physics_2009:dgCollisionMesh.obj
 0001:00026e00       ?SupportVertexSimd@dgCollisionNull@@MEBA?AVdgVector@@AEBV2@@Z 0000000180027e00 f   physics_2009:dgCollisionNull.obj
 0001:00026e00       ?SupportVertex@dgCollisionScene@@EEBA?AVdgVector@@AEBV2@@Z 0000000180027e00 f   physics_2009:dgCollisionScene.obj
 0001:00026e00       ?SupportVertex@dgCollisionPoint@@UEBA?AVdgVector@@AEBV2@@Z 0000000180027e00 f   physics_2009:dgCollisionSphere.obj
 0001:00026e00       ?SupportVertexSimd@dgCollisionPoint@@UEBA?AVdgVector@@AEBV2@@Z 0000000180027e00 f   physics_2009:dgCollisionSphere.obj
 0001:00026e00       ?CalculateVolumeIntegral@dgCollisionNull@@MEBA?AVdgVector@@AEBVdgMatrix@@P6AIPEAX10AEAVdgPlane@@@Z1@Z 0000000180027e00 f   physics_2009:dgCollisionNull.obj
 0001:00026e00       ?SupportVertex@dgCollisionMesh@@EEBA?AVdgVector@@AEBV2@@Z 0000000180027e00 f   physics_2009:dgCollisionMesh.obj
 0001:00026e00       ?SupportVertexSimd@dgCollisionEllipse@@MEBA?AVdgVector@@AEBV2@@Z 0000000180027e00 f   physics_2009:dgCollisionEllipse.obj
 0001:00026e00       ?SupportVertexSimd@dgConvexCollision@@UEBA?AVdgVector@@AEBV2@@Z 0000000180027e00 f   physics_2009:dgConvexCollision.obj
 0001:00026e00       ?SupportVertexSimd@dgCollisionBox@@MEBA?AVdgVector@@AEBV2@@Z 0000000180027e00 f   physics_2009:dgCollisionBox.obj
 0001:00026e00       ?SupportVertexSimd@dgCollisionConvexPolygon@dgCollisionMesh@@UEBA?AVdgVector@@AEBV3@@Z 0000000180027e00 f   physics_2009:dgCollisionMesh.obj
 0001:00026e20       ??0dgCollisionConvexPolygon@dgCollisionMesh@@QEAA@XZ 0000000180027e20 f   physics_2009:dgCollisionMesh.obj
 0001:00026ef0       ??_EdgCollisionConvexPolygon@dgCollisionMesh@@UEAAPEAXI@Z 0000000180027ef0 f i physics_2009:dgCollisionMesh.obj
 0001:00026ef0       ??_GdgCollisionConvexPolygon@dgCollisionMesh@@UEAAPEAXI@Z 0000000180027ef0 f i physics_2009:dgCollisionMesh.obj
 0001:00026f20       ?CalculateNormal@dgCollisionConvexPolygon@dgCollisionMesh@@QEAAXXZ 0000000180027f20 f   physics_2009:dgCollisionMesh.obj
 0001:000270c0       ?ClipContacts@dgCollisionConvexPolygon@dgCollisionMesh@@QEBAHHQEAVdgContactPoint@@AEBVdgMatrix@@@Z 00000001800280c0 f   physics_2009:dgCollisionMesh.obj
 0001:00027b60       ?ClosestDistanceToTriangle@dgCollisionConvexPolygon@dgCollisionMesh@@QEBA?AVdgVector@@AEBV3@000@Z 0000000180028b60 f   physics_2009:dgCollisionMesh.obj
 0001:00028040       ?PointToPolygonDistance@dgCollisionConvexPolygon@dgCollisionMesh@@QEAA_NAEBVdgVector@@NAEAV3@@Z 0000000180029040 f   physics_2009:dgCollisionMesh.obj
 0001:00028350       ?DistanceToOrigen@dgCollisionConvexPolygon@dgCollisionMesh@@QEAA_NAEBVdgMatrix@@AEBVdgVector@@NAEAV4@@Z 0000000180029350 f   physics_2009:dgCollisionMesh.obj
 0001:00028ad0       ?MovingPointToPolygonContact@dgCollisionConvexPolygon@dgCollisionMesh@@QEAANAEBVdgVector@@0NAEAVdgContactPoint@@@Z 0000000180029ad0 f   physics_2009:dgCollisionMesh.obj
 0001:00029590       ?SetCollisionBBox@dgCollisionMesh@@MEAAXAEBVdgVector@@0@Z 000000018002a590 f   physics_2009:dgCollisionMesh.obj
 0001:00029590       ?SetCollisionBBox@dgCollisionScene@@EEAAXAEBVdgVector@@0@Z 000000018002a590 f   physics_2009:dgCollisionScene.obj
 0001:00029690       ?QuickTestContinue@dgCollisionConvexPolygon@dgCollisionMesh@@QEAAHPEBVdgConvexCollision@@AEBVdgMatrix@@@Z 000000018002a690 f   physics_2009:dgCollisionMesh.obj
 0001:00029a50       ?QuickTest@dgCollisionConvexPolygon@dgCollisionMesh@@QEAAHPEBVdgConvexCollision@@AEBVdgMatrix@@@Z 000000018002aa50 f   physics_2009:dgCollisionMesh.obj
 0001:00029fa0       ??0dgCollisionMesh@@QEAA@W4dgCollisionID@@@Z 000000018002afa0 f   physics_2009:dgCollisionMesh.obj
 0001:0002a0d0       ??0dgCollisionMesh@@QEAA@PEAVdgWorld@@P6AXPEAX1_K@Z1@Z 000000018002b0d0 f   physics_2009:dgCollisionMesh.obj
 0001:0002a1f0       ??0dgCollisionBVH@@QEAA@XZ 000000018002b1f0 f   physics_2009:dgCollisionBVH.obj
 0001:0002a250       ?Serialize@dgCollisionBVH@@EEBAXP6AXPEAXPEBX_K@Z0@Z 000000018002b250 f   physics_2009:dgCollisionBVH.obj
 0001:0002a2a0       ?AddFace@dgCollisionBVH@@QEAAXHQEBNHH@Z 000000018002b2a0 f   physics_2009:dgCollisionBVH.obj
 0001:0002a350       ?CollectVertexListIndexList@dgCollisionBVH@@CA?AW4dgIntersectStatus@@PEAXQEBNHQEBHH@Z 000000018002b350 f   physics_2009:dgCollisionBVH.obj
 0001:0002a420       ?GetTriangleCount@dgCollisionBVH@@CA?AW4dgIntersectStatus@@PEAXQEBNHQEBHH@Z 000000018002b420 f   physics_2009:dgCollisionBVH.obj
 0001:0002a450       ?SupportVertex@dgCollisionBVH@@EEBA?AVdgVector@@AEBV2@@Z 000000018002b450 f   physics_2009:dgCollisionBVH.obj
 0001:0002a470       ??_EdgCollisionBVH@@WBEA@EAAPEAXI@Z 000000018002b470 f i physics_2009:dgCollisionBVH.obj
 0001:0002a480       ?Serialize@dgCollisionBVH@@GBEA@EBAXP6AXPEAXPEBX_K@Z0@Z 000000018002b480 f i physics_2009:dgCollisionBVH.obj
 0001:0002a490       ??_GdgCollisionBVH@@UEAAPEAXI@Z 000000018002b490 f i physics_2009:dgCollisionBVH.obj
 0001:0002a490       ??_EdgCollisionBVH@@UEAAPEAXI@Z 000000018002b490 f i physics_2009:dgCollisionBVH.obj
 0001:0002a4f0       ?BeginBuild@dgCollisionBVH@@QEAAXXZ 000000018002b4f0 f   physics_2009:dgCollisionBVH.obj
 0001:0002a530       ?GetVertexListIndexList@dgCollisionBVH@@UEBAXAEBVdgVector@@0AEAVdgGetVertexListIndexList@dgCollisionMesh@@@Z 000000018002b530 f   physics_2009:dgCollisionBVH.obj
 0001:0002a590       ??0dgCollisionBVH@@QEAA@PEAVdgWorld@@P6AXPEAX1_K@Z1@Z 000000018002b590 f   physics_2009:dgCollisionBVH.obj
 0001:0002a650       ?EndBuild@dgCollisionBVH@@QEAAXH@Z 000000018002b650 f   physics_2009:dgCollisionBVH.obj
 0001:0002a6f0       ?GetCollisionInfo@dgCollisionBVH@@EEBAXPEAVdgCollisionInfo@@@Z 000000018002b6f0 f   physics_2009:dgCollisionBVH.obj
 0001:0002a7f0       ?RayHitSimd@dgCollisionBVH@@CANPEAXQEBNHQEBHH@Z 000000018002b7f0 f   physics_2009:dgCollisionBVH.obj
 0001:0002a970       ?RayHit@dgCollisionBVH@@CANPEAXQEBNHQEBHH@Z 000000018002b970 f   physics_2009:dgCollisionBVH.obj
 0001:0002aaf0       ?RayHitUserSimd@dgCollisionBVH@@CANPEAXQEBNHQEBHH@Z 000000018002baf0 f   physics_2009:dgCollisionBVH.obj
 0001:0002ac40       ?RayHitUser@dgCollisionBVH@@CANPEAXQEBNHQEBHH@Z 000000018002bc40 f   physics_2009:dgCollisionBVH.obj
 0001:0002ae30       ?RayCastSimd@dgCollisionBVH@@EEBANAEBVdgVector@@0AEAVdgContactPoint@@P6AIPEBVdgBody@@PEBVdgCollision@@PEAX@Z24@Z 000000018002be30 f   physics_2009:dgCollisionBVH.obj
 0001:0002b060       ?RayCast@dgCollisionBVH@@EEBANAEBVdgVector@@0AEAVdgContactPoint@@P6AIPEBVdgBody@@PEBVdgCollision@@PEAX@Z24@Z 000000018002c060 f   physics_2009:dgCollisionBVH.obj
 0001:0002b290       ?GetPolygon@dgCollisionBVH@@CA?AW4dgIntersectStatus@@PEAXQEBNHQEBHH@Z 000000018002c290 f   physics_2009:dgCollisionBVH.obj
 0001:0002b8a0       ?GetCollidingFacesSimd@dgCollisionBVH@@EEBAXQEAVdgPolygonMeshDesc@@@Z 000000018002c8a0 f   physics_2009:dgCollisionBVH.obj
 0001:0002b930       ?GetCollidingFaces@dgCollisionBVH@@EEBAXQEAVdgPolygonMeshDesc@@@Z 000000018002c930 f   physics_2009:dgCollisionBVH.obj
 0001:0002b9c0       ?ShowDebugPolygon@dgCollisionBVH@@CA?AW4dgIntersectStatus@@PEAXQEBNHQEBHH@Z 000000018002c9c0 f   physics_2009:dgCollisionBVH.obj
 0001:0002beb0       ?DebugCollision@dgCollisionBVH@@EEBAXAEBVdgMatrix@@P6AXPEAXHPEBNH@Z1@Z 000000018002ceb0 f   physics_2009:dgCollisionBVH.obj
 0001:0002bf70       ??_GdgSceneNode@dgCollisionScene@@QEAAPEAXI@Z 000000018002cf70 f i physics_2009:dgCollisionScene.obj
 0001:0002bfd0       ?OOBBTest@dgCollisionScene@@EEBA_NAEBVdgMatrix@@QEBVdgConvexCollision@@PEAX@Z 000000018002cfd0 f   physics_2009:dgCollisionScene.obj
 0001:0002bfd0       ?OOBBTest@dgCollisionConvexModifier@@MEBA_NAEBVdgMatrix@@QEBVdgConvexCollision@@PEAX@Z 000000018002cfd0 f   physics_2009:dgCollisionConvexModifier.obj
 0001:0002bfd0       ?IsBilateral@dgBilateralConstraint@@MEBA_NXZ 000000018002cfd0 f   physics_2009:dgBilateralConstraint.obj
 0001:0002bfd0       ?OOBBTest@dgCompoundCollision@@MEBA_NAEBVdgMatrix@@QEBVdgConvexCollision@@PEAX@Z 000000018002cfd0 f   physics_2009:dgCompoundCollision.obj
 0001:0002bfd0       ?OOBBTest@dgCollisionConvexPolygon@dgCollisionMesh@@UEBA_NAEBVdgMatrix@@QEBVdgConvexCollision@@PEAX@Z 000000018002cfd0 f   physics_2009:dgCollisionMesh.obj
 0001:0002bfd0       ?OOBBTest@dgCollisionMesh@@EEBA_NAEBVdgMatrix@@QEBVdgConvexCollision@@PEAX@Z 000000018002cfd0 f   physics_2009:dgCollisionMesh.obj
 0001:0002bfe0       ?UpdateAABB@dgSceneNode@dgCollisionScene@@QEAAXAEBVdgVector@@0@Z 000000018002cfe0 f i physics_2009:dgCollisionScene.obj
 0001:0002c080       ?Serialize@dgCollisionScene@@EEBAXP6AXPEAXPEBX_K@Z0@Z 000000018002d080 f   physics_2009:dgCollisionScene.obj
 0001:0002c270       ?SetProxyMatrix@dgCollisionScene@@QEAAXPEAXAEBVdgMatrix@@@Z 000000018002d270 f   physics_2009:dgCollisionScene.obj
 0001:0002c2d0       ?SetCollisionCallback@dgCollisionScene@@QEAAXP6AXPEBVdgBody@@0HHPEBNH@Z@Z 000000018002d2d0 f   physics_2009:dgCollisionScene.obj
 0001:0002c320       ?DebugCollision@dgCollisionScene@@EEBAXAEBVdgMatrix@@P6AXPEAXHPEBNH@Z1@Z 000000018002d320 f   physics_2009:dgCollisionScene.obj
 0001:0002c3e0       ?GetCollisionInfo@dgCollisionScene@@EEBAXPEAVdgCollisionInfo@@@Z 000000018002d3e0 f   physics_2009:dgCollisionScene.obj
 0001:0002c430       ?RemoveAll@?$dgList@UdgProxy@dgCollisionScene@@@@QEAAXXZ 000000018002d430 f i physics_2009:dgCollisionScene.obj
 0001:0002c4c0       ?Unlink@?$dgList@UdgProxy@dgCollisionScene@@@@QEAAXPEAVdgListNode@1@@Z 000000018002d4c0 f i physics_2009:dgCollisionScene.obj
 0001:0002c530       ?GetProxyMatrix@dgCollisionScene@@QEAA?AVdgMatrix@@PEAX@Z 000000018002d530 f   physics_2009:dgCollisionScene.obj
 0001:0002c750       ?CalcAABB@dgCollisionMesh@@EEBAXAEBVdgMatrix@@AEAVdgVector@@1@Z 000000018002d750 f   physics_2009:dgCollisionMesh.obj
 0001:0002c750       ?CalcAABB@dgCollisionScene@@EEBAXAEBVdgMatrix@@AEAVdgVector@@1@Z 000000018002d750 f   physics_2009:dgCollisionScene.obj
 0001:0002ca10       ?GetAxis@dgCollisionScene@@AEBAHQEAPEAVdgListNode@?$dgList@UdgProxy@dgCollisionScene@@@@H@Z 000000018002da10 f   physics_2009:dgCollisionScene.obj
 0001:0002ce00       ?RayCastSimd@dgCollisionScene@@EEBANAEBVdgVector@@0AEAVdgContactPoint@@P6AIPEBVdgBody@@PEBVdgCollision@@PEAX@Z24@Z 000000018002de00 f   physics_2009:dgCollisionScene.obj
 0001:0002d590       ?RayCast@dgCollisionScene@@EEBANAEBVdgVector@@0AEAVdgContactPoint@@P6AIPEBVdgBody@@PEBVdgCollision@@PEAX@Z24@Z 000000018002e590 f   physics_2009:dgCollisionScene.obj
 0001:0002dd20       ?CollidePairSimd@dgCollisionScene@@QEBAXQEAUdgPair@dgCollidingPairCollector@@AEAVdgCollisionParamProxi@@@Z 000000018002ed20 f   physics_2009:dgCollisionScene.obj
 0001:0002df80       ?CollidePair@dgCollisionScene@@QEBAXQEAUdgPair@dgCollidingPairCollector@@AEAVdgCollisionParamProxi@@@Z 000000018002ef80 f   physics_2009:dgCollisionScene.obj
 0001:0002e4c0       ?SortAABBBoxes@dgCollisionScene@@AEBAHQEAPEAVdgListNode@?$dgList@UdgProxy@dgCollisionScene@@@@H@Z 000000018002f4c0 f   physics_2009:dgCollisionScene.obj
 0001:0002e670       ?SortAndSpliteSplite@dgCollisionScene@@AEBAHQEAPEAVdgListNode@?$dgList@UdgProxy@dgCollisionScene@@@@H@Z 000000018002f670 f   physics_2009:dgCollisionScene.obj
 0001:0002e900       ?BuildTree@dgCollisionScene@@AEAAPEAUdgSceneNode@1@PEAU21@QEAPEAVdgListNode@?$dgList@UdgProxy@dgCollisionScene@@@@HH@Z 000000018002f900 f   physics_2009:dgCollisionScene.obj
 0001:0002eab0       ??0dgListNode@?$dgList@UdgProxy@dgCollisionScene@@@@AEAA@PEAV01@0@Z 000000018002fab0 f i physics_2009:dgCollisionScene.obj
 0001:0002eb20       ??0dgCollisionScene@@QEAA@PEAVdgWorld@@@Z 000000018002fb20 f   physics_2009:dgCollisionScene.obj
 0001:0002ec20       ??1dgCollisionScene@@UEAA@XZ 000000018002fc20 f   physics_2009:dgCollisionScene.obj
 0001:0002ecd0       ?RemoveProxy@dgCollisionScene@@QEAAXPEAX@Z 000000018002fcd0 f   physics_2009:dgCollisionScene.obj
 0001:0002ed20       ?Append@?$dgList@UdgProxy@dgCollisionScene@@@@QEAAPEAVdgListNode@1@XZ 000000018002fd20 f i physics_2009:dgCollisionScene.obj
 0001:0002edc0       ??_EdgCollisionScene@@UEAAPEAXI@Z 000000018002fdc0 f i physics_2009:dgCollisionScene.obj
 0001:0002edc0       ??_GdgCollisionScene@@UEAAPEAXI@Z 000000018002fdc0 f i physics_2009:dgCollisionScene.obj
 0001:0002edf0       ?AddProxy@dgCollisionScene@@QEAAPEAXPEAVdgCollision@@@Z 000000018002fdf0 f   physics_2009:dgCollisionScene.obj
 0001:0002ee60       ?BuildTree@dgCollisionScene@@QEAAXXZ 000000018002fe60 f   physics_2009:dgCollisionScene.obj
 0001:0002f030       ??0dgCollisionScene@@QEAA@PEAVdgWorld@@P6AXPEAX1_K@Z1@Z 0000000180030030 f   physics_2009:dgCollisionScene.obj
 0001:0002f390       ?CalcAABBSimD@dgConvexCollision@@UEBAXAEBVdgMatrix@@AEAVdgVector@@1@Z 0000000180030390 f   physics_2009:dgConvexCollision.obj
 0001:0002f390       ?ForAllSectors@dgPolygonSoupDatabase@@MEBAXAEBVdgVector@@0P6A?AW4dgIntersectStatus@@PEAXQEBNHQEBHH@ZQEAX@Z 0000000180030390 f   corelib_2009:dgAABBPolygonSoup.obj
 0001:0002f390       ?SetCollisionBBox@dgCollisionNull@@EEAAXAEBVdgVector@@0@Z 0000000180030390 f   physics_2009:dgCollisionNull.obj
 0001:0002f390       ?ForAllSectorsRayHit@dgPolygonSoupDatabase@@MEBAXAEBVFastRayTest@@P6ANPEAXQEBNHQEBHH@ZQEAX@Z 0000000180030390 f   corelib_2009:dgAABBPolygonSoup.obj
 0001:0002f390       ?SetCollisionBBox@dgCollisionSphere@@MEAAXAEBVdgVector@@0@Z 0000000180030390 f   physics_2009:dgCollisionSphere.obj
 0001:0002f390       ?Serialize@dgCollisionConvexPolygon@dgCollisionMesh@@UEBAXP6AXPEAXPEBX_K@Z0@Z 0000000180030390 f   physics_2009:dgCollisionMesh.obj
 0001:0002f390       ?ThreadExecute@dgSetTrreadRoundMode@dgWorld@@UEAAXXZ 0000000180030390 f   physics_2009:dgWorld.obj
 0001:0002f390       ?DebugCollision@dgCollisionNull@@MEBAXAEBVdgMatrix@@P6AXPEAXHPEBNH@Z1@Z 0000000180030390 f   physics_2009:dgCollisionNull.obj
 0001:0002f390       ?SetCollisionBBox@dgCollisionCone@@EEAAXAEBVdgVector@@0@Z 0000000180030390 f   physics_2009:dgCollisionCone.obj
 0001:0002f390       ?SetCollisionBBox@dgCollisionEllipse@@EEAAXAEBVdgVector@@0@Z 0000000180030390 f   physics_2009:dgCollisionEllipse.obj
 0001:0002f390       ?SetCollisionBBox@dgCollisionConvexModifier@@EEAAXAEBVdgVector@@0@Z 0000000180030390 f   physics_2009:dgCollisionConvexModifier.obj
 0001:0002f390       ?JointAccelerationsSimd@dgBilateralConstraint@@MEAAXAEBVdgJointAccelerationDecriptor@@@Z 0000000180030390 f   physics_2009:dgBilateralConstraint.obj
 0001:0002f390       ?SetStiffness@dgConstraint@@UEAAXN@Z 0000000180030390 f   physics_2009:dgBilateralConstraint.obj
 0001:0002f390       ?SetCollisionBBox@dgCollisionConvexHull@@EEAAXAEBVdgVector@@0@Z 0000000180030390 f   physics_2009:dgCollisionConvexHull.obj
 0001:0002f390       ?JointAccelerationsSimd@dgContact@@EEAAXAEBVdgJointAccelerationDecriptor@@@Z 0000000180030390 f   physics_2009:dgContact.obj
 0001:0002f390       ?SetAsTriggerVolume@dgCollision@@UEAAX_N@Z 0000000180030390 f   physics_2009:dgCollisionMesh.obj
 0001:0002f390       ?CalcInvInertiaMatrixSimD@dgBody@@QEAAXXZ 0000000180030390 f   physics_2009:dgBody.obj
 0001:0002f390       ?SetDestructorCallback@dgContact@@EEAAXP6AXAEAVdgConstraint@@@Z@Z 0000000180030390 f   physics_2009:dgContact.obj
 0001:0002f390       ??1dgBody@@QEAA@XZ         0000000180030390 f   physics_2009:dgBody.obj
 0001:0002f390       ?BeginFace@dgPolyhedra@@QEAAXXZ 0000000180030390 f   corelib_2009:dgPolyhedra.obj
 0001:0002f390       ?SetCollisionBBox@dgCollisionBox@@MEAAXAEBVdgVector@@0@Z 0000000180030390 f   physics_2009:dgCollisionBox.obj
 0001:0002f390       ?JointVelocityCorrection@dgBilateralConstraint@@MEAAXAEBVdgJointAccelerationDecriptor@@@Z 0000000180030390 f   physics_2009:dgBilateralConstraint.obj
 0001:0002f390       ?GetCollisionInfo@dgCollisionMesh@@EEBAXPEAVdgCollisionInfo@@@Z 0000000180030390 f   physics_2009:dgCollisionMesh.obj
 0001:0002f390       ?GetAABB@dgPolygonSoupDatabase@@UEBAXAEAVdgVector@@0@Z 0000000180030390 f   corelib_2009:dgAABBPolygonSoup.obj
 0001:0002f390       ?ForAllSectorsRayHitSimd@dgAABBPolygonSoup@@MEBAXAEBVFastRayTest@@P6ANPEAXQEBNHQEBHH@ZQEAX@Z 0000000180030390 f   corelib_2009:dgAABBPolygonSoup.obj
 0001:0002f390       ?CalcAABBSimD@dgCollisionBox@@MEBAXAEBVdgMatrix@@AEAVdgVector@@1@Z 0000000180030390 f   physics_2009:dgCollisionBox.obj
 0001:0002f390       ?ForAllSectorsRayHitSimd@dgPolygonSoupDatabase@@MEBAXAEBVFastRayTest@@P6ANPEAXQEBNHQEBHH@ZQEAX@Z 0000000180030390 f   corelib_2009:dgAABBPolygonSoup.obj
 0001:0002f390       ?SetCollisionBBox@dgCompoundCollision@@EEAAXAEBVdgVector@@0@Z 0000000180030390 f   physics_2009:dgCompoundCollision.obj
 0001:0002f390       ?JointVelocityCorrection@dgContact@@EEAAXAEBVdgJointAccelerationDecriptor@@@Z 0000000180030390 f   physics_2009:dgContact.obj
 0001:0002f390       ?CalcAABBSimD@dgCollisionConvexModifier@@MEBAXAEBVdgMatrix@@AEAVdgVector@@1@Z 0000000180030390 f   physics_2009:dgCollisionConvexModifier.obj
 0001:0002f390       ?GetInfo@dgConstraint@@UEBAXPEAVdgConstraintInfo@@@Z 0000000180030390 f   physics_2009:dgConstraint.obj
 0001:0002f390       ?DebugCollision@dgCollisionUserMesh@@EEBAXAEBVdgMatrix@@P6AXPEAXHPEBNH@Z1@Z 0000000180030390 f   physics_2009:dgCollisionUserMesh.obj
 0001:0002f390       ?ModifierSetMatrix@dgCollision@@UEAAXAEBVdgMatrix@@@Z 0000000180030390 f   physics_2009:dgWorld.obj
 0001:0002f390       ?UpdateCollisionMatrixSimD@dgBody@@AEAAXNH@Z 0000000180030390 f   physics_2009:dgBody.obj
 0001:0002f390       ??3@YAXPEAX@Z              0000000180030390 f   NewtonStdAfx.obj
 0001:0002f390       ?SetCollisionBBox@dgCollisionConvexPolygon@dgCollisionMesh@@UEAAXAEBVdgVector@@0@Z 0000000180030390 f   physics_2009:dgCollisionMesh.obj
 0001:0002f390       ?SetUserData@dgCollision@@UEAAXPEAX@Z 0000000180030390 f   physics_2009:dgCollision.obj
 0001:0002f390       ?Serialize@dgCollisionUserMesh@@EEBAXP6AXPEAXPEBX_K@Z0@Z 0000000180030390 f   physics_2009:dgCollisionUserMesh.obj
 0001:0002f390       ?Serialize@dgCollisionMesh@@EEBAXP6AXPEAXPEBX_K@Z0@Z 0000000180030390 f   physics_2009:dgCollisionMesh.obj
 0001:0002f390       ?ForAllSectorsSimd@dgPolygonSoupDatabase@@MEBAXAEBVdgVector@@0P6A?AW4dgIntersectStatus@@PEAXQEBNHQEBHH@ZQEAX@Z 0000000180030390 f   corelib_2009:dgAABBPolygonSoup.obj
 0001:0002f390       ?Remove@dgBilateralConstraint@@MEAAXPEAVdgWorld@@@Z 0000000180030390 f   NewtonClass.obj
 0001:0002f390       ?SpliteAcrossPlane@dgConvexCollision@@IEBAXAEBVdgPlane@@PEAPEAVdgCollisionConvexHull@@1@Z 0000000180030390 f   physics_2009:dgConvexCollision.obj
 0001:0002f390       ?Init@dgBilateralConstraint@@MEAAXXZ 0000000180030390 f   NewtonClass.obj
 0001:0002f390       ?SetCollisionBBox@dgCollisionCylinder@@EEAAXAEBVdgVector@@0@Z 0000000180030390 f   physics_2009:dgCollisionCylinder.obj
 0001:0002f390       ?SetCollisionBBox@dgCollisionCapsule@@EEAAXAEBVdgVector@@0@Z 0000000180030390 f   physics_2009:dgCollisionCapsule.obj
 0001:0002f390       ??1dgCollidingPairCollector@@QEAA@XZ 0000000180030390 f   physics_2009:dgContact.obj
 0001:0002f390       ?CalcAABBSimD@dgCompoundCollision@@MEBAXAEBVdgMatrix@@AEAVdgVector@@1@Z 0000000180030390 f   physics_2009:dgCompoundCollision.obj
 0001:0002f390       ?DebugCollision@dgCollisionMesh@@EEBAXAEBVdgMatrix@@P6AXPEAXHPEBNH@Z1@Z 0000000180030390 f   physics_2009:dgCollisionMesh.obj
 0001:0002f390       ?SetCollisionBBox@dgCollisionChamferCylinder@@MEAAXAEBVdgVector@@0@Z 0000000180030390 f   physics_2009:dgCollisionChamferCylinder.obj
 0001:0002f3a0       ?SetAparentMassMatrix@dgBody@@QEAAXAEBVdgVector@@@Z 00000001800303a0 f   physics_2009:dgBody.obj
 0001:0002f430       ??DdgQuaternion@@QEBA?AV0@AEBV0@@Z 0000000180030430 f i physics_2009:dgBody.obj
 0001:0002f570       ?AddBuoyancyForce@dgBody@@QEAAXNNNAEBVdgVector@@P6AIPEAX1AEBVdgMatrix@@AEAVdgPlane@@@Z1@Z 0000000180030570 f   physics_2009:dgBody.obj
 0001:0002f930       ?CalcInvInertiaMatrix@dgBody@@QEAAXXZ 0000000180030930 f   physics_2009:dgBody.obj
 0001:0002fa50       ?CalculateInverseDynamicForce@dgBody@@QEBA?AVdgVector@@AEBV2@N@Z 0000000180030a50 f   physics_2009:dgBody.obj
 0001:0002fb00       ?GetFirstJoint@dgBody@@QEBAPEAVdgConstraint@@XZ 0000000180030b00 f   physics_2009:dgBody.obj
 0001:0002fb40       ?GetNextJoint@dgBody@@QEBAPEAVdgConstraint@@PEAV2@@Z 0000000180030b40 f   physics_2009:dgBody.obj
 0001:0002fb90       ?GetFirstContact@dgBody@@QEBAPEAVdgConstraint@@XZ 0000000180030b90 f   physics_2009:dgBody.obj
 0001:0002fbd0       ?GetNextContact@dgBody@@QEBAPEAVdgConstraint@@PEAV2@@Z 0000000180030bd0 f   physics_2009:dgBody.obj
 0001:0002fc20       ?Freeze@dgBody@@QEAAXXZ    0000000180030c20 f   physics_2009:dgBody.obj
 0001:0002fc80       ?Unfreeze@dgBody@@QEAAXXZ  0000000180030c80 f   physics_2009:dgBody.obj
 0001:0002fce0       ?AddImpulse@dgBody@@AEAAXAEBVdgVector@@0@Z 0000000180030ce0 f   physics_2009:dgBody.obj
 0001:00030270       ?InsertAfter@?$dgList@VdgBodyMasterListRow@@@@QEAAXPEAVdgListNode@1@0@Z 0000000180031270 f i physics_2009:dgBody.obj
 0001:000302f0       ??0dgBody@@QEAA@XZ         00000001800312f0 f   physics_2009:dgBody.obj
 0001:00030320       ?SetMassMatrix@dgBody@@QEAAXNNNN@Z 0000000180031320 f   physics_2009:dgBody.obj
 0001:000304c0       ?UpdateCollisionMatrix@dgBody@@AEAAXNH@Z 00000001800314c0 f   physics_2009:dgBody.obj
 0001:00030a80       ?RayCast@dgBody@@QEBANAEBUdgLineBox@@P6ANPEBV1@AEBVdgVector@@HPEAXN@ZP6AI1PEBVdgCollision@@3@Z3N@Z 0000000180031a80 f   physics_2009:dgBody.obj
 0001:00030d90       ?UpdateMatrix@dgBody@@AEAAXNH@Z 0000000180031d90 f   physics_2009:dgBody.obj
 0001:00030de0       ?IntegrateVelocity@dgBody@@AEAAXN@Z 0000000180031de0 f   physics_2009:dgBody.obj
 0001:00031240       ?CalculateContinueVelocity@dgBody@@AEBAXNAEAVdgVector@@0@Z 0000000180032240 f   physics_2009:dgBody.obj
 0001:00031470       ?SetFreeze@dgBody@@QEAAX_N@Z 0000000180032470 f   physics_2009:dgBody.obj
 0001:00031480       ?SetMatrix@dgBody@@QEAAXAEBVdgMatrix@@@Z 0000000180032480 f   physics_2009:dgBody.obj
 0001:000315e0       ?SetMatrixIgnoreSleep@dgBody@@QEAAXAEBVdgMatrix@@@Z 00000001800325e0 f   physics_2009:dgBody.obj
 0001:000316b0       ?AttachCollision@dgBody@@QEAAXPEAVdgCollision@@@Z 00000001800326b0 f   physics_2009:dgBody.obj
 0001:000317e0       NewtonBodySetForceAndTorqueCallback 00000001800327e0 f   Newton.obj
 0001:000317e0       ?SetJointParameterCallBack@dgBallConstraint@@QEAAXP6AIAEBV1@N@Z@Z 00000001800327e0 f   physics_2009:dgBallConstraint.obj
 0001:000317f0       ?GetJointAngle@dgBallConstraint@@QEBA?AVdgVector@@XZ 00000001800327f0 f   physics_2009:dgBallConstraint.obj
 0001:00031820       ?SetTwistLimitState@dgBallConstraint@@QEAAX_N@Z 0000000180032820 f   physics_2009:dgBallConstraint.obj
 0001:00031840       ?SetConeLimitState@dgBallConstraint@@QEAAX_N@Z 0000000180032840 f   physics_2009:dgBallConstraint.obj
 0001:00031860       ?SetLatealLimitState@dgBallConstraint@@QEAAX_N@Z 0000000180032860 f   physics_2009:dgBallConstraint.obj
 0001:00031880       ??_GdgBallConstraint@@EEAAPEAXI@Z 0000000180032880 f i physics_2009:dgBallConstraint.obj
 0001:00031880       ??_EdgBallConstraint@@EEAAPEAXI@Z 0000000180032880 f i physics_2009:dgBallConstraint.obj
 0001:000318c0       ??0dgBallConstraint@@AEAA@XZ 00000001800328c0 f   physics_2009:dgBallConstraint.obj
 0001:00031950       ?GetJointOmega@dgBallConstraint@@QEBA?AVdgVector@@XZ 0000000180032950 f   physics_2009:dgBallConstraint.obj
 0001:00031c00       ?GetJointForce@dgBallConstraint@@QEBA?AVdgVector@@XZ 0000000180032c00 f   physics_2009:dgBallConstraint.obj
 0001:00031d40       ?SetLimits@dgBallConstraint@@QEAAXAEBVdgVector@@NNN0NN@Z 0000000180032d40 f   physics_2009:dgBallConstraint.obj
 0001:000328f0       ?JacobianDerivative@dgBallConstraint@@EEAAIAEAVdgContraintDescritor@@@Z 00000001800338f0 f   physics_2009:dgBallConstraint.obj
 0001:000332e0       ?SetPivotPoint@dgBallConstraint@@AEAAXAEBVdgVector@@@Z 00000001800342e0 f   physics_2009:dgBallConstraint.obj
 0001:00033410       ??0dgHingeConstraint@@AEAA@XZ 0000000180034410 f   physics_2009:dgHingeConstraint.obj
 0001:00033450       ?SetJointParameterCallBack@dgSlidingConstraint@@QEAAXP6AIAEBV1@PEAVdgJointCallBackParam@@@Z@Z 0000000180034450 f   physics_2009:dgSlidingConstraint.obj
 0001:00033450       ?SetJointParameterCallBack@dgHingeConstraint@@QEAAXP6AIAEBV1@PEAVdgJointCallBackParam@@@Z@Z 0000000180034450 f   physics_2009:dgHingeConstraint.obj
 0001:00033460       ??_GdgHingeConstraint@@EEAAPEAXI@Z 0000000180034460 f i physics_2009:dgHingeConstraint.obj
 0001:00033460       ??_EdgHingeConstraint@@EEAAPEAXI@Z 0000000180034460 f i physics_2009:dgHingeConstraint.obj
 0001:000334a0       ?CalculateStopAlpha@dgHingeConstraint@@QEBANNPEBVdgJointCallBackParam@@@Z 00000001800344a0 f   physics_2009:dgHingeConstraint.obj
 0001:00033540       ?GetJointForce@dgHingeConstraint@@QEBA?AVdgVector@@XZ 0000000180034540 f   physics_2009:dgHingeConstraint.obj
 0001:00033740       ?JacobianDerivative@dgHingeConstraint@@EEAAIAEAVdgContraintDescritor@@@Z 0000000180034740 f   physics_2009:dgHingeConstraint.obj
 0001:00033b40       ??0dgSlidingConstraint@@AEAA@XZ 0000000180034b40 f   physics_2009:dgSlidingConstraint.obj
 0001:00033b80       ??_EdgSlidingConstraint@@EEAAPEAXI@Z 0000000180034b80 f i physics_2009:dgSlidingConstraint.obj
 0001:00033b80       ??_GdgSlidingConstraint@@EEAAPEAXI@Z 0000000180034b80 f i physics_2009:dgSlidingConstraint.obj
 0001:00033bc0       ?GetJointVeloc@dgSlidingConstraint@@QEBANXZ 0000000180034bc0 f   physics_2009:dgSlidingConstraint.obj
 0001:00033bc0       ?GetJointVeloc@dgCorkscrewConstraint@@QEBANXZ 0000000180034bc0 f   physics_2009:dgCorkscrewConstraint.obj
 0001:00033c90       ?CalculateStopAccel@dgSlidingConstraint@@QEBANNPEBVdgJointCallBackParam@@@Z 0000000180034c90 f   physics_2009:dgSlidingConstraint.obj
 0001:00033d20       ?GetJointForce@dgSlidingConstraint@@QEBA?AVdgVector@@XZ 0000000180034d20 f   physics_2009:dgSlidingConstraint.obj
 0001:00033f40       ?JacobianDerivative@dgSlidingConstraint@@EEAAIAEAVdgContraintDescritor@@@Z 0000000180034f40 f   physics_2009:dgSlidingConstraint.obj
 0001:000345e0       ??0dgCorkscrewConstraint@@AEAA@XZ 00000001800355e0 f   physics_2009:dgCorkscrewConstraint.obj
 0001:00034630       ?SetJointParameterCallBack@dgUniversalConstraint@@QEAAXP6AIAEBV1@PEAVdgJointCallBackParam@@@Z@Z 0000000180035630 f   physics_2009:dgUniversalConstraint.obj
 0001:00034630       ?SetJointParameterCallBack@dgCorkscrewConstraint@@QEAAXP6AIAEBV1@PEAVdgJointCallBackParam@@@Z@Z 0000000180035630 f   physics_2009:dgCorkscrewConstraint.obj
 0001:00034640       ?GetJointPosit@dgCorkscrewConstraint@@QEBANXZ 0000000180035640 f   physics_2009:dgCorkscrewConstraint.obj
 0001:00034640       ?GetJointAngle1@dgUniversalConstraint@@QEBANXZ 0000000180035640 f   physics_2009:dgUniversalConstraint.obj
 0001:00034650       ??_EdgCorkscrewConstraint@@EEAAPEAXI@Z 0000000180035650 f i physics_2009:dgCorkscrewConstraint.obj
 0001:00034650       ??_GdgCorkscrewConstraint@@EEAAPEAXI@Z 0000000180035650 f i physics_2009:dgCorkscrewConstraint.obj
 0001:00034690       ?GetJointOmega@dgHingeConstraint@@QEBANXZ 0000000180035690 f   physics_2009:dgHingeConstraint.obj
 0001:00034690       ?GetJointOmega0@dgUniversalConstraint@@QEBANXZ 0000000180035690 f   physics_2009:dgUniversalConstraint.obj
 0001:00034690       ?GetJointOmega@dgCorkscrewConstraint@@QEBANXZ 0000000180035690 f   physics_2009:dgCorkscrewConstraint.obj
 0001:00034760       ?CalculateStopAlpha@dgCorkscrewConstraint@@QEBANNPEBVdgJointCallBackParam@@@Z 0000000180035760 f   physics_2009:dgCorkscrewConstraint.obj
 0001:00034760       ?CalculateStopAlpha0@dgUniversalConstraint@@QEBANNPEBVdgJointCallBackParam@@@Z 0000000180035760 f   physics_2009:dgUniversalConstraint.obj
 0001:000347f0       ?CalculateStopAccel@dgCorkscrewConstraint@@QEBANNPEBVdgJointCallBackParam@@@Z 00000001800357f0 f   physics_2009:dgCorkscrewConstraint.obj
 0001:00034880       ?JacobianDerivative@dgCorkscrewConstraint@@EEAAIAEAVdgContraintDescritor@@@Z 0000000180035880 f   physics_2009:dgCorkscrewConstraint.obj
 0001:00034ec0       ??0dgUniversalConstraint@@AEAA@XZ 0000000180035ec0 f   physics_2009:dgUniversalConstraint.obj
 0001:00034f10       ?GetJointAngle@dgCorkscrewConstraint@@QEBANXZ 0000000180035f10 f   physics_2009:dgCorkscrewConstraint.obj
 0001:00034f10       ?GetJointAngle@dgHingeConstraint@@QEBANXZ 0000000180035f10 f   physics_2009:dgHingeConstraint.obj
 0001:00034f10       ?GetJointAngle0@dgUniversalConstraint@@QEBANXZ 0000000180035f10 f   physics_2009:dgUniversalConstraint.obj
 0001:00034f10       ?GetJointPosit@dgSlidingConstraint@@QEBANXZ 0000000180035f10 f   physics_2009:dgSlidingConstraint.obj
 0001:00034f20       ??_GdgUniversalConstraint@@EEAAPEAXI@Z 0000000180035f20 f i physics_2009:dgUniversalConstraint.obj
 0001:00034f20       ??_EdgUniversalConstraint@@EEAAPEAXI@Z 0000000180035f20 f i physics_2009:dgUniversalConstraint.obj
 0001:00034f60       ?GetJointOmega1@dgUniversalConstraint@@QEBANXZ 0000000180035f60 f   physics_2009:dgUniversalConstraint.obj
 0001:00035040       ?CalculateStopAlpha1@dgUniversalConstraint@@QEBANNPEBVdgJointCallBackParam@@@Z 0000000180036040 f   physics_2009:dgUniversalConstraint.obj
 0001:000350d0       ?GetJointForce@dgCorkscrewConstraint@@QEBA?AVdgVector@@XZ 00000001800360d0 f   physics_2009:dgCorkscrewConstraint.obj
 0001:000350d0       ?GetJointForce@dgUniversalConstraint@@QEBA?AVdgVector@@XZ 00000001800360d0 f   physics_2009:dgUniversalConstraint.obj
 0001:00035280       ?JacobianDerivative@dgUniversalConstraint@@EEAAIAEAVdgContraintDescritor@@@Z 0000000180036280 f   physics_2009:dgUniversalConstraint.obj
 0001:000359b0       ??0dgUpVectorConstraint@@AEAA@XZ 00000001800369b0 f   physics_2009:dgUpVectorConstraint.obj
 0001:00035a00       ?InitPinDir@dgUpVectorConstraint@@QEAAXAEBVdgVector@@@Z 0000000180036a00 f   physics_2009:dgUpVectorConstraint.obj
 0001:00035a40       ?GetPinDir@dgUpVectorConstraint@@QEBA?AVdgVector@@XZ 0000000180036a40 f   physics_2009:dgUpVectorConstraint.obj
 0001:00035a70       ??_GdgUpVectorConstraint@@EEAAPEAXI@Z 0000000180036a70 f i physics_2009:dgUpVectorConstraint.obj
 0001:00035a70       ??_EdgUpVectorConstraint@@EEAAPEAXI@Z 0000000180036a70 f i physics_2009:dgUpVectorConstraint.obj
 0001:00035ab0       ?SetPinDir@dgUpVectorConstraint@@QEAAXAEBVdgVector@@@Z 0000000180036ab0 f   physics_2009:dgUpVectorConstraint.obj
 0001:00035dc0       ?JacobianDerivative@dgUpVectorConstraint@@EEAAIAEAVdgContraintDescritor@@@Z 0000000180036dc0 f   physics_2009:dgUpVectorConstraint.obj
 0001:000360f0       ?GetUserData@dgConstraint@@QEBAPEAXXZ 00000001800370f0 f   physics_2009:dgConstraint.obj
 0001:00036100       ?SetUserData@dgConstraint@@QEAAXPEAX@Z 0000000180037100 f   physics_2009:dgConstraint.obj
 0001:00036110       ?InitInfo@dgConstraint@@IEBAXPEAVdgConstraintInfo@@@Z 0000000180037110 f   physics_2009:dgConstraint.obj
 0001:000361d0       ?InitPointParam@dgConstraint@@IEBAXAEAVdgPointParam@1@NAEBVdgVector@@1@Z 00000001800371d0 f   physics_2009:dgConstraint.obj
 0001:00036670       ??0dgCollisionConvexHull@@QEAA@PEAVdgWorld@@P6AXPEAX1_K@Z1@Z 0000000180037670 f   physics_2009:dgCollisionConvexHull.obj
 0001:00036880       ?GetFaceIndices@dgCollisionConvexHull@@QEBAHHPEAH@Z 0000000180037880 f   physics_2009:dgCollisionConvexHull.obj
 0001:000368d0       ?CalculateSignature@dgCollisionConvexHull@@EEBAHXZ 00000001800378d0 f   physics_2009:dgCollisionConvexHull.obj
 0001:000368d0       ?CalculateSignature@dgCollisionNull@@EEBAHXZ 00000001800378d0 f   physics_2009:dgCollisionNull.obj
 0001:000368e0       ?GetCollisionInfo@dgCollisionConvexHull@@EEBAXPEAVdgCollisionInfo@@@Z 00000001800378e0 f   physics_2009:dgCollisionConvexHull.obj
 0001:00036960       ?Serialize@dgCollisionConvexHull@@EEBAXP6AXPEAXPEBX_K@Z0@Z 0000000180037960 f   physics_2009:dgCollisionConvexHull.obj
 0001:00036af0       ?BeginPolygon@NewtonMeshEffect@@QEAAXXZ 0000000180037af0 f   NewtonMeshEffect.obj
 0001:00036af0       ?PlaneSplite@dgCollisionConvexHull@@EEBAXAEBVdgPlane@@PEAPEAV1@1@Z 0000000180037af0 f   physics_2009:dgCollisionConvexHull.obj
 0001:00036af0       ?PlaneSplite@dgCollisionBox@@MEBAXAEBVdgPlane@@PEAPEAVdgCollisionConvexHull@@1@Z 0000000180037af0 f   physics_2009:dgCollisionBox.obj
 0001:00036b00       ??_EdgCollisionConvexHull@@UEAAPEAXI@Z 0000000180037b00 f i physics_2009:dgCollisionConvexHull.obj
 0001:00036b00       ??_GdgCollisionConvexHull@@UEAAPEAXI@Z 0000000180037b00 f i physics_2009:dgCollisionConvexHull.obj
 0001:00036b50       ?BruteForceSupportVertex@dgCollisionConvexHull@@AEBAHHPEAVdgVector@@AEBV2@@Z 0000000180037b50 f   physics_2009:dgCollisionConvexHull.obj
 0001:00036d00       ?DebugCollision@dgCollisionConvexHull@@EEBAXAEBVdgMatrix@@P6AXPEAXHPEBNH@Z1@Z 0000000180037d00 f   physics_2009:dgCollisionConvexHull.obj
 0001:00036e40       ?OOBBTest@dgCollisionConvexHull@@EEBA_NAEBVdgMatrix@@QEBVdgConvexCollision@@PEAX@Z 0000000180037e40 f   physics_2009:dgCollisionConvexHull.obj
 0001:00037410       ?FaceNormal@dgCollisionConvexHull@@AEBA?AVdgVector@@PEBVdgEdge@@PEBV2@@Z 0000000180038410 f   physics_2009:dgCollisionConvexHull.obj
 0001:000376c0       ?RemoveCoplanarEdge@dgCollisionConvexHull@@AEBA_NAEAVdgPolyhedra@@QEAVdgVector@@@Z 00000001800386c0 f   physics_2009:dgCollisionConvexHull.obj
 0001:00037c30       ?Create@dgCollisionConvexHull@@AEAA_NHHPEBNN@Z 0000000180038c30 f   physics_2009:dgCollisionConvexHull.obj
 0001:00039d30       ??0dgCollisionConvexHull@@QEAA@IHHNPEBNAEBVdgMatrix@@@Z 000000018003ad30 f   physics_2009:dgCollisionConvexHull.obj
 0001:0003a1f0       ?Realloc@dgBroadPhaseCalculateContactsWorkerThread@@QEAAXHHH@Z 000000018003b1f0 f   physics_2009:dgBroadPhaseCollision.obj
 0001:0003a320       ?ThreadExecute@dgBroadPhaseCalculateContactsWorkerThread@@UEAAXXZ 000000018003b320 f   physics_2009:dgBroadPhaseCollision.obj
 0001:0003a510       ?ThreadExecute@dgBroadPhaseMaterialCallbackWorkerThread@@UEAAXXZ 000000018003b510 f   physics_2009:dgBroadPhaseCollision.obj
 0001:0003a5f0       ?RayCast@dgSortArray@@QEBANNAEBUdgLineBox@@P6ANPEBVdgBody@@AEBVdgVector@@HPEAXN@ZP6AI1PEBVdgCollision@@3@Z3@Z 000000018003b5f0 f   physics_2009:dgBroadPhaseCollision.obj
 0001:0003a6f0       ?UpdateAutoPair@dgBroadPhaseCell@@AEAAXPEAVdgWorld@@H@Z 000000018003b6f0 f   physics_2009:dgBroadPhaseCollision.obj
 0001:0003a830       ?UpdatePairs@dgBroadPhaseCollision@@AEBAXPEAVdgBody@@PEAVdgListNode@?$dgList@VdgSortArrayEntry@@@@HH@Z 000000018003b830 f   physics_2009:dgBroadPhaseCollision.obj
 0001:0003a940       ?UpdatePairs@dgBroadPhaseCollision@@AEBAXAEAVdgBroadPhaseCell@@0H@Z 000000018003b940 f   physics_2009:dgBroadPhaseCollision.obj
 0001:0003a9e0       ?ThreadExecute@dgBroadPhaseCellPairsWorkerThread@@UEAAXXZ 000000018003b9e0 f   physics_2009:dgBroadPhaseCollision.obj
 0001:0003aa90       ?UpdateContactsBroadPhaseEnd@dgBroadPhaseCollision@@AEAAXN@Z 000000018003ba90 f   physics_2009:dgBroadPhaseCollision.obj
 0001:0003ab70       ?Append@?$dgList@VdgSortArrayEntry@@@@QEAAPEAVdgListNode@1@XZ 000000018003bb70 f i physics_2009:dgBroadPhaseCollision.obj
 0001:0003ac10       ?ApplyExtenalForces@dgBody@@AEAAXNH@Z 000000018003bc10 f i physics_2009:dgBroadPhaseCollision.obj
 0001:0003acc0       ?IsInEquelibrium@dgBody@@QEBA_NXZ 000000018003bcc0 f i physics_2009:dgBroadPhaseCollision.obj
 0001:0003ae60       ?Sort@dgSortArray@@QEAANXZ 000000018003be60 f   physics_2009:dgBroadPhaseCollision.obj
 0001:0003aff0       ?Add@dgBroadPhaseCell@@AEAAXPEAVdgBody@@@Z 000000018003bff0 f   physics_2009:dgBroadPhaseCollision.obj
 0001:0003b0c0       ?InvalidateCache@dgBroadPhaseCollision@@AEAAXXZ 000000018003c0c0 f   physics_2009:dgBroadPhaseCollision.obj
 0001:0003b120       ?ForEachBodyInAABB@dgBroadPhaseCollision@@QEBAXAEBVdgVector@@0P6AXPEAVdgBody@@@Z@Z 000000018003c120 f   physics_2009:dgBroadPhaseCollision.obj
 0001:0003b530       ?ConvexCast@dgBroadPhaseCollision@@QEBAHPEAVdgCollision@@AEBVdgMatrix@@AEBVdgVector@@AEANP6AIPEBVdgBody@@PEBV2@PEAX@Z6QEAVdgConvexCastReturnInfo@@HH@Z 000000018003c530 f   physics_2009:dgBroadPhaseCollision.obj
 0001:0003c230       ?ThreadExecute@dgBroadPhaseApplyExternalForce@@UEAAXXZ 000000018003d230 f   physics_2009:dgBroadPhaseCollision.obj
 0001:0003c4a0       ?RayCast@dgBroadPhaseCollision@@QEBAXAEBVdgVector@@0P6ANPEBVdgBody@@0HPEAXN@ZP6AI1PEBVdgCollision@@2@Z2@Z 000000018003d4a0 f   physics_2009:dgBroadPhaseCollision.obj
 0001:0003cf10       ?Remove@dgSortArray@@QEAAXPEAVdgBody@@@Z 000000018003df10 f   physics_2009:dgBroadPhaseCollision.obj
 0001:0003cfb0       ??1dgBroadPhaseCell@@QEAA@XZ 000000018003dfb0 f   physics_2009:dgBroadPhaseCollision.obj
 0001:0003d040       ?Remove@dgBroadPhaseCell@@AEAAXPEAVdgBody@@@Z 000000018003e040 f   physics_2009:dgBroadPhaseCollision.obj
 0001:0003d090       ??0dgBroadPhaseCollision@@AEAA@XZ 000000018003e090 f   physics_2009:dgBroadPhaseCollision.obj
 0001:0003d480       ??1dgBroadPhaseCollision@@AEAA@XZ 000000018003e480 f   physics_2009:dgBroadPhaseCollision.obj
 0001:0003d560       ?Remove@dgBroadPhaseCollision@@AEAAXPEAVdgBody@@@Z 000000018003e560 f   physics_2009:dgBroadPhaseCollision.obj
 0001:0003d600       ?UpdateContactsBroadPhaseBegin@dgBroadPhaseCollision@@AEAAIN_NI@Z 000000018003e600 f   physics_2009:dgBroadPhaseCollision.obj
 0001:0003e070       ?UpdateContacts@dgBroadPhaseCollision@@AEAAXN_N@Z 000000018003f070 f   physics_2009:dgBroadPhaseCollision.obj
 0001:0003e300       ?FindCreate@dgBroadPhaseLayer@@AEAAPEAVdgBroadPhaseCell@@HH@Z 000000018003f300 f   physics_2009:dgBroadPhaseCollision.obj
 0001:0003e520       ?Add@dgBroadPhaseCollision@@AEAAXPEAVdgBody@@@Z 000000018003f520 f   physics_2009:dgBroadPhaseCollision.obj
 0001:0003e550       ?UpdateBodyBroadphase@dgBroadPhaseCollision@@AEAAXPEAVdgBody@@H@Z 000000018003f550 f   physics_2009:dgBroadPhaseCollision.obj
 0001:0003ea90       ?SetWorldSize@dgBroadPhaseCollision@@QEAAXAEBVdgVector@@0@Z 000000018003fa90 f   physics_2009:dgBroadPhaseCollision.obj
 0001:0003ef40       ?Init@dgBroadPhaseCollision@@AEAAXPEAVdgWorld@@@Z 000000018003ff40 f   physics_2009:dgBroadPhaseCollision.obj
 0001:0003efc0       ??0dgUserConstraint@@IEAA@PEAVdgWorld@@PEAVdgBody@@1H@Z 000000018003ffc0 f   physics_2009:dgUserConstraint.obj
 0001:0003f050       ??1dgUserConstraint@@MEAA@XZ 0000000180040050 f   physics_2009:dgUserConstraint.obj
 0001:0003f060       ?GetInfo@dgUserConstraint@@MEBAXPEAVdgConstraintInfo@@@Z 0000000180040060 f   physics_2009:dgUserConstraint.obj
 0001:0003f070       ??_EdgUserConstraint@@MEAAPEAXI@Z 0000000180040070 f i physics_2009:dgUserConstraint.obj
 0001:0003f070       ??_GdgUserConstraint@@MEAAPEAXI@Z 0000000180040070 f i physics_2009:dgUserConstraint.obj
 0001:0003f0b0       ?GetStiffness@dgConstraint@@UEBANXZ 00000001800400b0 f i physics_2009:dgBilateralConstraint.obj
 0001:0003f0c0       ??1dgBilateralConstraint@@MEAA@XZ 00000001800400c0 f   physics_2009:dgBilateralConstraint.obj
 0001:0003f110       ?GetStiffness@dgBilateralConstraint@@MEBANXZ 0000000180040110 f   physics_2009:dgBilateralConstraint.obj
 0001:0003f130       ?SetDestructorCallback@dgBilateralConstraint@@UEAAXP6AXAEAVdgConstraint@@@Z@Z 0000000180040130 f   physics_2009:dgBilateralConstraint.obj
 0001:0003f140       ?SetMotorAcceleration@dgBilateralConstraint@@IEAAXHNAEAVdgContraintDescritor@@@Z 0000000180040140 f   physics_2009:dgBilateralConstraint.obj
 0001:0003f170       ??_EdgConstraint@@MEAAPEAXI@Z 0000000180040170 f i physics_2009:dgBilateralConstraint.obj
 0001:0003f170       ??_GdgConstraint@@MEAAPEAXI@Z 0000000180040170 f i physics_2009:dgBilateralConstraint.obj
 0001:0003f1a0       ??_EdgBilateralConstraint@@MEAAPEAXI@Z 00000001800401a0 f i physics_2009:dgBilateralConstraint.obj
 0001:0003f1a0       ??_GdgBilateralConstraint@@MEAAPEAXI@Z 00000001800401a0 f i physics_2009:dgBilateralConstraint.obj
 0001:0003f1f0       ?SetStiffness@dgBilateralConstraint@@MEAAXN@Z 00000001800401f0 f   physics_2009:dgBilateralConstraint.obj
 0001:0003f230       ?SetJacobianDerivative@dgBilateralConstraint@@IEAAXHAEAVdgContraintDescritor@@PEBN1PEAN@Z 0000000180040230 f   physics_2009:dgBilateralConstraint.obj
 0001:0003f330       ?CalculatePointDerivative@dgBilateralConstraint@@IEAAXHAEAVdgContraintDescritor@@AEBVdgVector@@AEBVdgPointParam@dgConstraint@@PEAN@Z 0000000180040330 f   physics_2009:dgBilateralConstraint.obj
 0001:0003f6b0       ??0dgBilateralConstraint@@IEAA@XZ 00000001800406b0 f   physics_2009:dgBilateralConstraint.obj
 0001:0003f780       ?CalculateMatrixOffset@dgBilateralConstraint@@IEAAXAEBVdgVector@@0AEAVdgMatrix@@1@Z 0000000180040780 f   physics_2009:dgBilateralConstraint.obj
 0001:0003fe30       ?SetPivotAndPinDir@dgBilateralConstraint@@IEAAXAEBVdgVector@@0@Z 0000000180040e30 f   physics_2009:dgBilateralConstraint.obj
 0001:0003fe50       ?SetPivotAndPinDir@dgBilateralConstraint@@IEAAXAEBVdgVector@@00@Z 0000000180040e50 f   physics_2009:dgBilateralConstraint.obj
 0001:00040550       ?CalculateGlobalMatrixAndAngle@dgBilateralConstraint@@IEBA?AVdgVector@@AEAVdgMatrix@@0@Z 0000000180041550 f   physics_2009:dgBilateralConstraint.obj
 0001:00040800       ?CalculateSpringDamperAcceleration@dgBilateralConstraint@@IEAANHAEBVdgContraintDescritor@@NAEBVdgVector@@1NN@Z 0000000180041800 f   physics_2009:dgBilateralConstraint.obj
 0001:00040b30       ?CalculateAngularDerivative@dgBilateralConstraint@@IEAAXHAEAVdgContraintDescritor@@AEBVdgVector@@NNPEAN@Z 0000000180041b30 f   physics_2009:dgBilateralConstraint.obj
 0001:00040d30       ?JointAccelerations@dgBilateralConstraint@@MEAAXAEBVdgJointAccelerationDecriptor@@@Z 0000000180041d30 f   physics_2009:dgBilateralConstraint.obj
 0001:00040fd0       ??1dgCollisionSphere@@UEAA@XZ 0000000180041fd0 f   physics_2009:dgCollisionSphere.obj
 0001:00041000       ?CalculateSignature@dgCollisionSphere@@MEBAHXZ 0000000180042000 f   physics_2009:dgCollisionSphere.obj
 0001:00041070       ?CalculateInertia@dgCollisionScene@@EEBAXAEAVdgVector@@0@Z 0000000180042070 f   physics_2009:dgCollisionScene.obj
 0001:00041070       ?CalculateInertia@dgCollisionNull@@MEBAXAEAVdgVector@@0@Z 0000000180042070 f   physics_2009:dgCollisionNull.obj
 0001:00041070       ?CalculateInertia@dgCollisionPoint@@UEBAXAEAVdgVector@@0@Z 0000000180042070 f   physics_2009:dgCollisionSphere.obj
 0001:00041070       ?CalculateInertia@dgCollisionConvexPolygon@dgCollisionMesh@@UEBAXAEAVdgVector@@0@Z 0000000180042070 f   physics_2009:dgCollisionMesh.obj
 0001:00041070       ?CalculateInertia@dgCollisionMesh@@UEBAXAEAVdgVector@@0@Z 0000000180042070 f   physics_2009:dgCollisionMesh.obj
 0001:00041090       ?GetCollisionInfo@dgCollisionSphere@@MEBAXPEAVdgCollisionInfo@@@Z 0000000180042090 f   physics_2009:dgCollisionSphere.obj
 0001:00041100       ??_GdgCollisionSphere@@UEAAPEAXI@Z 0000000180042100 f i physics_2009:dgCollisionSphere.obj
 0001:00041100       ??_EdgCollisionSphere@@UEAAPEAXI@Z 0000000180042100 f i physics_2009:dgCollisionSphere.obj
 0001:00041150       ?SupportVertexSimd@dgCollisionSphere@@MEBA?AVdgVector@@AEBV2@@Z 0000000180042150 f   physics_2009:dgCollisionSphere.obj
 0001:00041150       ?SupportVertex@dgCollisionSphere@@MEBA?AVdgVector@@AEBV2@@Z 0000000180042150 f   physics_2009:dgCollisionSphere.obj
 0001:000411c0       ?CalcAABB@dgCollisionSphere@@MEBAXAEBVdgMatrix@@AEAVdgVector@@1@Z 00000001800421c0 f   physics_2009:dgCollisionSphere.obj
 0001:00041240       ?CalculatePlaneIntersection@dgCollisionSphere@@MEBAHAEBVdgVector@@0QEAV2@@Z 0000000180042240 f   physics_2009:dgCollisionSphere.obj
 0001:000412d0       ?Serialize@dgCollisionSphere@@MEBAXP6AXPEAXPEBX_K@Z0@Z 00000001800422d0 f   physics_2009:dgCollisionSphere.obj
 0001:00041330       ?TesselateTriangle@dgCollisionSphere@@IEBAXHAEBVdgVector@@00AEAHPEAV2@@Z 0000000180042330 f   physics_2009:dgCollisionSphere.obj
 0001:000417b0       ?DebugCollision@dgCollisionSphere@@MEBAXAEBVdgMatrix@@P6AXPEAXHPEBNH@Z1@Z 00000001800427b0 f   physics_2009:dgCollisionSphere.obj
 0001:00041be0       ?RayCast@dgCollisionSphere@@MEBANAEBVdgVector@@0AEAVdgContactPoint@@P6AIPEBVdgBody@@PEBVdgCollision@@PEAX@Z24@Z 0000000180042be0 f   physics_2009:dgCollisionSphere.obj
 0001:00041eb0       ?CalculateMassProperties@dgCollisionSphere@@MEBANAEAVdgVector@@00@Z 0000000180042eb0 f   physics_2009:dgCollisionSphere.obj
 0001:00042020       ?Init@dgCollisionSphere@@IEAAXN@Z 0000000180043020 f   physics_2009:dgCollisionSphere.obj
 0001:000425e0       ??0dgCollisionSphere@@QEAA@INAEBVdgMatrix@@@Z 00000001800435e0 f   physics_2009:dgCollisionSphere.obj
 0001:00042630       ??0dgCollisionSphere@@QEAA@PEAVdgWorld@@P6AXPEAX1_K@Z1@Z 0000000180043630 f   physics_2009:dgCollisionSphere.obj
 0001:00042690       ?MassProperties@dgConvexMassData@@QEAANAEAVdgVector@@00@Z 0000000180043690 f i physics_2009:dgConvexCollision.obj
 0001:000427d0       ??1dgConvexCollision@@MEAA@XZ 00000001800437d0 f   physics_2009:dgConvexCollision.obj
 0001:00042820       ?SerializeLow@dgConvexCollision@@MEBAXP6AXPEAXPEBX_K@Z0@Z 0000000180043820 f   physics_2009:dgConvexCollision.obj
 0001:00042870       ?GetUserData@dgConvexCollision@@MEBAPEAXXZ 0000000180043870 f   physics_2009:dgConvexCollision.obj
 0001:00042880       ?SetUserData@dgConvexCollision@@MEAAXPEAX@Z 0000000180043880 f   physics_2009:dgConvexCollision.obj
 0001:00042890       ?GetVolume@dgConvexCollision@@EEBANXZ 0000000180043890 f   physics_2009:dgConvexCollision.obj
 0001:000428a0       ?GetBoxMinRadius@dgConvexCollision@@EEBANXZ 00000001800438a0 f   physics_2009:dgConvexCollision.obj
 0001:000428b0       ?GetBoxMaxRadius@dgConvexCollision@@EEBANXZ 00000001800438b0 f   physics_2009:dgConvexCollision.obj
 0001:000428c0       ?IsTriggerVolume@dgConvexCollision@@UEBA_NXZ 00000001800438c0 f   physics_2009:dgConvexCollision.obj
 0001:000428d0       ?SetAsTriggerVolume@dgConvexCollision@@MEAAX_N@Z 00000001800438d0 f   physics_2009:dgConvexCollision.obj
 0001:000428f0       ??0dgConvexCollision@@IEAA@IAEBVdgMatrix@@W4dgCollisionID@@@Z 00000001800438f0 f   physics_2009:dgConvexCollision.obj
 0001:00042a20       ??_EdgConvexCollision@@MEAAPEAXI@Z 0000000180043a20 f i physics_2009:dgConvexCollision.obj
 0001:00042a20       ??_GdgConvexCollision@@MEAAPEAXI@Z 0000000180043a20 f i physics_2009:dgConvexCollision.obj
 0001:00042a80       ??0dgConvexCollision@@IEAA@PEAVdgWorld@@P6AXPEAX1_K@Z1@Z 0000000180043a80 f   physics_2009:dgConvexCollision.obj
 0001:00042b90       ?GetDiscretedAngleStep@dgConvexCollision@@IEBANN@Z 0000000180043b90 f   physics_2009:dgConvexCollision.obj
 0001:00042c10       ?DebugCollision@dgConvexCollision@@MEBAXAEBVdgMatrix@@P6AXPEAXHPEBNH@Z1@Z 0000000180043c10 f   physics_2009:dgConvexCollision.obj
 0001:00042d80       ?CalcAABB@dgConvexCollision@@UEBAXAEBVdgMatrix@@AEAVdgVector@@1@Z 0000000180043d80 f   physics_2009:dgConvexCollision.obj
 0001:00043040       ?GetSupportEdge@dgConvexCollision@@IEBAPEAVdgConvexSimplexEdge@@AEBVdgVector@@@Z 0000000180044040 f   physics_2009:dgConvexCollision.obj
 0001:00043100       ?CalculateInertia@dgConvexCollision@@EEBAXAEAVdgVector@@0@Z 0000000180044100 f   physics_2009:dgConvexCollision.obj
 0001:00043270       ?RayCastClosestFace@dgConvexCollision@@AEBAHPEAVdgVector@@AEBV2@AEAN@Z 0000000180044270 f   physics_2009:dgConvexCollision.obj
 0001:00043980       ?RayHitBox@dgConvexCollision@@AEBA_NAEBVdgVector@@0@Z 0000000180044980 f   physics_2009:dgConvexCollision.obj
 0001:00043b60       ?SupportVertex@dgConvexCollision@@UEBA?AVdgVector@@AEBV2@@Z 0000000180044b60 f   physics_2009:dgConvexCollision.obj
 0001:00043db0       ?RayCast@dgConvexCollision@@UEBANAEBVdgVector@@0AEAVdgContactPoint@@P6AIPEBVdgBody@@PEBVdgCollision@@PEAX@Z24@Z 0000000180044db0 f   physics_2009:dgConvexCollision.obj
 0001:00044fa0       ?OOBBTest@dgConvexCollision@@UEBA_NAEBVdgMatrix@@QEBV1@PEAX@Z 0000000180045fa0 f   physics_2009:dgConvexCollision.obj
 0001:00045250       ?AddCg@dgConvexMassData@@QEAAXHPEBVdgVector@@@Z 0000000180046250 f i physics_2009:dgConvexCollision.obj
 0001:000454a0       ?AddInertia@dgConvexMassData@@QEAAXHPEBN@Z 00000001800464a0 f i physics_2009:dgConvexCollision.obj
 0001:00045860       ?SetVolumeAndCG@dgConvexCollision@@IEAAXXZ 0000000180046860 f   physics_2009:dgConvexCollision.obj
 0001:00045d80       ?CalculateInertia@dgConvexCollision@@CAXPEAXHPEBNH@Z 0000000180046d80 f   physics_2009:dgConvexCollision.obj
 0001:00045d90       ?CalculateMassProperties@dgConvexCollision@@MEBANAEAVdgVector@@00@Z 0000000180046d90 f   physics_2009:dgConvexCollision.obj
 0001:00045e20       ?CalculateVolumeIntegral@dgConvexCollision@@IEBA?AVdgVector@@AEBVdgPlane@@@Z 0000000180046e20 f   physics_2009:dgConvexCollision.obj
 0001:000465e0       ?SimplifyClipPolygon@dgConvexCollision@@AEBAHHAEBVdgVector@@PEAV2@@Z 00000001800475e0 f   physics_2009:dgConvexCollision.obj
 0001:00046990       ?RectifyConvexSlice@dgConvexCollision@@IEBAHHAEBVdgVector@@QEAV2@@Z 0000000180047990 f   physics_2009:dgConvexCollision.obj
 0001:00046e30       ?CalculatePlaneIntersection@dgConvexCollision@@UEBAHAEBVdgVector@@0QEAV2@@Z 0000000180047e30 f   physics_2009:dgConvexCollision.obj
 0001:000474e0       ?CalculateVolumeIntegral@dgConvexCollision@@EEBA?AVdgVector@@AEBVdgMatrix@@P6AIPEAX10AEAVdgPlane@@@Z1@Z 00000001800484e0 f   physics_2009:dgConvexCollision.obj
 0001:00047760       ?FindConstraintLink@dgBodyMasterList@@QEBAPEAVdgListNode@?$dgList@VdgBodyMasterListCell@@@@PEBVdgBody@@0@Z 0000000180048760 f   physics_2009:dgBodyMasterList.obj
 0001:00047790       ?FindConstraintLinkNext@dgBodyMasterList@@QEBAPEAVdgListNode@?$dgList@VdgBodyMasterListCell@@@@PEBV23@PEBVdgBody@@@Z 0000000180048790 f   physics_2009:dgBodyMasterList.obj
 0001:000477c0       ?Addtop@?$dgList@VdgBodyMasterListCell@@@@QEAAPEAVdgListNode@1@XZ 00000001800487c0 f i physics_2009:dgBodyMasterList.obj
 0001:00047850       ?RemoveAll@?$dgList@VdgBodyMasterListCell@@@@QEAAXXZ 0000000180048850 f i physics_2009:dgBodyMasterList.obj
 0001:000478d0       ?SortList@dgBodyMasterListRow@@QEAAXXZ 00000001800488d0 f   physics_2009:dgBodyMasterList.obj
 0001:000479f0       ?AttachConstraint@dgBodyMasterList@@QEAAXPEAVdgConstraint@@PEAVdgBody@@1@Z 00000001800489f0 f   physics_2009:dgBodyMasterList.obj
 0001:00047ae0       ?SortMasterList@dgBodyMasterList@@QEAAXXZ 0000000180048ae0 f   physics_2009:dgBodyMasterList.obj
 0001:00047d20       ?RemoveConstraint@dgBodyMasterList@@QEAAXPEAVdgConstraint@@@Z 0000000180048d20 f   physics_2009:dgBodyMasterList.obj
 0001:00047e80       ?Append@?$dgList@VdgBodyMasterListRow@@@@QEAAPEAVdgListNode@1@XZ 0000000180048e80 f i physics_2009:dgBodyMasterList.obj
 0001:00047f30       ?RemoveAll@?$dgList@VdgBodyMasterListRow@@@@QEAAXXZ 0000000180048f30 f i physics_2009:dgBodyMasterList.obj
 0001:00048020       ?AddBody@dgBodyMasterList@@QEAAXPEAVdgBody@@@Z 0000000180049020 f   physics_2009:dgBodyMasterList.obj
 0001:00048060       ?Remove@?$dgList@VdgBodyMasterListRow@@@@QEAAXPEAVdgListNode@1@@Z 0000000180049060 f i physics_2009:dgBodyMasterList.obj
 0001:000480d0       ??0dgBodyMasterList@@QEAA@XZ 00000001800490d0 f   physics_2009:dgBodyMasterList.obj
 0001:000480f0       ??1dgBodyMasterList@@QEAA@XZ 00000001800490f0 f   physics_2009:dgBodyMasterList.obj
 0001:00048100       ?RemoveBody@dgBodyMasterList@@QEAAXPEAVdgBody@@@Z 0000000180049100 f   physics_2009:dgBodyMasterList.obj
 0001:00048190       ??0dgCollisionNull@@QEAA@I@Z 0000000180049190 f   physics_2009:dgCollisionNull.obj
 0001:000481e0       ??0dgCollisionNull@@QEAA@PEAVdgWorld@@P6AXPEAX1_K@Z1@Z 00000001800491e0 f   physics_2009:dgCollisionNull.obj
 0001:00048210       ?Serialize@dgCollisionNull@@EEBAXP6AXPEAXPEBX_K@Z0@Z 0000000180049210 f   physics_2009:dgCollisionNull.obj
 0001:00048220       ?RayCast@dgCollisionNull@@MEBANAEBVdgVector@@0AEAVdgContactPoint@@P6AIPEBVdgBody@@PEBVdgCollision@@PEAX@Z24@Z 0000000180049220 f   physics_2009:dgCollisionNull.obj
 0001:00048220       ?RayCastSimd@dgCollisionNull@@MEBANAEBVdgVector@@0AEAVdgContactPoint@@P6AIPEBVdgBody@@PEBVdgCollision@@PEAX@Z24@Z 0000000180049220 f   physics_2009:dgCollisionNull.obj
 0001:00048230       ??_EdgCollisionNull@@UEAAPEAXI@Z 0000000180049230 f i physics_2009:dgCollisionNull.obj
 0001:00048230       ??_GdgCollisionNull@@UEAAPEAXI@Z 0000000180049230 f i physics_2009:dgCollisionNull.obj
 0001:00048270       ?CalcAABB@dgCollisionNull@@MEBAXAEBVdgMatrix@@AEAVdgVector@@1@Z 0000000180049270 f   physics_2009:dgCollisionNull.obj
 0001:000482c0       ??0dgCollidingPairCollector@@QEAA@XZ 00000001800492c0 f   physics_2009:dgContact.obj
 0001:000482e0       ?Init@dgCollidingPairCollector@@QEAAXPEAVdgWorld@@@Z 00000001800492e0 f   physics_2009:dgContact.obj
 0001:00048310       ?SetCaches@dgCollidingPairCollector@@QEAAXQEAUdgThreadPairCache@1@@Z 0000000180049310 f   physics_2009:dgContact.obj
 0001:00048380       ?FlushChache@dgCollidingPairCollector@@QEAAXQEAUdgThreadPairCache@1@@Z 0000000180049380 f   physics_2009:dgContact.obj
 0001:000484a0       ?GetInfo@dgContact@@EEBAXPEAVdgConstraintInfo@@@Z 00000001800494a0 f   physics_2009:dgContact.obj
 0001:00048500       ?CalculatePointDerivative@dgContact@@AEBAXHAEAVdgContraintDescritor@@AEBVdgVector@@AEBVdgPointParam@dgConstraint@@@Z 0000000180049500 f   physics_2009:dgContact.obj
 0001:00048660       ?Append@?$dgList@PEAVdgContact@@@@QEAAPEAVdgListNode@1@AEBQEAVdgContact@@@Z 0000000180049660 f i physics_2009:dgContact.obj
 0001:00048720       ?JointAccelerations@dgContact@@EEAAXAEBVdgJointAccelerationDecriptor@@@Z 0000000180049720 f   physics_2009:dgContact.obj
 0001:000489f0       ?AddPair@dgCollidingPairCollector@@QEAAXPEAVdgBody@@0H@Z 00000001800499f0 f   physics_2009:dgContact.obj
 0001:00048d50       ?RemoveAll@?$dgList@VdgContactMaterial@@@@QEAAXXZ 0000000180049d50 f i physics_2009:dgContact.obj
 0001:00048de0       ??0dgContactMaterial@@QEAA@XZ 0000000180049de0 f   physics_2009:dgContact.obj
 0001:00048e70       ?JacobianContactDerivative@dgContact@@AEAAXAEAVdgContraintDescritor@@AEBVdgContactMaterial@@HAEAH@Z 0000000180049e70 f   physics_2009:dgContact.obj
 0001:000492e0       ??0dgContact@@AEAA@PEAVdgWorld@@@Z 000000018004a2e0 f   physics_2009:dgContact.obj
 0001:000493e0       ??1dgContact@@EEAA@XZ      000000018004a3e0 f i physics_2009:dgContact.obj
 0001:000494b0       ?JacobianDerivative@dgContact@@EEAAIAEAVdgContraintDescritor@@@Z 000000018004a4b0 f   physics_2009:dgContact.obj
 0001:00049540       ??_GdgContact@@EEAAPEAXI@Z 000000018004a540 f i physics_2009:dgContact.obj
 0001:00049540       ??_EdgContact@@EEAAPEAXI@Z 000000018004a540 f i physics_2009:dgContact.obj
 0001:00049570       ??0dgCollisionConvexModifier@@QEAA@PEAVdgConvexCollision@@PEAVdgWorld@@@Z 000000018004a570 f   physics_2009:dgCollisionConvexModifier.obj
 0001:00049640       ?ModifierGetMatrix@dgCollisionConvexModifier@@UEBA?AVdgMatrix@@XZ 000000018004a640 f   physics_2009:dgCollisionConvexModifier.obj
 0001:00049670       ?GetBoxMinRadius@dgCollisionConvexModifier@@EEBANXZ 000000018004a670 f   physics_2009:dgCollisionConvexModifier.obj
 0001:00049680       ?GetBoxMaxRadius@dgCollisionConvexModifier@@EEBANXZ 000000018004a680 f   physics_2009:dgCollisionConvexModifier.obj
 0001:00049690       ?GetCollidingFacesSimd@dgCollisionHeightField@@EEBAXQEAVdgPolygonMeshDesc@@@Z 000000018004a690 f   physics_2009:dgCollisionHeightField.obj
 0001:00049690       ?CalculatePlaneIntersectionSimd@dgCollisionConvexModifier@@EEBAHAEBVdgVector@@0QEAV2@@Z 000000018004a690 f   physics_2009:dgCollisionConvexModifier.obj
 0001:00049690       ?GetCollidingFacesSimd@dgCollisionUserMesh@@EEBAXQEAVdgPolygonMeshDesc@@@Z 000000018004a690 f   physics_2009:dgCollisionUserMesh.obj
 0001:000496a0       ?DebugCollision@dgCollisionConvexModifier@@MEBAXAEBVdgMatrix@@P6AXPEAXHPEBNH@Z1@Z 000000018004a6a0 f   physics_2009:dgCollisionConvexModifier.obj
 0001:00049750       ?GetVolume@dgCollisionConvexModifier@@MEBANXZ 000000018004a750 f   physics_2009:dgCollisionConvexModifier.obj
 0001:00049780       ?GetCollisionInfo@dgCollisionConvexModifier@@EEBAXPEAVdgCollisionInfo@@@Z 000000018004a780 f   physics_2009:dgCollisionConvexModifier.obj
 0001:000497d0       ?Serialize@dgCollisionConvexModifier@@EEBAXP6AXPEAXPEBX_K@Z0@Z 000000018004a7d0 f   physics_2009:dgCollisionConvexModifier.obj
 0001:00049830       ??_EdgCollisionConvexModifier@@UEAAPEAXI@Z 000000018004a830 f i physics_2009:dgCollisionConvexModifier.obj
 0001:00049830       ??_GdgCollisionConvexModifier@@UEAAPEAXI@Z 000000018004a830 f i physics_2009:dgCollisionConvexModifier.obj
 0001:00049890       ?ModifierSetMatrix@dgCollisionConvexModifier@@UEAAXAEBVdgMatrix@@@Z 000000018004a890 f   physics_2009:dgCollisionConvexModifier.obj
 0001:00049c30       ??0dgCollisionConvexModifier@@QEAA@PEAVdgWorld@@P6AXPEAX1_K@Z1@Z 000000018004ac30 f   physics_2009:dgCollisionConvexModifier.obj
 0001:00049d00       ?CalcAABB@dgCollisionConvexModifier@@MEBAXAEBVdgMatrix@@AEAVdgVector@@1@Z 000000018004ad00 f   physics_2009:dgCollisionConvexModifier.obj
 0001:0004a0f0       ?SupportVertex@dgCollisionConvexModifier@@MEBA?AVdgVector@@AEBV2@@Z 000000018004b0f0 f   physics_2009:dgCollisionConvexModifier.obj
 0001:0004a310       ?CalculatePlaneIntersection@dgCollisionConvexModifier@@EEBAHAEBVdgVector@@0QEAV2@@Z 000000018004b310 f   physics_2009:dgCollisionConvexModifier.obj
 0001:0004aa10       ?RayCast@dgCollisionConvexModifier@@MEBANAEBVdgVector@@0AEAVdgContactPoint@@P6AIPEBVdgBody@@PEBVdgCollision@@PEAX@Z24@Z 000000018004ba10 f   physics_2009:dgCollisionConvexModifier.obj
 0001:0004ad80       ?RayCastSimd@dgCollisionConvexModifier@@MEBANAEBVdgVector@@0AEAVdgContactPoint@@P6AIPEBVdgBody@@PEBVdgCollision@@PEAX@Z24@Z 000000018004bd80 f   physics_2009:dgCollisionConvexModifier.obj
 0001:0004aeb0       ?CalculateVolumeIntegral@dgCollisionConvexModifier@@MEBA?AVdgVector@@AEBVdgMatrix@@P6AIPEAX10AEAVdgPlane@@@Z1@Z 000000018004beb0 f   physics_2009:dgCollisionConvexModifier.obj
 0001:0004b470       ??1dgCompoundCollision@@UEAA@XZ 000000018004c470 f   physics_2009:dgCompoundCollision.obj
 0001:0004b4f0       ?DebugCollision@dgCompoundCollision@@MEBAXAEBVdgMatrix@@P6AXPEAXHPEBNH@Z1@Z 000000018004c4f0 f   physics_2009:dgCompoundCollision.obj
 0001:0004b570       ?GetVolume@dgCompoundCollision@@MEBANXZ 000000018004c570 f   physics_2009:dgCompoundCollision.obj
 0001:0004b5e0       ?GetBoxMinRadius@dgCompoundCollision@@MEBANXZ 000000018004c5e0 f   physics_2009:dgCompoundCollision.obj
 0001:0004b5f0       ?GetBoxMaxRadius@dgCompoundCollision@@MEBANXZ 000000018004c5f0 f   physics_2009:dgCompoundCollision.obj
 0001:0004b600       ?GetCollisionInfo@dgCompoundCollision@@EEBAXPEAVdgCollisionInfo@@@Z 000000018004c600 f   physics_2009:dgCompoundCollision.obj
 0001:0004b660       ?Serialize@dgCompoundCollision@@EEBAXP6AXPEAXPEBX_K@Z0@Z 000000018004c660 f   physics_2009:dgCompoundCollision.obj
 0001:0004b710       ??_GdgCompoundCollision@@UEAAPEAXI@Z 000000018004c710 f i physics_2009:dgCompoundCollision.obj
 0001:0004b710       ??_EdgCompoundCollision@@UEAAPEAXI@Z 000000018004c710 f i physics_2009:dgCompoundCollision.obj
 0001:0004b740       ?CalcAABB@dgCompoundCollision@@MEBAXAEBVdgMatrix@@AEAVdgVector@@1@Z 000000018004c740 f   physics_2009:dgCompoundCollision.obj
 0001:0004b9f0       ?Init@dgCompoundCollision@@IEAAXHQEBQEAVdgConvexCollision@@PEAVdgWorld@@@Z 000000018004c9f0 f   physics_2009:dgCompoundCollision.obj
 0001:0004bb60       ?RayCastSimd@dgCompoundCollision@@MEBANAEBVdgVector@@0AEAVdgContactPoint@@P6AIPEBVdgBody@@PEBVdgCollision@@PEAX@Z24@Z 000000018004cb60 f   physics_2009:dgCompoundCollision.obj
 0001:0004be50       ?CalculateVolumeIntegral@dgCompoundCollision@@MEBA?AVdgVector@@AEBVdgMatrix@@P6AIPEAX10AEAVdgPlane@@@Z1@Z 000000018004ce50 f   physics_2009:dgCompoundCollision.obj
 0001:0004bf90       ?CalculateInertia@dgCompoundCollision@@MEBAXAEAVdgVector@@0@Z 000000018004cf90 f   physics_2009:dgCompoundCollision.obj
 0001:0004c1b0       ?SupportVertex@dgCompoundCollision@@MEBA?AVdgVector@@AEBV2@@Z 000000018004d1b0 f   physics_2009:dgCompoundCollision.obj
 0001:0004c400       ??0dgCompoundCollision@@QEAA@HQEBQEAVdgConvexCollision@@PEAVdgWorld@@@Z 000000018004d400 f   physics_2009:dgCompoundCollision.obj
 0001:0004c470       ??0dgCompoundCollision@@QEAA@PEAVdgWorld@@P6AXPEAX1_K@Z1@Z 000000018004d470 f   physics_2009:dgCompoundCollision.obj
 0001:0004c570       ?RayCast@dgCompoundCollision@@MEBANAEBVdgVector@@0AEAVdgContactPoint@@P6AIPEBVdgBody@@PEBVdgCollision@@PEAX@Z24@Z 000000018004d570 f   physics_2009:dgCompoundCollision.obj
 0001:0004c8e0       ??0dgCollisionUserMesh@@QEAA@AEBVdgVector@@0AEBVdgUserMeshCreation@@@Z 000000018004d8e0 f   physics_2009:dgCollisionUserMesh.obj
 0001:0004c990       ?GetCollisionInfo@dgCollisionUserMesh@@EEBAXPEAVdgCollisionInfo@@@Z 000000018004d990 f   physics_2009:dgCollisionUserMesh.obj
 0001:0004c9e0       ?GetCollidingFaces@dgCollisionUserMesh@@EEBAXQEAVdgPolygonMeshDesc@@@Z 000000018004d9e0 f   physics_2009:dgCollisionUserMesh.obj
 0001:0004ca20       ??_EdgCollisionUserMesh@@UEAAPEAXI@Z 000000018004da20 f i physics_2009:dgCollisionUserMesh.obj
 0001:0004ca20       ??_GdgCollisionUserMesh@@UEAAPEAXI@Z 000000018004da20 f i physics_2009:dgCollisionUserMesh.obj
 0001:0004ca80       ?GetVertexListIndexList@dgCollisionUserMesh@@UEBAXAEBVdgVector@@0AEAVdgGetVertexListIndexList@dgCollisionMesh@@@Z 000000018004da80 f   physics_2009:dgCollisionUserMesh.obj
 0001:0004caf0       ?RayCast@dgCollisionUserMesh@@EEBANAEBVdgVector@@0AEAVdgContactPoint@@P6AIPEBVdgBody@@PEBVdgCollision@@PEAX@Z24@Z 000000018004daf0 f   physics_2009:dgCollisionUserMesh.obj
 0001:0004cc90       ??1dgCollisionHeightField@@UEAA@XZ 000000018004dc90 f   physics_2009:dgCollisionHeightField.obj
 0001:0004cd10       ?Serialize@dgCollisionHeightField@@EEBAXP6AXPEAXPEBX_K@Z0@Z 000000018004dd10 f   physics_2009:dgCollisionHeightField.obj
 0001:0004ce20       ?AllocateVertex@dgCollisionHeightField@@AEBAXPEAVdgWorld@@H@Z 000000018004de20 f   physics_2009:dgCollisionHeightField.obj
 0001:0004ceb0       ?GetCollisionInfo@dgCollisionHeightField@@EEBAXPEAVdgCollisionInfo@@@Z 000000018004deb0 f   physics_2009:dgCollisionHeightField.obj
 0001:0004cf50       ?GetVertexListIndexList@dgCollisionHeightField@@EEBAXAEBVdgVector@@0AEAVdgGetVertexListIndexList@dgCollisionMesh@@@Z 000000018004df50 f   physics_2009:dgCollisionHeightField.obj
 0001:0004cf60       ??_GdgCollisionHeightField@@UEAAPEAXI@Z 000000018004df60 f i physics_2009:dgCollisionHeightField.obj
 0001:0004cf60       ??_EdgCollisionHeightField@@UEAAPEAXI@Z 000000018004df60 f i physics_2009:dgCollisionHeightField.obj
 0001:0004cf90       ?CalculateMinExtend2d@dgCollisionHeightField@@AEBAXAEBVdgVector@@0AEAV2@1@Z 000000018004df90 f   physics_2009:dgCollisionHeightField.obj
 0001:0004d1c0       ?CalculateMinExtend3d@dgCollisionHeightField@@AEBAXAEBVdgVector@@0AEAV2@1@Z 000000018004e1c0 f   physics_2009:dgCollisionHeightField.obj
 0001:0004d3b0       ?RayCastCell@dgCollisionHeightField@@AEBANAEBVFastRayTest@@HHAEAVdgVector@@@Z 000000018004e3b0 f   physics_2009:dgCollisionHeightField.obj
 0001:0004db30       ?RayCast@dgCollisionHeightField@@EEBANAEBVdgVector@@0AEAVdgContactPoint@@P6AIPEBVdgBody@@PEBVdgCollision@@PEAX@Z24@Z 000000018004eb30 f   physics_2009:dgCollisionHeightField.obj
 0001:0004e000       ?DebugCollision@dgCollisionHeightField@@EEBAXAEBVdgMatrix@@P6AXPEAXHPEBNH@Z1@Z 000000018004f000 f   physics_2009:dgCollisionHeightField.obj
 0001:0004e820       ??0dgCollisionHeightField@@QEAA@PEAVdgWorld@@HHHPEAGPEADNN@Z 000000018004f820 f   physics_2009:dgCollisionHeightField.obj
 0001:0004eb30       ??0dgCollisionHeightField@@QEAA@PEAVdgWorld@@P6AXPEAX1_K@Z1@Z 000000018004fb30 f   physics_2009:dgCollisionHeightField.obj
 0001:0004ed30       ?RayCastCellSimd@dgCollisionHeightField@@AEBANAEBVFastRayTest@@HHAEAVdgVector@@@Z 000000018004fd30 f   physics_2009:dgCollisionHeightField.obj
 0001:0004f4b0       ?RayCastSimd@dgCollisionHeightField@@EEBANAEBVdgVector@@0AEAVdgContactPoint@@P6AIPEBVdgBody@@PEBVdgCollision@@PEAX@Z24@Z 00000001800504b0 f   physics_2009:dgCollisionHeightField.obj
 0001:0004fa80       ?GetCollidingFaces@dgCollisionHeightField@@EEBAXQEAVdgPolygonMeshDesc@@@Z 0000000180050a80 f   physics_2009:dgCollisionHeightField.obj
 0001:000515c0       ?Pop@?$dgUpHeap@PEAUdgPerimenterEdge@dgContactSolver@@N@@QEAAXXZ 00000001800525c0 f i physics_2009:dgMinkowskiConv.obj
 0001:00051690       ?CheckTetraHedronVolume@dgContactSolver@@AEBA_NXZ 0000000180052690 f i physics_2009:dgMinkowskiConv.obj
 0001:000517d0       ?CheckTetraHedronVolumeLarge@dgContactSolver@@AEBA_NXZ 00000001800527d0 f i physics_2009:dgMinkowskiConv.obj
 0001:000518d0       ?ReduceLine@dgContactSolver@@AEAA?AVdgVector@@AEBV2@@Z 00000001800528d0 f i physics_2009:dgMinkowskiConv.obj
 0001:00051b00       ?ReduceLineLarge@dgContactSolver@@AEAA?AVdgBigVector@@AEBV2@@Z 0000000180052b00 f i physics_2009:dgMinkowskiConv.obj
 0001:00051d20       ?ReduceTriangle@dgContactSolver@@AEAA?AVdgVector@@AEBV2@@Z 0000000180052d20 f i physics_2009:dgMinkowskiConv.obj
 0001:00052500       ?ReduceTriangleLarge@dgContactSolver@@AEAA?AVdgBigVector@@AEBV2@@Z 0000000180053500 f i physics_2009:dgMinkowskiConv.obj
 0001:00052bc0       ?ReduceTetrahedrum@dgContactSolver@@AEAA?AVdgVector@@AEBV2@@Z 0000000180053bc0 f i physics_2009:dgMinkowskiConv.obj
 0001:000530e0       ?ReduceTetrahedrumLarge@dgContactSolver@@AEAA?AVdgBigVector@@AEBV2@@Z 00000001800540e0 f i physics_2009:dgMinkowskiConv.obj
 0001:000535b0       ?CalcFacePlane@dgContactSolver@@AEAA_NQEAVdgMinkFace@1@@Z 00000001800545b0 f i physics_2009:dgMinkowskiConv.obj
 0001:000537c0       ?CalcFacePlaneLarge@dgContactSolver@@AEAA_NQEAVdgMinkFace@1@@Z 00000001800547c0 f i physics_2009:dgMinkowskiConv.obj
 0001:000539e0       ?CalculateVelocities@dgContactSolver@@QEAAXN@Z 00000001800549e0 f i physics_2009:dgMinkowskiConv.obj
 0001:00053b60       ?InitConvexCollision@dgWorld@@CAXXZ 0000000180054b60 f   physics_2009:dgMinkowskiConv.obj
 0001:00054890       ?SphereSphereCollision@dgWorld@@AEBAHAEBVdgVector@@N0NAEAVdgCollisionParamProxi@@@Z 0000000180055890 f   physics_2009:dgMinkowskiConv.obj
 0001:00054b60       ?CalculateSphereToSphereContacts@dgWorld@@AEBAHAEAVdgCollisionParamProxi@@@Z 0000000180055b60 f   physics_2009:dgMinkowskiConv.obj
 0001:00054bb0       ?CalculateCapsuleToSphereContacts@dgWorld@@AEBAHAEAVdgCollisionParamProxi@@@Z 0000000180055bb0 f   physics_2009:dgMinkowskiConv.obj
 0001:00054d70       ?CalculateCapsuleToCapsuleContacts@dgWorld@@AEBAHAEAVdgCollisionParamProxi@@@Z 0000000180055d70 f   physics_2009:dgMinkowskiConv.obj
 0001:00055bf0       ?FilterPolygonEdgeContacts@dgWorld@@AEBAHHQEAVdgContactPoint@@@Z 0000000180056bf0 f   physics_2009:dgMinkowskiConv.obj
 0001:00055f00       ?CalculatePolySoupToSphereContactsDescrete@dgWorld@@AEBAHAEAVdgCollisionParamProxi@@@Z 0000000180056f00 f   physics_2009:dgMinkowskiConv.obj
 0001:00056610       ?CalculatePolySoupToElipseContactsDescrete@dgWorld@@AEBAHAEAVdgCollisionParamProxi@@@Z 0000000180057610 f   physics_2009:dgMinkowskiConv.obj
 0001:00056df0       ?CalcSupportVertex@dgContactSolver@@AEAAXAEBVdgVector@@H@Z 0000000180057df0 f i physics_2009:dgMinkowskiConv.obj
 0001:00057040       ?CalcSupportVertexLarge@dgContactSolver@@AEAAXAEBVdgVector@@H@Z 0000000180058040 f i physics_2009:dgMinkowskiConv.obj
 0001:000572b0       ?CalculateConvexShapeIntersectionLine@dgContactSolver@@AEBAHAEBVdgMatrix@@AEBVdgVector@@INHQEAV3@H2QEAVdgContactPoint@@@Z 00000001800582b0 f i physics_2009:dgMinkowskiConv.obj
 0001:00057950       ?ReduceContacts@dgContactSolver@@AEBAPEAUdgPerimenterEdge@1@PEAU21@H@Z 0000000180058950 f i physics_2009:dgMinkowskiConv.obj
 0001:00057c50       ?CalculateConvexShapeIntersection@dgContactSolver@@AEBAHAEBVdgMatrix@@AEBVdgVector@@INHQEAV3@H2QEAVdgContactPoint@@H@Z 0000000180058c50 f i physics_2009:dgMinkowskiConv.obj
 0001:000585c0       ?UpdateSeparatingPlaneFallbackSolution@dgContactSolver@@AEAA?AW4dgMinkReturnCode@1@AEAPEAVdgMinkFace@1@AEBVdgVector@@@Z 00000001800595c0 f i physics_2009:dgMinkowskiConv.obj
 0001:0005a3b0       ?UpdateSeparatingPlaneFallbackSolutionLarge@dgContactSolver@@AEAA?AW4dgMinkReturnCode@1@AEAPEAVdgMinkFace@1@AEBVdgBigVector@@@Z 000000018005b3b0 f i physics_2009:dgMinkowskiConv.obj
 0001:0005bee0       ?UpdateSeparatingPlane@dgContactSolver@@AEAA?AW4dgMinkReturnCode@1@AEAPEAVdgMinkFace@1@AEBVdgVector@@@Z 000000018005cee0 f i physics_2009:dgMinkowskiConv.obj
 0001:0005c9c0       ?UpdateSeparatingPlaneLarge@dgContactSolver@@AEAA?AW4dgMinkReturnCode@1@AEAPEAVdgMinkFace@1@AEBVdgBigVector@@@Z 000000018005d9c0 f i physics_2009:dgMinkowskiConv.obj
 0001:0005d3e0       ?CalcSeparatingPlane@dgContactSolver@@AEAA?AW4dgMinkReturnCode@1@AEAPEAVdgMinkFace@1@AEBVdgVector@@@Z 000000018005e3e0 f i physics_2009:dgMinkowskiConv.obj
 0001:0005dc10       ?CalcSeparatingPlaneLarge@dgContactSolver@@AEAA?AW4dgMinkReturnCode@1@AEAPEAVdgMinkFace@1@AEBVdgBigVector@@@Z 000000018005ec10 f i physics_2009:dgMinkowskiConv.obj
 0001:0005e3a0       ?CalculatePolySoupToSphereContactsContinue@dgWorld@@AEBAHAEAVdgCollisionParamProxi@@@Z 000000018005f3a0 f   physics_2009:dgMinkowskiConv.obj
 0001:0005ead0       ?CalculateClosestPoints@dgContactSolver@@AEAAHXZ 000000018005fad0 f i physics_2009:dgMinkowskiConv.obj
 0001:0005fc70       ?CalculateContactAlternateMethod@dgContactSolver@@AEAAHQEAVdgMinkFace@1@HQEAVdgContactPoint@@H@Z 0000000180060c70 f i physics_2009:dgMinkowskiConv.obj
 0001:000618f0       ?CalculateContacts@dgContactSolver@@AEAAHQEAVdgMinkFace@1@HQEAVdgContactPoint@@H@Z 00000001800628f0 f i physics_2009:dgMinkowskiConv.obj
 0001:000636c0       ?CalculateContactsContinues@dgContactSolver@@AEAAHHQEAVdgContactPoint@@HPEBVdgVector@@1N@Z 00000001800646c0 f i physics_2009:dgMinkowskiConv.obj
 0001:00063b60       ?CalculateClipPlane@dgContactSolver@@AEAAPEAVdgMinkFace@1@XZ 0000000180064b60 f i physics_2009:dgMinkowskiConv.obj
 0001:00064b40       ?CalculateClipPlaneLarge@dgContactSolver@@AEAAPEAVdgMinkFace@1@XZ 0000000180065b40 f i physics_2009:dgMinkowskiConv.obj
 0001:00065b90       ?HullHullContacts@dgContactSolver@@QEAAHH@Z 0000000180066b90 f i physics_2009:dgMinkowskiConv.obj
 0001:00066040       ?HullHullContactsLarge@dgContactSolver@@QEAAHH@Z 0000000180067040 f i physics_2009:dgMinkowskiConv.obj
 0001:000665b0       ?HullHullContinueContacts@dgContactSolver@@QEAAHAEANQEAVdgContactPoint@@HHH@Z 00000001800675b0 f i physics_2009:dgMinkowskiConv.obj
 0001:000671b0       ?ClosestPoint@dgWorld@@AEBAHAEAVdgCollisionParamProxi@@@Z 00000001800681b0 f   physics_2009:dgMinkowskiConv.obj
 0001:000674d0       ?CalculateHullToHullContacts@dgWorld@@AEBAHAEAVdgCollisionParamProxi@@@Z 00000001800684d0 f   physics_2009:dgMinkowskiConv.obj
 0001:00067800       ?CalculatePolySoupToHullContactsDescrete@dgWorld@@AEBAHAEAVdgCollisionParamProxi@@@Z 0000000180068800 f   physics_2009:dgMinkowskiConv.obj
 0001:00067b50       ?CalculateConvexToNonConvexContactsContinue@dgWorld@@AEBAHAEAVdgCollisionParamProxi@@@Z 0000000180068b50 f   physics_2009:dgMinkowskiConv.obj
 0001:00068010       ?CalculateConvexToNonConvexContacts@dgWorld@@AEBAHAEAVdgCollisionParamProxi@@@Z 0000000180069010 f   physics_2009:dgMinkowskiConv.obj
 0001:00068bc0       ?CalculateBoxToSphereContacts@dgWorld@@AEBAHAEAVdgCollisionParamProxi@@@Z 0000000180069bc0 f   physics_2009:dgMinkowskiConv.obj
 0001:0006a8e0       ?CalculateConvexToConvexContacts@dgWorld@@AEBAHAEAVdgCollisionParamProxi@@@Z 000000018006b8e0 f   physics_2009:dgMinkowskiConv.obj
 0001:0006b3c0       ?CalculateSignature@dgCollisionBox@@MEBAHXZ 000000018006c3c0 f   physics_2009:dgCollisionBox.obj
 0001:0006b450       ?RayCastSimd@dgConvexCollision@@UEBANAEBVdgVector@@0AEAVdgContactPoint@@P6AIPEBVdgBody@@PEBVdgCollision@@PEAX@Z24@Z 000000018006c450 f   physics_2009:dgConvexCollision.obj
 0001:0006b450       ?RayCastSimd@dgCollisionBox@@MEBANAEBVdgVector@@0AEAVdgContactPoint@@P6AIPEBVdgBody@@PEBVdgCollision@@PEAX@Z24@Z 000000018006c450 f   physics_2009:dgCollisionBox.obj
 0001:0006b450       ?RayCastSimd@dgCollisionSphere@@MEBANAEBVdgVector@@0AEAVdgContactPoint@@P6AIPEBVdgBody@@PEBVdgCollision@@PEAX@Z24@Z 000000018006c450 f   physics_2009:dgCollisionSphere.obj
 0001:0006b450       ?RayCastSimd@dgCollisionUserMesh@@EEBANAEBVdgVector@@0AEAVdgContactPoint@@P6AIPEBVdgBody@@PEBVdgCollision@@PEAX@Z24@Z 000000018006c450 f   physics_2009:dgCollisionUserMesh.obj
 0001:0006b450       ?RayCastSimd@dgCollisionCylinder@@EEBANAEBVdgVector@@0AEAVdgContactPoint@@P6AIPEBVdgBody@@PEBVdgCollision@@PEAX@Z24@Z 000000018006c450 f   physics_2009:dgCollisionCylinder.obj
 0001:0006b450       ?RayCastSimd@dgCollisionCapsule@@EEBANAEBVdgVector@@0AEAVdgContactPoint@@P6AIPEBVdgBody@@PEBVdgCollision@@PEAX@Z24@Z 000000018006c450 f   physics_2009:dgCollisionCapsule.obj
 0001:0006b490       ?GetCollisionInfo@dgCollisionBox@@MEBAXPEAVdgCollisionInfo@@@Z 000000018006c490 f   physics_2009:dgCollisionBox.obj
 0001:0006b520       ??_EdgCollisionBox@@UEAAPEAXI@Z 000000018006c520 f i physics_2009:dgCollisionBox.obj
 0001:0006b520       ??_GdgCollisionBox@@UEAAPEAXI@Z 000000018006c520 f i physics_2009:dgCollisionBox.obj
 0001:0006b570       ?CalcAABB@dgCollisionBox@@MEBAXAEBVdgMatrix@@AEAVdgVector@@1@Z 000000018006c570 f   physics_2009:dgCollisionBox.obj
 0001:0006b6d0       ?CalculatePlaneIntersection@dgCollisionBox@@MEBAHAEBVdgVector@@0QEAV2@@Z 000000018006c6d0 f   physics_2009:dgCollisionBox.obj
 0001:0006bb10       ?Serialize@dgCollisionBox@@MEBAXP6AXPEAXPEBX_K@Z0@Z 000000018006cb10 f   physics_2009:dgCollisionBox.obj
 0001:0006bbc0       ?Init@dgCollisionBox@@IEAAXNNN@Z 000000018006cbc0 f   physics_2009:dgCollisionBox.obj
 0001:0006c130       ?SupportVertex@dgCollisionBox@@MEBA?AVdgVector@@AEBV2@@Z 000000018006d130 f   physics_2009:dgCollisionBox.obj
 0001:0006c1a0       ?RayCast@dgCollisionBox@@MEBANAEBVdgVector@@0AEAVdgContactPoint@@P6AIPEBVdgBody@@PEBVdgCollision@@PEAX@Z24@Z 000000018006d1a0 f   physics_2009:dgCollisionBox.obj
 0001:0006c3c0       ?CalculateMassProperties@dgCollisionBox@@MEBANAEAVdgVector@@00@Z 000000018006d3c0 f   physics_2009:dgCollisionBox.obj
 0001:0006c850       ??0dgCollisionBox@@QEAA@INNNAEBVdgMatrix@@@Z 000000018006d850 f   physics_2009:dgCollisionBox.obj
 0001:0006c8b0       ??0dgCollisionBox@@QEAA@PEAVdgWorld@@P6AXPEAX1_K@Z1@Z 000000018006d8b0 f   physics_2009:dgCollisionBox.obj
 0001:0006c920       ??1dgCollision@@MEAA@XZ    000000018006d920 f   physics_2009:dgCollision.obj
 0001:0006c930       ?Quantize@dgCollision@@SAIN@Z 000000018006d930 f   physics_2009:dgCollision.obj
 0001:0006c940       ?MakeCRC@dgCollision@@SAIPEAXH@Z 000000018006d940 f   physics_2009:dgCollision.obj
 0001:0006c950       ?GetCollisionInfo@dgCollision@@UEBAXPEAVdgCollisionInfo@@@Z 000000018006d950 f   physics_2009:dgCollision.obj
 0001:0006c9b0       ?SerializeLow@dgCollision@@UEBAXP6AXPEAXPEBX_K@Z0@Z 000000018006d9b0 f   physics_2009:dgCollision.obj
 0001:0006ca20       ??_EdgCollision@@MEAAPEAXI@Z 000000018006da20 f i physics_2009:dgCollision.obj
 0001:0006ca20       ??_GdgCollision@@MEAAPEAXI@Z 000000018006da20 f i physics_2009:dgCollision.obj
 0001:0006ca50       ??0dgCollision@@IEAA@IAEBVdgMatrix@@W4dgCollisionID@@@Z 000000018006da50 f   physics_2009:dgCollision.obj
 0001:0006cad0       ??0dgCollision@@IEAA@PEAVdgWorld@@P6AXPEAX1_K@Z1@Z 000000018006dad0 f   physics_2009:dgCollision.obj
 0001:0006cb60       ?CalculateSignature@dgCollisionEllipse@@EEBAHXZ 000000018006db60 f   physics_2009:dgCollisionEllipse.obj
 0001:0006cbf0       ?CalculateMassProperties@dgCollisionEllipse@@EEBANAEAVdgVector@@00@Z 000000018006dbf0 f   physics_2009:dgCollisionEllipse.obj
 0001:0006cc00       ?GetCollisionInfo@dgCollisionEllipse@@EEBAXPEAVdgCollisionInfo@@@Z 000000018006dc00 f   physics_2009:dgCollisionEllipse.obj
 0001:0006cc70       ?Serialize@dgCollisionEllipse@@EEBAXP6AXPEAXPEBX_K@Z0@Z 000000018006dc70 f   physics_2009:dgCollisionEllipse.obj
 0001:0006ccc0       ??_EdgCollisionEllipse@@UEAAPEAXI@Z 000000018006dcc0 f i physics_2009:dgCollisionEllipse.obj
 0001:0006ccc0       ??_GdgCollisionEllipse@@UEAAPEAXI@Z 000000018006dcc0 f i physics_2009:dgCollisionEllipse.obj
 0001:0006cd00       ?CalcAABB@dgCollisionEllipse@@MEBAXAEBVdgMatrix@@AEAVdgVector@@1@Z 000000018006dd00 f   physics_2009:dgCollisionEllipse.obj
 0001:0006ceb0       ??0dgCollisionEllipse@@QEAA@INNNAEBVdgMatrix@@@Z 000000018006deb0 f   physics_2009:dgCollisionEllipse.obj
 0001:0006cf80       ??0dgCollisionEllipse@@QEAA@PEAVdgWorld@@P6AXPEAX1_K@Z1@Z 000000018006df80 f   physics_2009:dgCollisionEllipse.obj
 0001:0006d030       ?SupportVertex@dgCollisionEllipse@@MEBA?AVdgVector@@AEBV2@@Z 000000018006e030 f   physics_2009:dgCollisionEllipse.obj
 0001:0006d160       ?CalculatePlaneIntersection@dgCollisionEllipse@@EEBAHAEBVdgVector@@0QEAV2@@Z 000000018006e160 f   physics_2009:dgCollisionEllipse.obj
 0001:0006d280       ?DebugCollision@dgCollisionEllipse@@MEBAXAEBVdgMatrix@@P6AXPEAXHPEBNH@Z1@Z 000000018006e280 f   physics_2009:dgCollisionEllipse.obj
 0001:0006d680       ?RayCast@dgCollisionEllipse@@MEBANAEBVdgVector@@0AEAVdgContactPoint@@P6AIPEBVdgBody@@PEBVdgCollision@@PEAX@Z24@Z 000000018006e680 f   physics_2009:dgCollisionEllipse.obj
 0001:0006d790       ?RayCastSimd@dgCollisionEllipse@@MEBANAEBVdgVector@@0AEAVdgContactPoint@@P6AIPEBVdgBody@@PEBVdgCollision@@PEAX@Z24@Z 000000018006e790 f   physics_2009:dgCollisionEllipse.obj
 0001:0006d8a0       ?CalculateSignature@dgCollisionCapsule@@EEBAHXZ 000000018006e8a0 f   physics_2009:dgCollisionCapsule.obj
 0001:0006d920       ?GetCollisionInfo@dgCollisionCapsule@@EEBAXPEAVdgCollisionInfo@@@Z 000000018006e920 f   physics_2009:dgCollisionCapsule.obj
 0001:0006d9a0       ??_EdgCollisionCapsule@@UEAAPEAXI@Z 000000018006e9a0 f i physics_2009:dgCollisionCapsule.obj
 0001:0006d9a0       ??_GdgCollisionCapsule@@UEAAPEAXI@Z 000000018006e9a0 f i physics_2009:dgCollisionCapsule.obj
 0001:0006d9f0       ?SupportVertex@dgCollisionCapsule@@EEBA?AVdgVector@@AEBV2@@Z 000000018006e9f0 f   physics_2009:dgCollisionCapsule.obj
 0001:0006da80       ?Serialize@dgCollisionCapsule@@EEBAXP6AXPEAXPEBX_K@Z0@Z 000000018006ea80 f   physics_2009:dgCollisionCapsule.obj
 0001:0006daf0       ?Init@dgCollisionCapsule@@AEAAXNN@Z 000000018006eaf0 f   physics_2009:dgCollisionCapsule.obj
 0001:0006e110       ?TesselateTriangle@dgCollisionCapsule@@AEBAXHNAEBVdgVector@@00AEAHPEAV2@@Z 000000018006f110 f   physics_2009:dgCollisionCapsule.obj
 0001:0006e6e0       ?DebugCollision@dgCollisionCapsule@@EEBAXAEBVdgMatrix@@P6AXPEAXHPEBNH@Z1@Z 000000018006f6e0 f   physics_2009:dgCollisionCapsule.obj
 0001:0006ed10       ?RayCast@dgCollisionCapsule@@EEBANAEBVdgVector@@0AEAVdgContactPoint@@P6AIPEBVdgBody@@PEBVdgCollision@@PEAX@Z24@Z 000000018006fd10 f   physics_2009:dgCollisionCapsule.obj
 0001:0006f5c0       ?CalculateMassProperties@dgCollisionCapsule@@EEBANAEAVdgVector@@00@Z 00000001800705c0 f   physics_2009:dgCollisionCapsule.obj
 0001:0006fa60       ?CalculatePlaneIntersection@dgCollisionCapsule@@EEBAHAEBVdgVector@@0QEAV2@@Z 0000000180070a60 f   physics_2009:dgCollisionCapsule.obj
 0001:00070510       ??0dgCollisionCapsule@@QEAA@INNAEBVdgMatrix@@@Z 0000000180071510 f   physics_2009:dgCollisionCapsule.obj
 0001:00070570       ??0dgCollisionCapsule@@QEAA@PEAVdgWorld@@P6AXPEAX1_K@Z1@Z 0000000180071570 f   physics_2009:dgCollisionCapsule.obj
 0001:000705d0       ?CalculateSignature@dgCollisionCone@@EEBAHXZ 00000001800715d0 f   physics_2009:dgCollisionCone.obj
 0001:00070650       ?DebugCollision@dgCollisionCone@@EEBAXAEBVdgMatrix@@P6AXPEAXHPEBNH@Z1@Z 0000000180071650 f   physics_2009:dgCollisionCone.obj
 0001:000708b0       ?GetCollisionInfo@dgCollisionCone@@EEBAXPEAVdgCollisionInfo@@@Z 00000001800718b0 f   physics_2009:dgCollisionCone.obj
 0001:00070920       ??_GdgCollisionCone@@UEAAPEAXI@Z 0000000180071920 f i physics_2009:dgCollisionCone.obj
 0001:00070920       ??_EdgCollisionCone@@UEAAPEAXI@Z 0000000180071920 f i physics_2009:dgCollisionCone.obj
 0001:00070970       ?Init@dgCollisionCone@@AEAAXNN@Z 0000000180071970 f   physics_2009:dgCollisionCone.obj
 0001:00070d20       ?SupportVertex@dgCollisionCone@@EEBA?AVdgVector@@AEBV2@@Z 0000000180071d20 f   physics_2009:dgCollisionCone.obj
 0001:00070dd0       ?CalculateMassProperties@dgCollisionCone@@EEBANAEAVdgVector@@00@Z 0000000180071dd0 f   physics_2009:dgCollisionCone.obj
 0001:00071290       ?CalculatePlaneIntersection@dgCollisionCone@@EEBAHAEBVdgVector@@0QEAV2@@Z 0000000180072290 f   physics_2009:dgCollisionCone.obj
 0001:00071290       ?CalculatePlaneIntersection@dgCollisionCylinder@@EEBAHAEBVdgVector@@0QEAV2@@Z 0000000180072290 f   physics_2009:dgCollisionCylinder.obj
 0001:00071510       ?Serialize@dgCollisionCone@@EEBAXP6AXPEAXPEBX_K@Z0@Z 0000000180072510 f   physics_2009:dgCollisionCone.obj
 0001:00071580       ??0dgCollisionCone@@QEAA@INNAEBVdgMatrix@@@Z 0000000180072580 f   physics_2009:dgCollisionCone.obj
 0001:000715e0       ??0dgCollisionCone@@QEAA@PEAVdgWorld@@P6AXPEAX1_K@Z1@Z 00000001800725e0 f   physics_2009:dgCollisionCone.obj
 0001:00071640       ?CalculateSignature@dgCollisionCylinder@@EEBAHXZ 0000000180072640 f   physics_2009:dgCollisionCylinder.obj
 0001:000716c0       ?DebugCollision@dgCollisionCylinder@@EEBAXAEBVdgMatrix@@P6AXPEAXHPEBNH@Z1@Z 00000001800726c0 f   physics_2009:dgCollisionCylinder.obj
 0001:000719a0       ?SupportVertexSimd@dgCollisionCylinder@@EEBA?AVdgVector@@AEBV2@@Z 00000001800729a0 f   physics_2009:dgCollisionCylinder.obj
 0001:000719a0       ?SupportVertexSimd@dgCollisionChamferCylinder@@MEBA?AVdgVector@@AEBV2@@Z 00000001800729a0 f   physics_2009:dgCollisionChamferCylinder.obj
 0001:000719a0       ?SupportVertexSimd@dgCollisionCone@@EEBA?AVdgVector@@AEBV2@@Z 00000001800729a0 f   physics_2009:dgCollisionCone.obj
 0001:000719c0       ?GetCollisionInfo@dgCollisionCylinder@@EEBAXPEAVdgCollisionInfo@@@Z 00000001800729c0 f   physics_2009:dgCollisionCylinder.obj
 0001:00071a40       ??_EdgCollisionCylinder@@UEAAPEAXI@Z 0000000180072a40 f i physics_2009:dgCollisionCylinder.obj
 0001:00071a40       ??_GdgCollisionCylinder@@UEAAPEAXI@Z 0000000180072a40 f i physics_2009:dgCollisionCylinder.obj
 0001:00071a90       ?Serialize@dgCollisionCylinder@@EEBAXP6AXPEAXPEBX_K@Z0@Z 0000000180072a90 f   physics_2009:dgCollisionCylinder.obj
 0001:00071b00       ?Init@dgCollisionCylinder@@AEAAXNN@Z 0000000180072b00 f   physics_2009:dgCollisionCylinder.obj
 0001:00071ed0       ?SupportVertex@dgCollisionCylinder@@EEBA?AVdgVector@@AEBV2@@Z 0000000180072ed0 f   physics_2009:dgCollisionCylinder.obj
 0001:00071f60       ?CalculateMassProperties@dgCollisionCylinder@@EEBANAEAVdgVector@@00@Z 0000000180072f60 f   physics_2009:dgCollisionCylinder.obj
 0001:000723c0       ?RayCast@dgCollisionCylinder@@EEBANAEBVdgVector@@0AEAVdgContactPoint@@P6AIPEBVdgBody@@PEBVdgCollision@@PEAX@Z24@Z 00000001800733c0 f   physics_2009:dgCollisionCylinder.obj
 0001:00072920       ??0dgCollisionCylinder@@QEAA@INNAEBVdgMatrix@@@Z 0000000180073920 f   physics_2009:dgCollisionCylinder.obj
 0001:00072980       ??0dgCollisionCylinder@@QEAA@PEAVdgWorld@@P6AXPEAX1_K@Z1@Z 0000000180073980 f   physics_2009:dgCollisionCylinder.obj
 0001:000729e0       ?CalculateSignature@dgCollisionChamferCylinder@@MEBAHXZ 00000001800739e0 f   physics_2009:dgCollisionChamferCylinder.obj
 0001:00072a60       ?GetCollisionInfo@dgCollisionChamferCylinder@@MEBAXPEAVdgCollisionInfo@@@Z 0000000180073a60 f   physics_2009:dgCollisionChamferCylinder.obj
 0001:00072ad0       ??_GdgCollisionChamferCylinder@@UEAAPEAXI@Z 0000000180073ad0 f i physics_2009:dgCollisionChamferCylinder.obj
 0001:00072ad0       ??_EdgCollisionChamferCylinder@@UEAAPEAXI@Z 0000000180073ad0 f i physics_2009:dgCollisionChamferCylinder.obj
 0001:00072b20       ?Serialize@dgCollisionChamferCylinder@@MEBAXP6AXPEAXPEBX_K@Z0@Z 0000000180073b20 f   physics_2009:dgCollisionChamferCylinder.obj
 0001:00072b90       ?Init@dgCollisionChamferCylinder@@IEAAXNN@Z 0000000180073b90 f   physics_2009:dgCollisionChamferCylinder.obj
 0001:00073230       ?DebugCollision@dgCollisionChamferCylinder@@MEBAXAEBVdgMatrix@@P6AXPEAXHPEBNH@Z1@Z 0000000180074230 f   physics_2009:dgCollisionChamferCylinder.obj
 0001:00073bb0       ?SupportVertex@dgCollisionChamferCylinder@@MEBA?AVdgVector@@AEBV2@@Z 0000000180074bb0 f   physics_2009:dgCollisionChamferCylinder.obj
 0001:00073d00       ?RayCast@dgCollisionChamferCylinder@@MEBANAEBVdgVector@@0AEAVdgContactPoint@@P6AIPEBVdgBody@@PEBVdgCollision@@PEAX@Z24@Z 0000000180074d00 f   physics_2009:dgCollisionChamferCylinder.obj
 0001:00073f50       ?RayCastSimd@dgCollisionChamferCylinder@@MEBANAEBVdgVector@@0AEAVdgContactPoint@@P6AIPEBVdgBody@@PEBVdgCollision@@PEAX@Z24@Z 0000000180074f50 f   physics_2009:dgCollisionChamferCylinder.obj
 0001:000741a0       ?CalculatePlaneIntersection@dgCollisionChamferCylinder@@MEBAHAEBVdgVector@@0QEAV2@@Z 00000001800751a0 f   physics_2009:dgCollisionChamferCylinder.obj
 0001:00074bd0       ??0dgCollisionChamferCylinder@@QEAA@INNAEBVdgMatrix@@@Z 0000000180075bd0 f   physics_2009:dgCollisionChamferCylinder.obj
 0001:00074c30       ??0dgCollisionChamferCylinder@@QEAA@PEAVdgWorld@@P6AXPEAX1_K@Z1@Z 0000000180075c30 f   physics_2009:dgCollisionChamferCylinder.obj
 0001:00074c90       ?CalculatePlaneIntersectionSimd@dgCollisionChamferCylinder@@MEBAHAEBVdgVector@@0QEAV2@@Z 0000000180075c90 f   physics_2009:dgCollisionChamferCylinder.obj
 0001:00074ca0       ?Malloc@dgMemoryAllocator@@QEAAPEAXH@Z 0000000180075ca0 f i corelib_2009:dgMemory.obj
 0001:00074e20       ?Free@dgMemoryAllocator@@QEAAXPEAX@Z 0000000180075e20 f i corelib_2009:dgMemory.obj
 0001:00074f50       ?__malloc__@dgMemoryAllocator@@CAPEAXI@Z 0000000180075f50 f i corelib_2009:dgMemory.obj
 0001:00074f60       ?DefaultFreeMemory@Newton@@SAXPEAXH@Z 0000000180075f60 f i NewtonClass.obj
 0001:00074f60       ?__free__@dgMemoryAllocator@@CAXPEAXI@Z 0000000180075f60 f i corelib_2009:dgMemory.obj
 0001:00074f70       ?dgSetMemoryDrivers@@YAXP6APEAXI@ZP6AXPEAXI@Z@Z 0000000180075f70 f   corelib_2009:dgMemory.obj
 0001:00074f80       ?dgGetMemoryUsed@@YAHXZ    0000000180075f80 f   corelib_2009:dgMemory.obj
 0001:00074f90       ?dgMallocStack@@YAPEAX_K@Z 0000000180075f90 f   corelib_2009:dgMemory.obj
 0001:00074fd0       ?dgFreeStack@@YAXPEAX@Z    0000000180075fd0 f   corelib_2009:dgMemory.obj
 0001:00075000       ?dgMalloc@@YAPEAX_K@Z      0000000180076000 f   corelib_2009:dgMemory.obj
 0001:00075020       ?dgFree@@YAXPEAX@Z         0000000180076020 f   corelib_2009:dgMemory.obj
 0001:00075040       ?dgCRC@@YAIPEBXHI@Z        0000000180076040 f   corelib_2009:dgCRC.obj
 0001:000750a0       ?TransformTriplex@dgMatrix@@QEBAXQEAXHQEBXHH@Z 00000001800760a0 f   corelib_2009:dgMatrix.obj
 0001:00075420       ?dgGetIdentityMatrix@@YAAEBVdgMatrix@@XZ 0000000180076420 f   corelib_2009:dgMatrix.obj
 0001:00075590       ??0dgMatrix@@QEAA@AEBVdgQuaternion@@AEBVdgVector@@@Z 0000000180076590 f   corelib_2009:dgMatrix.obj
 0001:00075790       ??DdgMatrix@@QEBA?AV0@AEBV0@@Z 0000000180076790 f   corelib_2009:dgMatrix.obj
 0001:00075c90       ?Symetric3by3Inverse@dgMatrix@@QEBA?AV1@XZ 0000000180076c90 f   corelib_2009:dgMatrix.obj
 0001:00075f40       ?CalcPitchYawRoll@dgMatrix@@QEBA?AVdgVector@@XZ 0000000180076f40 f   corelib_2009:dgMatrix.obj
 0001:00076040       ?Minimum@dgRedBackNode@@QEBAPEAV1@XZ 0000000180077040 f   corelib_2009:dgTree.obj
 0001:00076060       ?Next@dgRedBackNode@@QEBAPEAV1@XZ 0000000180077060 f   corelib_2009:dgTree.obj
 0001:000760a0       ?InsertFixup@dgRedBackNode@@QEAAXPEAPEAV1@@Z 00000001800770a0 f   corelib_2009:dgTree.obj
 0001:000762b0       ?RemoveFixup@dgRedBackNode@@QEAAXPEAV1@PEAPEAV1@@Z 00000001800772b0 f   corelib_2009:dgTree.obj
 0001:000765f0       ?Unlink@dgRedBackNode@@QEAAXPEAPEAV1@@Z 00000001800775f0 f   corelib_2009:dgTree.obj
 0001:00076720       ?RemoveAllLow@dgRedBackNode@@QEAAXXZ 0000000180077720 f   corelib_2009:dgTree.obj
 0001:00076760       ?RemoveAll@dgRedBackNode@@QEAAXXZ 0000000180077760 f   corelib_2009:dgTree.obj
 0001:000767b0       ?Remove@dgRedBackNode@@QEAAXPEAPEAV1@@Z 00000001800777b0 f   corelib_2009:dgTree.obj
 0001:000767e0       ??0dgThreads@@QEAA@XZ      00000001800777e0 f   corelib_2009:dgThreads.obj
 0001:000768d0       ?GetThreadCount@dgThreads@@QEBAHXZ 00000001800778d0 f   corelib_2009:dgThreads.obj
 0001:000768e0       ?DestroydgThreads@dgThreads@@QEAAXXZ 00000001800778e0 f   corelib_2009:dgThreads.obj
 0001:000769f0       ?SubmitJob@dgThreads@@QEAAHPEAVdgWorkerThread@@@Z 00000001800779f0 f   corelib_2009:dgThreads.obj
 0001:00076aa0       ?DoWork@dgThreads@@AEAAXXZ 0000000180077aa0 f   corelib_2009:dgThreads.obj
 0001:00076b50       ?SynchronizationBarrier@dgThreads@@QEAAXXZ 0000000180077b50 f   corelib_2009:dgThreads.obj
 0001:00076b80       ?CalculateChunkSizes@dgThreads@@QEBAXHQEAH@Z 0000000180077b80 f   corelib_2009:dgThreads.obj
 0001:00076be0       ?dgGetLock@dgThreads@@QEAAXXZ 0000000180077be0 f   corelib_2009:dgThreads.obj
 0001:00076c20       ?dgReleaseLock@dgThreads@@QEAAXXZ 0000000180077c20 f   corelib_2009:dgThreads.obj
 0001:00076c30       ?dgGetIndirectLock@dgThreads@@QEAAXPEAH@Z 0000000180077c30 f   corelib_2009:dgThreads.obj
 0001:00076c60       ?dgReleaseIndirectLock@dgThreads@@QEAAXPEAH@Z 0000000180077c60 f   corelib_2009:dgThreads.obj
 0001:00076c70       ??1dgThreads@@QEAA@XZ      0000000180077c70 f   corelib_2009:dgThreads.obj
 0001:00076c90       ?ThreadExecute@dgThreads@@CAIPEAX@Z 0000000180077c90 f   corelib_2009:dgThreads.obj
 0001:00076cb0       ?CreateThreaded@dgThreads@@QEAAXH@Z 0000000180077cb0 f   corelib_2009:dgThreads.obj
 0001:00076db0       ?Pop@?$dgDownHeap@PEAVdgEdge@@N@@QEAAXXZ 0000000180077db0 f i corelib_2009:dgPolyhedra.obj
 0001:00077bd0       ?DeleteEdge@dgPolyhedra@@QEAAXPEAVdgEdge@@@Z 0000000180078bd0 f   corelib_2009:dgPolyhedra.obj
 0001:00077c60       ?FaceNormal@dgPolyhedra@@QEBA?AVdgVector@@PEAVdgEdge@@QEBNH@Z 0000000180078c60 f   corelib_2009:dgPolyhedra.obj
 0001:00077cc0       ?Addtop@?$dgList@UEDGE_HANDLE@InternalPolyhedra@@@@QEAAPEAVdgListNode@1@AEBUEDGE_HANDLE@InternalPolyhedra@@@Z 0000000180078cc0 f i corelib_2009:dgPolyhedra.obj
 0001:00077dc0       ?Insert@?$dgTree@VdgEdge@@_J@@QEAAPEAVdgTreeNode@1@PEAV21@_J@Z 0000000180078dc0 f i corelib_2009:dgPolyhedra.obj
 0001:000789b0       ??0dgPolyhedra@@QEAA@XZ    00000001800799b0 f   corelib_2009:dgPolyhedra.obj
 0001:000789d0       ??1dgPolyhedra@@UEAA@XZ    00000001800799d0 f   corelib_2009:dgPolyhedra.obj
 0001:00078a10       ?DeleteFace@dgPolyhedra@@QEAAXPEAVdgEdge@@@Z 0000000180079a10 f   corelib_2009:dgPolyhedra.obj
 0001:00078aa0       ?DeleteDegenerateFaces@dgPolyhedra@@QEAAXQEBNHN@Z 0000000180079aa0 f   corelib_2009:dgPolyhedra.obj
 0001:00078c20       ?SwapInfo@dgPolyhedra@@QEAAXAEAV1@@Z 0000000180079c20 f   corelib_2009:dgPolyhedra.obj
 0001:00079480       ?Update@dgPolyhedraDescriptor@@QEAAXAEBVdgPolyhedra@@@Z 000000018007a480 f   corelib_2009:dgPolyhedra.obj
 0001:000796c0       ??_GdgPolyhedra@@UEAAPEAXI@Z 000000018007a6c0 f i corelib_2009:dgPolyhedra.obj
 0001:000796c0       ??_EdgPolyhedra@@UEAAPEAXI@Z 000000018007a6c0 f i corelib_2009:dgPolyhedra.obj
 0001:00079720       ?CollapseEdge@dgPolyhedra@@AEAAPEAVdgEdge@@PEAV2@@Z 000000018007a720 f   corelib_2009:dgPolyhedra.obj
 0001:00079b20       ?Insert@?$dgTree@VdgEdge@@_J@@QEAAPEAVdgTreeNode@1@AEBVdgEdge@@_JAEA_N@Z 000000018007ab20 f i corelib_2009:dgPolyhedra.obj
 0001:00079ec0       ?EndFace@dgPolyhedra@@QEAAXXZ 000000018007aec0 f   corelib_2009:dgPolyhedra.obj
 0001:00079ee0       ?AddFace@dgPolyhedra@@QEAAPEAVdgEdge@@HQEBHQEB_J@Z 000000018007aee0 f   corelib_2009:dgPolyhedra.obj
 0001:0007a330       ?Optimize@dgPolyhedra@@QEAAXQEBNHN@Z 000000018007b330 f   corelib_2009:dgPolyhedra.obj
 0001:0007b070       ??0dgPolyhedra@@QEAA@AEBV0@@Z 000000018007c070 f   corelib_2009:dgPolyhedra.obj
 0001:0007b220       ?AddFace@dgPolyhedra@@QEAAPEAVdgEdge@@HQEBH@Z 000000018007c220 f   corelib_2009:dgPolyhedra.obj
 0001:0007b280       ?AddFace@dgPolyhedra@@QEAAPEAVdgEdge@@HHH@Z 000000018007c280 f   corelib_2009:dgPolyhedra.obj
 0001:0007b2c0       ?AddHalfEdge@dgPolyhedra@@QEAAPEAVdgEdge@@HH@Z 000000018007c2c0 f   corelib_2009:dgPolyhedra.obj
 0001:0007b330       ?SpliteEdge@dgPolyhedra@@QEAAXHPEAVdgEdge@@@Z 000000018007c330 f   corelib_2009:dgPolyhedra.obj
 0001:0007b590       ?SpliteEdgeAndTriangulate@dgPolyhedra@@QEAAXHPEAVdgEdge@@@Z 000000018007c590 f   corelib_2009:dgPolyhedra.obj
 0001:0007b8e0       ?GetConectedSurface@dgPolyhedra@@QEBA_NAEAV1@@Z 000000018007c8e0 f   corelib_2009:dgPolyhedra.obj
 0001:0007d430       ?TriangulateFace@dgPolyhedra@@QEAA_NPEAVdgEdge@@QEBNHAEAVdgVector@@@Z 000000018007e430 f   corelib_2009:dgPolyhedra.obj
 0001:0007d4b0       ?Triangulate@dgPolyhedra@@QEAAXQEBNHPEAV1@@Z 000000018007e4b0 f   corelib_2009:dgPolyhedra.obj
 0001:0007d710       ?ConvexPartition@dgPolyhedra@@QEAAXQEBNHPEAV1@@Z 000000018007e710 f   corelib_2009:dgPolyhedra.obj
 0001:0007d7a0       ??0dgStackBase@@IEAA@H@Z   000000018007e7a0 f   corelib_2009:dgStack.obj
 0001:0007d7c0       ??1dgStackBase@@IEAA@XZ    000000018007e7c0 f   corelib_2009:dgStack.obj
 0001:0007d7d0       ?GetMinMax@@YAXAEAVdgVector@@0QEBNHH@Z 000000018007e7d0 f   corelib_2009:dgTypes.obj
 0001:0007ecc0       ?dgVertexListToIndexList@@YAHQEANHHHHQEAHN@Z 000000018007fcc0 f   corelib_2009:dgTypes.obj
 0001:0007eeb0       ?ForAllSectorsSimd@dgAABBTree@@QEBAXQEBHQEBNAEBVdgVector@@2P6A?AW4dgIntersectStatus@@PEAX1H0H@Z3@Z 000000018007feb0 f i corelib_2009:dgAABBPolygonSoup.obj
 0001:0007f070       ?ForAllSectors@dgAABBTree@@QEBAXQEBHQEBNAEBVdgVector@@2P6A?AW4dgIntersectStatus@@PEAX1H0H@Z3@Z 0000000180080070 f i corelib_2009:dgAABBPolygonSoup.obj
 0001:0007f500       ?CompareBox@dgAABBTree@@CAHQEBV1@0PEAX@Z 0000000180080500 f i corelib_2009:dgAABBPolygonSoup.obj
 0001:0007f550       ??0dgAABBPolygonSoup@@IEAA@XZ 0000000180080550 f   corelib_2009:dgAABBPolygonSoup.obj
 0001:0007f580       ??1dgAABBPolygonSoup@@MEAA@XZ 0000000180080580 f   corelib_2009:dgAABBPolygonSoup.obj
 0001:0007f5d0       ?ForAllSectorsSimd@dgAABBPolygonSoup@@MEBAXAEBVdgVector@@0P6A?AW4dgIntersectStatus@@PEAXQEBNHQEBHH@ZQEAX@Z 00000001800805d0 f   corelib_2009:dgAABBPolygonSoup.obj
 0001:0007f610       ?ForAllSectors@dgAABBPolygonSoup@@MEBAXAEBVdgVector@@0P6A?AW4dgIntersectStatus@@PEAXQEBNHQEBHH@ZQEAX@Z 0000000180080610 f   corelib_2009:dgAABBPolygonSoup.obj
 0001:0007f650       ?Serialize@dgAABBPolygonSoup@@UEBAXP6AXPEAXPEBX_K@Z0@Z 0000000180080650 f   corelib_2009:dgAABBPolygonSoup.obj
 0001:0007f720       ?Deserialize@dgAABBPolygonSoup@@UEAAXP6AXPEAX0_K@Z0@Z 0000000180080720 f   corelib_2009:dgAABBPolygonSoup.obj
 0001:0007f830       ??$dgSort@VdgAABBTree@@@@YAXQEAVdgAABBTree@@HP6AHQEBV0@1PEAX@Z2@Z 0000000180080830 f i corelib_2009:dgAABBPolygonSoup.obj
 0001:0007fb00       ?Resize@?$dgArray@VdgTriplex@@@@QEBAXH@Z 0000000180080b00 f i corelib_2009:dgAABBPolygonSoup.obj
 0001:0007fc30       ?Resize@?$dgArray@H@@QEBAXH@Z 0000000180080c30 f i corelib_2009:dgAABBPolygonSoup.obj
 0001:0007fd20       ??_GdgPolygonSoupDatabase@@MEAAPEAXI@Z 0000000180080d20 f i corelib_2009:dgAABBPolygonSoup.obj
 0001:0007fd20       ??_EdgPolygonSoupDatabase@@MEAAPEAXI@Z 0000000180080d20 f i corelib_2009:dgAABBPolygonSoup.obj
 0001:0007fd70       ?CalcExtends@dgAABBTree@@QEAAXQEAVdgTriplex@@HQEBH@Z 0000000180080d70 f i corelib_2009:dgAABBPolygonSoup.obj
 0001:00080100       ?ForAllSectorsRayHit@dgAABBTree@@QEBAXAEBVFastRayTest@@PEBHPEBNP6ANPEAXQEBNHQEBHH@ZQEAX@Z 0000000180081100 f i corelib_2009:dgAABBPolygonSoup.obj
 0001:00080520       ?ForAllSectorsSupportVertex@dgAABBTree@@QEBA?AVdgVector@@AEBV2@QEBHQEBN@Z 0000000180081520 f i corelib_2009:dgAABBPolygonSoup.obj
 0001:00080fb0       ?CalcBoxFromBoxArray@dgAABBTree@@AEAAXQEBV1@HPEAVdgTriplex@@AEAH@Z 0000000180081fb0 f i corelib_2009:dgAABBPolygonSoup.obj
 0001:00081380       ?GetAxis@dgAABBTree@@AEBAHQEBV1@HQEBVdgTriplex@@@Z 0000000180082380 f i corelib_2009:dgAABBPolygonSoup.obj
 0001:00081770       ?SpliteBoxArray@dgAABBTree@@AEBAHQEAV1@HQEBVdgTriplex@@@Z 0000000180082770 f i corelib_2009:dgAABBPolygonSoup.obj
 0001:00081b80       ??_GdgAABBPolygonSoup@@MEAAPEAXI@Z 0000000180082b80 f i corelib_2009:dgAABBPolygonSoup.obj
 0001:00081b80       ??_EdgAABBPolygonSoup@@MEAAPEAXI@Z 0000000180082b80 f i corelib_2009:dgAABBPolygonSoup.obj
 0001:00081bf0       ?ForAllSectorsSupportVectex@dgAABBPolygonSoup@@MEBA?AVdgVector@@AEBV2@@Z 0000000180082bf0 f   corelib_2009:dgAABBPolygonSoup.obj
 0001:00081c40       ?GetAABB@dgAABBPolygonSoup@@UEBAXAEAVdgVector@@0@Z 0000000180082c40 f   corelib_2009:dgAABBPolygonSoup.obj
 0001:00081d70       ?ForAllSectorsRayHit@dgAABBPolygonSoup@@MEBAXAEBVFastRayTest@@P6ANPEAXQEBNHQEBHH@ZQEAX@Z 0000000180082d70 f   corelib_2009:dgAABBPolygonSoup.obj
 0001:00081da0       ?CollectMyFaces@dgAABBPolygonSoup@@CA?AW4dgIntersectStatus@@PEAXQEBNHQEBHH@Z 0000000180082da0 f   corelib_2009:dgAABBPolygonSoup.obj
 0001:00082150       ?Build@dgAABBTree@@QEAAXPEAV1@QEAV1@QEBV1@HPEBV1@AEAHQEAVdgTriplex@@4@Z 0000000180083150 f i corelib_2009:dgAABBPolygonSoup.obj
 0001:00082320       ?CollectAllFaces@dgAABBPolygonSoup@@CA?AW4dgIntersectStatus@@PEAXQEBNHQEBHH@Z 0000000180083320 f   corelib_2009:dgAABBPolygonSoup.obj
 0001:000828d0       ?Create@dgAABBPolygonSoup@@IEAAXAEBVdgPolygonSoupDatabaseBuilder@@@Z 00000001800838d0 f   corelib_2009:dgAABBPolygonSoup.obj
 0001:00082f00       ?AddFilterFace@dgPolySoupFilterAllocator@@QEAAHIQEAH@Z 0000000180083f00 f i corelib_2009:dgPolygonSoupBuilder.obj
 0001:00082ff0       ?Begin@dgPolygonSoupDatabaseBuilder@@QEAAXXZ 0000000180083ff0 f   corelib_2009:dgPolygonSoupBuilder.obj
 0001:00083000       ??_GdgPolySoupFilterAllocator@@UEAAPEAXI@Z 0000000180084000 f i corelib_2009:dgPolygonSoupBuilder.obj
 0001:00083000       ??_EdgPolySoupFilterAllocator@@UEAAPEAXI@Z 0000000180084000 f i corelib_2009:dgPolygonSoupBuilder.obj
 0001:00083040       ??1dgPolygonSoupDatabaseBuilder@@QEAA@XZ 0000000180084040 f   corelib_2009:dgPolygonSoupBuilder.obj
 0001:000830a0       ??0dgPolygonSoupDatabaseBuilder@@QEAA@XZ 00000001800840a0 f   corelib_2009:dgPolygonSoupBuilder.obj
 0001:00083100       ?FilterFace@dgPolygonSoupDatabaseBuilder@@AEAAHHQEAH@Z 0000000180084100 f   corelib_2009:dgPolygonSoupBuilder.obj
 0001:00083c40       ?AddConvexFace@dgPolygonSoupDatabaseBuilder@@AEAAHHQEAH0@Z 0000000180084c40 f   corelib_2009:dgPolygonSoupBuilder.obj
 0001:00084860       ?AddMesh@dgPolygonSoupDatabaseBuilder@@QEAAXQEBNHHHQEBH11AEBVdgMatrix@@@Z 0000000180085860 f   corelib_2009:dgPolygonSoupBuilder.obj
 0001:00084b60       ?OptimizeByGroupID@dgPolygonSoupDatabaseBuilder@@AEAAXAEAV1@HH0@Z 0000000180085b60 f   corelib_2009:dgPolygonSoupBuilder.obj
 0001:00085150       ?OptimizeByIndividualFaces@dgPolygonSoupDatabaseBuilder@@AEAAXXZ 0000000180086150 f   corelib_2009:dgPolygonSoupBuilder.obj
 0001:000852c0       ?OptimizeByGroupID@dgPolygonSoupDatabaseBuilder@@AEAAXXZ 00000001800862c0 f   corelib_2009:dgPolygonSoupBuilder.obj
 0001:00085b80       ?EndAndOptimize@dgPolygonSoupDatabaseBuilder@@AEAAX_N@Z 0000000180086b80 f   corelib_2009:dgPolygonSoupBuilder.obj
 0001:00085d60       ?End@dgPolygonSoupDatabaseBuilder@@QEAAX_N@Z 0000000180086d60 f   corelib_2009:dgPolygonSoupBuilder.obj
 0001:00087230       ?CalculateSignature@dgCollisionMesh@@EEBAHXZ 0000000180088230 f   physics_2009:dgCollisionMesh.obj
 0001:00087230       ?CalculateConvexToConvexContactsSimd@dgWorld@@AEBAHAEAVdgCollisionParamProxi@@@Z 0000000180088230 f   physics_2009:dgMinkowskiConv.obj
 0001:00087230       ?CalculatePlaneIntersectionSimd@dgCollisionCapsule@@EEBAHAEBVdgVector@@0QEAV2@@Z 0000000180088230 f   physics_2009:dgCollisionCapsule.obj
 0001:00087230       ?CalculatePlaneIntersectionSimd@dgConvexCollision@@UEBAHAEBVdgVector@@0QEAV2@@Z 0000000180088230 f   physics_2009:dgConvexCollision.obj
 0001:00087230       ?GetPerformanceCount@dgWorld@@CAIXZ 0000000180088230 f   physics_2009:dgWorld.obj
 0001:00087230       ?CalculatePlaneIntersectionSimd@dgCollisionSphere@@MEBAHAEBVdgVector@@0QEAV2@@Z 0000000180088230 f   physics_2009:dgCollisionSphere.obj
 0001:00087230       ?BoxTestSimd@FastRayTest@@QEBAHAEBVdgVector@@0@Z 0000000180088230 f   corelib_2009:dgIntersections.obj
 0001:00087230       ?CalculateSignature@dgCompoundCollision@@EEBAHXZ 0000000180088230 f   physics_2009:dgCompoundCollision.obj
 0001:00087230       ?dgGetCpuType@@YA?AW4dgCpuClass@@XZ 0000000180088230 f   corelib_2009:dgTypes.obj
 0001:00087230       ?CalculateConvexToNonConvexContactsSimd@dgWorld@@AEBAHAEAVdgCollisionParamProxi@@@Z 0000000180088230 f   physics_2009:dgMinkowskiConv.obj
 0001:00087230       ?CalculatePlaneIntersectionSimd@dgCollisionConvexPolygon@dgCollisionMesh@@UEBAHAEBVdgVector@@0QEAV3@@Z 0000000180088230 f   physics_2009:dgCollisionMesh.obj
 0001:00087230       ?GetUserData@dgCollisionMesh@@UEBAPEAXXZ 0000000180088230 f   physics_2009:dgCollisionMesh.obj
 0001:00087230       ?CalculatePlaneIntersectionSimd@dgCollisionBox@@MEBAHAEBVdgVector@@0QEAV2@@Z 0000000180088230 f   physics_2009:dgCollisionBox.obj
 0001:00087230       ?CalculatePlaneIntersectionSimd@dgCollisionCone@@EEBAHAEBVdgVector@@0QEAV2@@Z 0000000180088230 f   physics_2009:dgCollisionCone.obj
 0001:00087230       ?GetUserData@dgCollision@@UEBAPEAXXZ 0000000180088230 f   physics_2009:dgCollision.obj
 0001:00087230       ?CalculatePlaneIntersectionSimd@dgCollisionCylinder@@EEBAHAEBVdgVector@@0QEAV2@@Z 0000000180088230 f   physics_2009:dgCollisionCylinder.obj
 0001:00087230       ?CalculateSignature@dgCollisionScene@@EEBAHXZ 0000000180088230 f   physics_2009:dgCollisionScene.obj
 0001:00087230       ?CalculateSignature@dgCollisionConvexModifier@@EEBAHXZ 0000000180088230 f   physics_2009:dgCollisionConvexModifier.obj
 0001:00087230       ?CalculatePlaneIntersectionSimd@dgCollisionEllipse@@EEBAHAEBVdgVector@@0QEAV2@@Z 0000000180088230 f   physics_2009:dgCollisionEllipse.obj
 0001:00087240       ??0FastRayTest@@QEAA@AEBVdgVector@@0@Z 0000000180088240 f   corelib_2009:dgIntersections.obj
 0001:00087580       ?BoxTest@FastRayTest@@QEBAHAEBVdgVector@@0@Z 0000000180088580 f   corelib_2009:dgIntersections.obj
 0001:00087620       ?PolygonIntersect@FastRayTest@@QEBANAEBVdgVector@@QEBNHQEBHH@Z 0000000180088620 f   corelib_2009:dgIntersections.obj
 0001:000878f0       ?dgRayBoxClip@@YA_NAEAVdgVector@@0AEBV1@1@Z 00000001800888f0 f   corelib_2009:dgIntersections.obj
 0001:00087be0       ?dgPointToRayDistance@@YA?AVdgVector@@AEBV1@00@Z 0000000180088be0 f   corelib_2009:dgIntersections.obj
 0001:00087d20       ?dgRayToRayDistance@@YAXAEBVdgVector@@000AEAV1@1@Z 0000000180088d20 f   corelib_2009:dgIntersections.obj
 0001:000880c0       ?dgPointToTriangleDistance@@YA?AVdgBigVector@@AEBV1@000@Z 00000001800890c0 f   corelib_2009:dgIntersections.obj
 0001:000880c0       ?dgPointToTriangleDistance@@YA?AVdgVector@@AEBV1@000@Z 00000001800890c0 f   corelib_2009:dgIntersections.obj
 0001:000885e0       ??0dgQuaternion@@QEAA@AEBVdgVector@@N@Z 00000001800895e0 f   corelib_2009:dgQuaternion.obj
 0001:00088650       ??0dgQuaternion@@QEAA@AEBVdgMatrix@@@Z 0000000180089650 f   corelib_2009:dgQuaternion.obj
 0001:000887fc       _fpclear                   00000001800897fc f   LIBCMT:_fpinit_.obj
 0001:000887fc       _initp_misc_winxfltr       00000001800897fc f   LIBCMT:winxfltr.obj
 0001:00088800       _cfltcvt_init              0000000180089800 f   LIBCMT:_fpinit_.obj
 0001:00088888       _fpmath                    0000000180089888 f   LIBCMT:_fpinit_.obj
 0001:000888a0       memcpy                     00000001800898a0 f   LIBCMT:memcpy.obj
 0001:000888a0       memmove                    00000001800898a0     LIBCMT:memcpy.obj
 0001:00088bd4       ceil                       0000000180089bd4 f   LIBCMT:_ceil_.obj
 0001:00088ce8       sqrt                       0000000180089ce8 f   LIBCMT:_sqrt_.obj
 0001:00088f48       sin                        0000000180089f48 f   LIBCMT:_sincos_.obj
 0001:00089264       cos                        000000018008a264 f   LIBCMT:_sincos_.obj
 0001:00089568       malloc                     000000018008a568 f   LIBCMT:malloc.obj
 0001:00089620       free                       000000018008a620 f   LIBCMT:free.obj
 0001:00089670       memset                     000000018008a670 f   LIBCMT:memset.obj
 0001:0008975c       atan2                      000000018008a75c f   LIBCMT:_atan2_.obj
 0001:00089f70       _CRT_INIT                  000000018008af70 f   LIBCMT:dllcrt0.obj
 0001:0008a1c4       _DllMainCRTStartup         000000018008b1c4 f   LIBCMT:dllcrt0.obj
 0001:0008a204       sprintf                    000000018008b204 f   LIBCMT:sprintf.obj
 0001:0008a2a0       _purecall                  000000018008b2a0 f   LIBCMT:purevirt.obj
 0001:0008a2d8       acos                       000000018008b2d8 f   LIBCMT:_acos_.obj
 0001:0008a5d8       asin                       000000018008b5d8 f   LIBCMT:_asin_.obj
 0001:0008a8b8       log                        000000018008b8b8 f   LIBCMT:_log_.obj
 0001:0008abb0       pow                        000000018008bbb0 f   LIBCMT:_pow_.obj
 0001:0008b1a1       __clear_x87_state          000000018008c1a1 f   LIBCMT:_pow_.obj
 0001:0008b1a8       __onexitinit               000000018008c1a8 f   LIBCMT:onexit.obj
 0001:0008b1ec       _onexit                    000000018008c1ec f   LIBCMT:onexit.obj
 0001:0008b2f4       atexit                     000000018008c2f4 f   LIBCMT:onexit.obj
 0001:0008b30c       _endthreadex               000000018008c30c f   LIBCMT:threadex.obj
 0001:0008b41c       _beginthreadex             000000018008c41c f   LIBCMT:threadex.obj
 0001:0008b520       ??0_LocaleUpdate@@QEAA@PEAUlocaleinfo_struct@@@Z 000000018008c520 f i LIBCMT:cvt.obj
 0001:0008b5cc       _forcdecpt_l               000000018008c5cc f   LIBCMT:cvt.obj
 0001:0008b64c       _cropzeros_l               000000018008c64c f   LIBCMT:cvt.obj
 0001:0008b6ec       _positive                  000000018008c6ec f   LIBCMT:cvt.obj
 0001:0008b704       _fassign_l                 000000018008c704 f   LIBCMT:cvt.obj
 0001:0008b748       _fassign                   000000018008c748 f   LIBCMT:cvt.obj
 0001:0008b750       _forcdecpt                 000000018008c750 f   LIBCMT:cvt.obj
 0001:0008b758       _cropzeros                 000000018008c758 f   LIBCMT:cvt.obj
 0001:0008b9b8       _cftoe_l                   000000018008c9b8 f   LIBCMT:cvt.obj
 0001:0008bac4       _cftoa_l                   000000018008cac4 f   LIBCMT:cvt.obj
 0001:0008c0b4       _cftof_l                   000000018008d0b4 f   LIBCMT:cvt.obj
 0001:0008c19c       _cftog_l                   000000018008d19c f   LIBCMT:cvt.obj
 0001:0008c2e0       _cfltcvt_l                 000000018008d2e0 f   LIBCMT:cvt.obj
 0001:0008c378       _cfltcvt                   000000018008d378 f   LIBCMT:cvt.obj
 0001:0008c39c       _initp_misc_cfltcvt_tab    000000018008d39c f   LIBCMT:cmiscdat.obj
 0001:0008c4f8       _handle_error              000000018008d4f8 f   LIBCMT:_libm_error_.obj
 0001:0008c648       _controlfp_s               000000018008d648 f   LIBCMT:_contrlfp_.obj
 0001:0008c6bc       __remainder_piby2          000000018008d6bc f   LIBCMT:_remainder_piby2_.obj
 0001:0008cbc0       _amsg_exit                 000000018008dbc0 f   LIBCMT:crt0dat.obj
 0001:0008cbf0       __crtCorExitProcess        000000018008dbf0 f   LIBCMT:crt0dat.obj
 0001:0008cc2c       __crtExitProcess           000000018008dc2c f   LIBCMT:crt0dat.obj
 0001:0008cc44       _lockexit                  000000018008dc44 f   LIBCMT:crt0dat.obj
 0001:0008cc50       _unlockexit                000000018008dc50 f   LIBCMT:crt0dat.obj
 0001:0008cc90       _initterm_e                000000018008dc90 f   LIBCMT:crt0dat.obj
 0001:0008cccc       _cinit                     000000018008dccc f   LIBCMT:crt0dat.obj
 0001:0008cf08       _exit                      000000018008df08 f   LIBCMT:crt0dat.obj
 0001:0008cf14       _cexit                     000000018008df14 f   LIBCMT:crt0dat.obj
 0001:0008cf24       _init_pointers             000000018008df24 f   LIBCMT:crt0dat.obj
 0001:0008cf8c       _NMSG_WRITE                000000018008df8c f   LIBCMT:crt0msg.obj
 0001:0008d1b4       _FF_MSGBANNER              000000018008e1b4 f   LIBCMT:crt0msg.obj
 0001:0008d1f8       _heap_init                 000000018008e1f8 f   LIBCMT:heapinit.obj
 0001:0008d244       _heap_term                 000000018008e244 f   LIBCMT:heapinit.obj
 0001:0008d264       _get_errno_from_oserr      000000018008e264 f   LIBCMT:dosmap.obj
 0001:0008d2ac       _errno                     000000018008e2ac f   LIBCMT:dosmap.obj
 0001:0008d2cc       __doserrno                 000000018008e2cc f   LIBCMT:dosmap.obj
 0001:0008d2ec       _dosmaperr                 000000018008e2ec f   LIBCMT:dosmap.obj
 0001:0008d334       _initp_heap_handler        000000018008e334 f   LIBCMT:handler.obj
 0001:0008d33c       _callnewh                  000000018008e33c f   LIBCMT:handler.obj
 0001:0008d370       _encode_pointer            000000018008e370 f   LIBCMT:tidtable.obj
 0001:0008d378       _encoded_null              000000018008e378 f   LIBCMT:tidtable.obj
 0001:0008d384       _decode_pointer            000000018008e384 f   LIBCMT:tidtable.obj
 0001:0008d38c       __fls_getvalue             000000018008e38c f   LIBCMT:tidtable.obj
 0001:0008d394       __get_flsindex             000000018008e394 f   LIBCMT:tidtable.obj
 0001:0008d39c       __set_flsgetvalue          000000018008e39c f   LIBCMT:tidtable.obj
 0001:0008d39c       _matherr                   000000018008e39c f   LIBCMT:_matherr_.obj
 0001:0008d3a0       __fls_setvalue             000000018008e3a0 f   LIBCMT:tidtable.obj
 0001:0008d3a8       _mtterm                    000000018008e3a8 f   LIBCMT:tidtable.obj
 0001:0008d3d0       _initptd                   000000018008e3d0 f   LIBCMT:tidtable.obj
 0001:0008d484       _getptd_noexit             000000018008e484 f   LIBCMT:tidtable.obj
 0001:0008d508       _getptd                    000000018008e508 f   LIBCMT:tidtable.obj
 0001:0008d52c       _freefls                   000000018008e52c f   LIBCMT:tidtable.obj
 0001:0008d664       _freeptd                   000000018008e664 f   LIBCMT:tidtable.obj
 0001:0008d6a4       _mtinit                    000000018008e6a4 f   LIBCMT:tidtable.obj
 0001:0008d728       _malloc_crt                000000018008e728 f   LIBCMT:crtheap.obj
 0001:0008d794       _calloc_crt                000000018008e794 f   LIBCMT:crtheap.obj
 0001:0008d818       _realloc_crt               000000018008e818 f   LIBCMT:crtheap.obj
 0001:0008d8a0       _ioinit                    000000018008e8a0 f   LIBCMT:ioinit.obj
 0001:0008db90       _ioterm                    000000018008eb90 f   LIBCMT:ioinit.obj
 0001:0008dbfc       _setenvp                   000000018008ebfc f   LIBCMT:stdenvp.obj
 0001:0008defc       _setargv                   000000018008eefc f   LIBCMT:stdargv.obj
 0001:0008dff4       __crtGetEnvironmentStringsA 000000018008eff4 f   LIBCMT:a_env.obj
 0001:0008e1a8       _RTC_Initialize            000000018008f1a8 f   LIBCMT:_initsect_.obj
 0001:0008e1e0       _RTC_Terminate             000000018008f1e0 f   LIBCMT:_initsect_.obj
 0001:0008e218       __C_specific_handler       000000018008f218 f   LIBCMT:chandler.obj
 0001:0008e3bc       _XcptFilter                000000018008f3bc f   LIBCMT:winxfltr.obj
 0001:0008e58c       __CppXcptFilter            000000018008f58c f   LIBCMT:winxfltr.obj
 0001:0008e5ac       __security_init_cookie     000000018008f5ac f   LIBCMT:gs_support.obj
 0001:0008e660       _flsbuf                    000000018008f660 f   LIBCMT:_flsbuf.obj
 0001:0008e90c       _output_l                  000000018008f90c f   LIBCMT:output.obj
 0001:0008f3f4       _initp_misc_invarg         00000001800903f4 f   LIBCMT:invarg.obj
 0001:0008f3fc       _invoke_watson             00000001800903fc f   LIBCMT:invarg.obj
 0001:0008f524       _invalid_parameter         0000000180090524 f   LIBCMT:invarg.obj
 0001:0008f5ac       abort                      00000001800905ac f   LIBCMT:abort.obj
 0001:0008f650       _set_abort_behavior        0000000180090650 f   LIBCMT:abort.obj
 0001:0008f66c       _initp_misc_purevirt       000000018009066c f   LIBCMT:inithelp.obj
 0001:0008f674       __pow_error                0000000180090674 f   LIBCMT:_pow_error_.obj
 0001:0008f984       _msize                     0000000180090984 f   LIBCMT:msize.obj
 0001:0008f9d0       _ValidateImageBase         00000001800909d0 f   LIBCMT:pesect.obj
 0001:0008fa00       _FindPESection             0000000180090a00 f   LIBCMT:pesect.obj
 0001:0008fa50       _IsNonwritableInCurrentImage 0000000180090a50 f   LIBCMT:pesect.obj
 0001:0008fa94       strrchr                    0000000180090a94 f   LIBCMT:strrchr.obj
 0001:0008fd34       __updatetmbcinfo           0000000180090d34 f   LIBCMT:mbctype.obj
 0001:0008fe80       _setmbcp_nolock            0000000180090e80 f   LIBCMT:mbctype.obj
 0001:000900f8       _setmbcp                   00000001800910f8 f   LIBCMT:mbctype.obj
 0001:000902f0       __initmbctable             00000001800912f0 f   LIBCMT:mbctype.obj
 0001:00090318       __freetlocinfo             0000000180091318 f   LIBCMT:setlocal.obj
 0001:00090494       __addlocaleref             0000000180091494 f   LIBCMT:setlocal.obj
 0001:0009052c       __removelocaleref          000000018009152c f   LIBCMT:setlocal.obj
 0001:0009062c       __updatetlocinfo           000000018009162c f   LIBCMT:setlocal.obj
 0001:000906a4       isdigit                    00000001800916a4 f i LIBCMT:_ctype.obj
 0001:00090724       _tolower_l                 0000000180091724 f   LIBCMT:tolower.obj
 0001:00090894       tolower                    0000000180091894 f   LIBCMT:tolower.obj
 0001:000908bc       _atodbl_l                  00000001800918bc f   LIBCMT:atodbl.obj
 0001:000909c0       _atoflt_l                  00000001800919c0 f   LIBCMT:atodbl.obj
 0001:00090ae0       strlen                     0000000180091ae0 f   LIBCMT:strlen.obj
 0001:00090b88       strcpy_s                   0000000180091b88 f   LIBCMT:strcpy_s.obj
 0001:00090bfc       __GSHandlerCheckCommon     0000000180091bfc f   LIBCMT:gshandler.obj
 0001:00090c60       __GSHandlerCheck           0000000180091c60 f   LIBCMT:gshandler.obj
 0001:00090c80       _fptostr                   0000000180091c80 f   LIBCMT:_fptostr.obj
 0001:00090d5c       __dtold                    0000000180091d5c f   LIBCMT:_cfout_.obj
 0001:00090e34       _fltout2                   0000000180091e34 f   LIBCMT:_cfout_.obj
 0001:00090f10       __security_check_cookie    0000000180091f10 f   LIBCMT:amdsecgs.obj
 0001:00090f30       _fptrap                    0000000180091f30 f   LIBCMT:crt0fp.obj
 0001:00090f3c       _raise_exc_ex              0000000180091f3c f   LIBCMT:_fpexcept_.obj
 0001:00091278       _raise_exc                 0000000180092278 f   LIBCMT:_fpexcept_.obj
 0001:000912a0       _set_errno_from_matherr    00000001800922a0 f   LIBCMT:_fpexcept_.obj
 0001:000912d0       _statfp                    00000001800922d0 f   LIBCMT:_fpctrl_.obj
 0001:000912e4       _clrfp                     00000001800922e4 f   LIBCMT:_fpctrl_.obj
 0001:00091304       _ctrlfp                    0000000180092304 f   LIBCMT:_fpctrl_.obj
 0001:00091380       _set_statfp                0000000180092380 f   LIBCMT:_fpctrl_.obj
 0001:000913a0       _control87                 00000001800923a0 f i LIBCMT:_ieee_.obj
 0001:0009163c       _mtinitlocks               000000018009263c f   LIBCMT:mlock.obj
 0001:000916c8       _mtdeletelocks             00000001800926c8 f   LIBCMT:mlock.obj
 0001:0009174c       _unlock                    000000018009274c f   LIBCMT:mlock.obj
 0001:00091764       _mtinitlocknum             0000000180092764 f   LIBCMT:mlock.obj
 0001:0009184c       _lock                      000000018009284c f   LIBCMT:mlock.obj
 0001:00091890       ?terminate@@YAXXZ          0000000180092890 f   LIBCMT:hooks.obj
 0001:000918b4       _initp_eh_hooks            00000001800928b4 f   LIBCMT:hooks.obj
 0001:000918d0       _initp_misc_winsig         00000001800928d0 f   LIBCMT:winsig.obj
 0001:000918f0       __get_sigabrt              00000001800928f0 f   LIBCMT:winsig.obj
 0001:000918fc       raise                      00000001800928fc f   LIBCMT:winsig.obj
 0001:00091b70       _initp_misc_rand_s         0000000180092b70 f   LIBCMT:rand_s.obj
 0001:00091b78       _initp_misc_initcrit       0000000180092b78 f   LIBCMT:initcrit.obj
 0001:00091b80       __crtInitCritSecAndSpinCount 0000000180092b80 f   LIBCMT:initcrit.obj
 0001:00091bb0       __crtMessageBoxA           0000000180092bb0 f   LIBCMT:crtmbox.obj
 0001:00091da4       strcat_s                   0000000180092da4 f   LIBCMT:strcat_s.obj
 0001:00091e30       strncpy_s                  0000000180092e30 f   LIBCMT:strncpy_s.obj
 0001:00091f08       _set_error_mode            0000000180092f08 f   LIBCMT:errmode.obj
 0001:00091f58       _calloc_impl               0000000180092f58 f   LIBCMT:calloc_impl.obj
 0001:00092008       realloc                    0000000180093008 f   LIBCMT:realloc.obj
 0001:00092158       _ismbblead                 0000000180093158 f   LIBCMT:ismbbyte.obj
 0001:00092180       _local_unwind              0000000180093180 f   LIBCMT:jmpuwind.obj
 0001:000921b0       _NLG_Notify                00000001800931b0 f   LIBCMT:jmpuwind.obj
 0001:000921d0       __NLG_Dispatch2            00000001800931d0 f   LIBCMT:jmpuwind.obj
 0001:000921e0       __NLG_Return2              00000001800931e0 f   LIBCMT:jmpuwind.obj
 0001:000921e4       _lseeki64_nolock           00000001800931e4 f   LIBCMT:lseeki64.obj
 0001:0009227c       _lseeki64                  000000018009327c f   LIBCMT:lseeki64.obj
 0001:000923b4       _write_nolock              00000001800933b4 f   LIBCMT:write.obj
 0001:00092b14       _write                     0000000180093b14 f   LIBCMT:write.obj
 0001:00092c48       _getbuf                    0000000180093c48 f   LIBCMT:_getbuf.obj
 0001:00092c9c       _isatty                    0000000180093c9c f   LIBCMT:isatty.obj
 0001:00092d0c       __iob_func                 0000000180093d0c f   LIBCMT:_file.obj
 0001:00092d14       __initstdio                0000000180093d14 f   LIBCMT:_file.obj
 0001:00092df8       __endstdio                 0000000180093df8 f   LIBCMT:_file.obj
 0001:00092e20       _lock_file                 0000000180093e20 f   LIBCMT:_file.obj
 0001:00092e80       _lock_file2                0000000180093e80 f   LIBCMT:_file.obj
 0001:00092eb0       _unlock_file               0000000180093eb0 f   LIBCMT:_file.obj
 0001:00092f08       _unlock_file2              0000000180093f08 f   LIBCMT:_file.obj
 0001:00092f30       _fileno                    0000000180093f30 f   LIBCMT:fileno.obj
 0001:00092f68       _isleadbyte_l              0000000180093f68 f i LIBCMT:_wctype.obj
 0001:00092fb0       isleadbyte                 0000000180093fb0 f i LIBCMT:_wctype.obj
 0001:00092ff8       _get_printf_count_output   0000000180093ff8 f   LIBCMT:printf.obj
 0001:00093010       _wctomb_s_l                0000000180094010 f   LIBCMT:wctomb.obj
 0001:00093220       wctomb_s                   0000000180094220 f   LIBCMT:wctomb.obj
 0001:00093234       __crt_debugger_hook        0000000180094234 f   LIBCMT:dbghook.obj
 0001:0009377c       __crtLCMapStringA          000000018009477c f   LIBCMT:a_map.obj
 0001:00093a80       __crtGetStringTypeA        0000000180094a80 f   LIBCMT:a_str.obj
 0001:00093b0c       __free_lc_time             0000000180094b0c f   LIBCMT:inittime.obj
 0001:00093cf8       __free_lconv_num           0000000180094cf8 f   LIBCMT:initnum.obj
 0001:00093d40       __free_lconv_mon           0000000180094d40 f   LIBCMT:initmon.obj
 0001:00093df0       strcmp                     0000000180094df0 f   LIBCMT:strcmp.obj
 0001:00093eb0       memcmp                     0000000180094eb0 f   LIBCMT:memcmp.obj
 0001:00093f90       strncmp                    0000000180094f90 f   LIBCMT:strncmp.obj
 0001:00094048       _isctype_l                 0000000180095048 f   LIBCMT:isctype.obj
 0001:00094154       _ld12tod                   0000000180095154 f   LIBCMT:_intrncvt_.obj
 0001:00094758       _ld12tof                   0000000180095758 f   LIBCMT:_intrncvt_.obj
 0001:00094d5c       __strgtold12_l             0000000180095d5c f   LIBCMT:_strgtold_.obj
 0001:00095658       $I10_OUTPUT                0000000180096658 f   LIBCMT:_x10fout_.obj
 0001:000961c0       __report_gsfailure         00000001800971c0 f   LIBCMT:gs_report.obj
 0001:00096310       _set_fpsr                  0000000180097310 f   LIBCMT:_fpsr_.obj
 0001:0009631a       _fclrf                     000000018009731a f   LIBCMT:_fpsr_.obj
 0001:00096330       _free_osfhnd               0000000180097330 f   LIBCMT:osfinfo.obj
 0001:000963dc       _get_osfhandle             00000001800973dc f   LIBCMT:osfinfo.obj
 0001:00096460       __lock_fhandle             0000000180097460 f   LIBCMT:osfinfo.obj
 0001:00096508       _unlock_fhandle            0000000180097508 f   LIBCMT:osfinfo.obj
 0001:00096530       _putwch_nolock             0000000180097530 f   LIBCMT:putwch.obj
 0001:00096644       _mbtowc_l                  0000000180097644 f   LIBCMT:mbtowc.obj
 0001:000967b8       mbtowc                     00000001800977b8 f   LIBCMT:mbtowc.obj
 0001:000967c0       _fcloseall                 00000001800977c0 f   LIBCMT:closeall.obj
 0001:00096870       _flush                     0000000180097870 f   LIBCMT:fflush.obj
 0001:000968ec       _fflush_nolock             00000001800978ec f   LIBCMT:fflush.obj
 0001:00096a28       _flushall                  0000000180097a28 f   LIBCMT:fflush.obj
 0001:00096cb8       strtol                     0000000180097cb8 f   LIBCMT:strtol.obj
 0001:00096ce8       __ansicp                   0000000180097ce8 f   LIBCMT:convrtcp.obj
 0001:00096d3c       __convertcp                0000000180097d3c f   LIBCMT:convrtcp.obj
 0001:00096fc4       atol                       0000000180097fc4 f   LIBCMT:atox.obj
 0001:00096fd0       __mtold12                  0000000180097fd0 f   LIBCMT:_mantold_.obj
 0001:000971f0       __initconout               00000001800981f0 f   LIBCMT:initcon.obj
 0001:0009722c       __termcon                  000000018009822c f   LIBCMT:initcon.obj
 0001:00097268       _fclose_nolock             0000000180098268 f   LIBCMT:fclose.obj
 0001:000972f4       fclose                     00000001800982f4 f   LIBCMT:fclose.obj
 0001:0009736c       _commit                    000000018009836c f   LIBCMT:commit.obj
 0001:00097480       _close_nolock              0000000180098480 f   LIBCMT:close.obj
 0001:0009753c       _close                     000000018009853c f   LIBCMT:close.obj
 0001:00097654       _freebuf                   0000000180098654 f   LIBCMT:_freebuf.obj
 0001:0009768c       RtlUnwindEx                000000018009868c f   kernel32:KERNEL32.dll
 0001:00097692       RtlVirtualUnwind           0000000180098692 f   kernel32:KERNEL32.dll
 0001:00097698       RtlLookupFunctionEntry     0000000180098698 f   kernel32:KERNEL32.dll
 0001:000976a0       _frnd                      00000001800986a0 f   LIBCMT:_fpsr_.obj
 0001:000976d0       _alloca_probe              00000001800986d0     LIBCMT:chkstk.obj
 0001:000976d0       __chkstk                   00000001800986d0 f   LIBCMT:chkstk.obj
 0001:00097730       _get_fpsr                  0000000180098730 f   LIBCMT:_fpsr_.obj
 0002:00000000       __imp_Sleep                0000000180099000     kernel32:KERNEL32.dll
 0002:00000008       __imp_GetSystemInfo        0000000180099008     kernel32:KERNEL32.dll
 0002:00000010       __imp_CloseHandle          0000000180099010     kernel32:KERNEL32.dll
 0002:00000018       __imp_WaitForMultipleObjects 0000000180099018     kernel32:KERNEL32.dll
 0002:00000020       __imp_DeleteCriticalSection 0000000180099020     kernel32:KERNEL32.dll
 0002:00000028       __imp_SetEvent             0000000180099028     kernel32:KERNEL32.dll
 0002:00000030       __imp_LeaveCriticalSection 0000000180099030     kernel32:KERNEL32.dll
 0002:00000038       __imp_ReleaseSemaphore     0000000180099038     kernel32:KERNEL32.dll
 0002:00000040       __imp_EnterCriticalSection 0000000180099040     kernel32:KERNEL32.dll
 0002:00000048       __imp_WaitForSingleObject  0000000180099048     kernel32:KERNEL32.dll
 0002:00000050       __imp_InitializeCriticalSection 0000000180099050     kernel32:KERNEL32.dll
 0002:00000058       __imp_CreateEventA         0000000180099058     kernel32:KERNEL32.dll
 0002:00000060       __imp_CreateSemaphoreA     0000000180099060     kernel32:KERNEL32.dll
 0002:00000068       __imp_HeapAlloc            0000000180099068     kernel32:KERNEL32.dll
 0002:00000070       __imp_GetLastError         0000000180099070     kernel32:KERNEL32.dll
 0002:00000078       __imp_HeapFree             0000000180099078     kernel32:KERNEL32.dll
 0002:00000080       __imp_GetCurrentThreadId   0000000180099080     kernel32:KERNEL32.dll
 0002:00000088       __imp_FlsSetValue          0000000180099088     kernel32:KERNEL32.dll
 0002:00000090       __imp_GetCommandLineA      0000000180099090     kernel32:KERNEL32.dll
 0002:00000098       __imp_ExitThread           0000000180099098     kernel32:KERNEL32.dll
 0002:000000a0       __imp_CreateThread         00000001800990a0     kernel32:KERNEL32.dll
 0002:000000a8       __imp_GetModuleHandleW     00000001800990a8     kernel32:KERNEL32.dll
 0002:000000b0       __imp_GetProcAddress       00000001800990b0     kernel32:KERNEL32.dll
 0002:000000b8       __imp_ExitProcess          00000001800990b8     kernel32:KERNEL32.dll
 0002:000000c0       __imp_WriteFile            00000001800990c0     kernel32:KERNEL32.dll
 0002:000000c8       __imp_GetStdHandle         00000001800990c8     kernel32:KERNEL32.dll
 0002:000000d0       __imp_GetModuleFileNameA   00000001800990d0     kernel32:KERNEL32.dll
 0002:000000d8       __imp_HeapSetInformation   00000001800990d8     kernel32:KERNEL32.dll
 0002:000000e0       __imp_HeapCreate           00000001800990e0     kernel32:KERNEL32.dll
 0002:000000e8       __imp_HeapDestroy          00000001800990e8     kernel32:KERNEL32.dll
 0002:000000f0       __imp_EncodePointer        00000001800990f0     kernel32:KERNEL32.dll
 0002:000000f8       __imp_DecodePointer        00000001800990f8     kernel32:KERNEL32.dll
 0002:00000100       __imp_FlsGetValue          0000000180099100     kernel32:KERNEL32.dll
 0002:00000108       __imp_FlsFree              0000000180099108     kernel32:KERNEL32.dll
 0002:00000110       __imp_SetLastError         0000000180099110     kernel32:KERNEL32.dll
 0002:00000118       __imp_FlsAlloc             0000000180099118     kernel32:KERNEL32.dll
 0002:00000120       __imp_SetHandleCount       0000000180099120     kernel32:KERNEL32.dll
 0002:00000128       __imp_GetFileType          0000000180099128     kernel32:KERNEL32.dll
 0002:00000130       __imp_GetStartupInfoA      0000000180099130     kernel32:KERNEL32.dll
 0002:00000138       __imp_FreeEnvironmentStringsA 0000000180099138     kernel32:KERNEL32.dll
 0002:00000140       __imp_GetEnvironmentStrings 0000000180099140     kernel32:KERNEL32.dll
 0002:00000148       __imp_FreeEnvironmentStringsW 0000000180099148     kernel32:KERNEL32.dll
 0002:00000150       __imp_WideCharToMultiByte  0000000180099150     kernel32:KERNEL32.dll
 0002:00000158       __imp_GetEnvironmentStringsW 0000000180099158     kernel32:KERNEL32.dll
 0002:00000160       __imp_RtlUnwindEx          0000000180099160     kernel32:KERNEL32.dll
 0002:00000168       __imp_QueryPerformanceCounter 0000000180099168     kernel32:KERNEL32.dll
 0002:00000170       __imp_GetTickCount         0000000180099170     kernel32:KERNEL32.dll
 0002:00000178       __imp_GetCurrentProcessId  0000000180099178     kernel32:KERNEL32.dll
 0002:00000180       __imp_GetSystemTimeAsFileTime 0000000180099180     kernel32:KERNEL32.dll
 0002:00000188       __imp_TerminateProcess     0000000180099188     kernel32:KERNEL32.dll
 0002:00000190       __imp_GetCurrentProcess    0000000180099190     kernel32:KERNEL32.dll
 0002:00000198       __imp_UnhandledExceptionFilter 0000000180099198     kernel32:KERNEL32.dll
 0002:000001a0       __imp_SetUnhandledExceptionFilter 00000001800991a0     kernel32:KERNEL32.dll
 0002:000001a8       __imp_IsDebuggerPresent    00000001800991a8     kernel32:KERNEL32.dll
 0002:000001b0       __imp_RtlVirtualUnwind     00000001800991b0     kernel32:KERNEL32.dll
 0002:000001b8       __imp_RtlLookupFunctionEntry 00000001800991b8     kernel32:KERNEL32.dll
 0002:000001c0       __imp_RtlCaptureContext    00000001800991c0     kernel32:KERNEL32.dll
 0002:000001c8       __imp_HeapSize             00000001800991c8     kernel32:KERNEL32.dll
 0002:000001d0       __imp_GetCPInfo            00000001800991d0     kernel32:KERNEL32.dll
 0002:000001d8       __imp_GetACP               00000001800991d8     kernel32:KERNEL32.dll
 0002:000001e0       __imp_GetOEMCP             00000001800991e0     kernel32:KERNEL32.dll
 0002:000001e8       __imp_IsValidCodePage      00000001800991e8     kernel32:KERNEL32.dll
 0002:000001f0       __imp_RaiseException       00000001800991f0     kernel32:KERNEL32.dll
 0002:000001f8       __imp_LoadLibraryA         00000001800991f8     kernel32:KERNEL32.dll
 0002:00000200       __imp_InitializeCriticalSectionAndSpinCount 0000000180099200     kernel32:KERNEL32.dll
 0002:00000208       __imp_HeapReAlloc          0000000180099208     kernel32:KERNEL32.dll
 0002:00000210       __imp_SetFilePointer       0000000180099210     kernel32:KERNEL32.dll
 0002:00000218       __imp_GetConsoleCP         0000000180099218     kernel32:KERNEL32.dll
 0002:00000220       __imp_GetConsoleMode       0000000180099220     kernel32:KERNEL32.dll
 0002:00000228       __imp_GetLocaleInfoA       0000000180099228     kernel32:KERNEL32.dll
 0002:00000230       __imp_LCMapStringA         0000000180099230     kernel32:KERNEL32.dll
 0002:00000238       __imp_MultiByteToWideChar  0000000180099238     kernel32:KERNEL32.dll
 0002:00000240       __imp_LCMapStringW         0000000180099240     kernel32:KERNEL32.dll
 0002:00000248       __imp_GetStringTypeA       0000000180099248     kernel32:KERNEL32.dll
 0002:00000250       __imp_GetStringTypeW       0000000180099250     kernel32:KERNEL32.dll
 0002:00000258       __imp_SetStdHandle         0000000180099258     kernel32:KERNEL32.dll
 0002:00000260       __imp_WriteConsoleA        0000000180099260     kernel32:KERNEL32.dll
 0002:00000268       __imp_GetConsoleOutputCP   0000000180099268     kernel32:KERNEL32.dll
 0002:00000270       __imp_WriteConsoleW        0000000180099270     kernel32:KERNEL32.dll
 0002:00000278       __imp_CreateFileA          0000000180099278     kernel32:KERNEL32.dll
 0002:00000280       __imp_FlushFileBuffers     0000000180099280     kernel32:KERNEL32.dll
 0002:00000288       \177KERNEL32_NULL_THUNK_DATA 0000000180099288     kernel32:KERNEL32.dll
 0002:00000290       __xc_a                     0000000180099290     LIBCMT:crt0init.obj
 0002:000002a0       __xc_z                     00000001800992a0     LIBCMT:crt0init.obj
 0002:000002a8       __xi_a                     00000001800992a8     LIBCMT:crt0init.obj
 0002:000002c8       __xi_z                     00000001800992c8     LIBCMT:crt0init.obj
 0002:000002d0       __xp_a                     00000001800992d0     LIBCMT:crt0init.obj
 0002:000002e8       __xp_z                     00000001800992e8     LIBCMT:crt0init.obj
 0002:000002f0       __xt_a                     00000001800992f0     LIBCMT:crt0init.obj
 0002:000002f8       __xt_z                     00000001800992f8     LIBCMT:crt0init.obj
 0002:00000320       ??_C@_0IE@IMGBDMJL@Newton?5Game?5Dynamics?5is?5the?5prop@ 0000000180099320     Newton.obj
 0002:000003b0       __real@3ee4f8b580000000    00000001800993b0     Newton.obj
 0002:000003c0       __mask@@AbsDouble@         00000001800993c0     Newton.obj
 0002:000003d0       __mask@@NegDouble@         00000001800993d0     Newton.obj
 0002:000003e0       __real@3ff0000000000000    00000001800993e0     Newton.obj
 0002:000003e8       __real@3f947ae140000000    00000001800993e8     Newton.obj
 0002:000003f0       __real@0000000000000000    00000001800993f0     Newton.obj
 0002:000003f8       __real@3ddb7cdfe0000000    00000001800993f8     Newton.obj
 0002:00000400       __real@3f91111120000000    0000000180099400     Newton.obj
 0002:00000408       __real@3f50624de0000000    0000000180099408     Newton.obj
 0002:00000410       __real@408f3fffe7190014    0000000180099410     Newton.obj
 0002:00000418       __real@404dffffe5c00017    0000000180099418     Newton.obj
 0002:00000420       __real@3fc0000000000000    0000000180099420     Newton.obj
 0002:00000428       __real@4000000000000000    0000000180099428     Newton.obj
 0002:00000430       __real@3f847ae140000000    0000000180099430     Newton.obj
 0002:00000438       __real@3fe6666660000000    0000000180099438     Newton.obj
 0002:00000440       __real@3fe276c8c0000000    0000000180099440     Newton.obj
 0002:00000448       __real@431550f7d8000000    0000000180099448     Newton.obj
 0002:00000450       __real@4059000000000000    0000000180099450     Newton.obj
 0002:00000458       __real@42fc6bf520000000    0000000180099458     Newton.obj
 0002:00000460       __real@3e45798ee0000000    0000000180099460     Newton.obj
 0002:00000468       __real@3feff7cee0000000    0000000180099468     Newton.obj
 0002:00000470       __real@3f1a36e2e0000000    0000000180099470     Newton.obj
 0002:00000478       __real@bff0000000000000    0000000180099478     Newton.obj
 0002:00000480       __real@3eb0c6f7a0000000    0000000180099480     Newton.obj
 0002:00000488       __real@c059000000000000    0000000180099488     Newton.obj
 0002:00000490       __real@3fa99999a0000000    0000000180099490     NewtonAproximateConvexPartition.obj
 0002:000004a0       ??_7NewtonUserJoint@@6B@   00000001800994a0     NewtonClass.obj
 0002:00000500       __real@430c6bf520000000    0000000180099500     NewtonClass.obj
 0002:00000508       __real@bf50624de0000000    0000000180099508     NewtonClass.obj
 0002:00000510       __real@c30c6bf520000000    0000000180099510     NewtonClass.obj
 0002:00000518       __real@4058c00000000000    0000000180099518     NewtonClass.obj
 0002:00000520       ??_7NewtonMeshEffect@@6B@  0000000180099520     NewtonMeshEffect.obj
 0002:00000528       __real@3fe3333340000000    0000000180099528     NewtonMeshEffect.obj
 0002:00000530       __real@3fe0000000000000    0000000180099530     NewtonMeshEffect.obj
 0002:00000538       __real@3fc45f30c0000000    0000000180099538     NewtonMeshEffect.obj
 0002:00000540       __real@401921fb00000000    0000000180099540     NewtonMeshEffect.obj
 0002:00000548       __real@3ff921fb00000000    0000000180099548     NewtonMeshEffect.obj
 0002:00000550       __real@3fefff2e40000000    0000000180099550     NewtonMeshEffect.obj
 0002:00000558       __real@bfefff2e40000000    0000000180099558     NewtonMeshEffect.obj
 0002:00000560       __real@3fefae1480000000    0000000180099560     NewtonMeshEffect.obj
 0002:00000568       __real@c202a05f20000000    0000000180099568     NewtonMeshEffect.obj
 0002:00000570       __real@4202a05f20000000    0000000180099570     NewtonMeshEffect.obj
 0002:00000578       __real@3c9cd2b2a0000000    0000000180099578     NewtonMeshEffect.obj
 0002:00000580       __real@bee4f8b580000000    0000000180099580     NewtonMeshEffect.obj
 0002:00000588       ??_C@_0P@GHFPNOJB@bad?5allocation?$AA@ 0000000180099588     NewtonStdAfx.obj
 0002:000005b0       ??_7dgCollisionPoint@@6B@  00000001800995b0     physics_2009:dgWorld.obj
 0002:00000698       ??_C@_04IABPNMKE@simd?$AA@ 0000000180099698     physics_2009:dgWorld.obj
 0002:000006a0       ??_C@_03MKEPLMIM@x87?$AA@  00000001800996a0     physics_2009:dgWorld.obj
 0002:000006a8       ??_7dgWorkerThread@@6B@    00000001800996a8     physics_2009:dgWorld.obj
 0002:000006b8       ??_7dgSetTrreadRoundMode@dgWorld@@6B@ 00000001800996b8     physics_2009:dgWorld.obj
 0002:000006c8       ??_7dgSolverWorlkerThreads@@6B@ 00000001800996c8     physics_2009:dgWorld.obj
 0002:000006d8       ??_7dgParallelSolverClear@@6B@ 00000001800996d8     physics_2009:dgWorld.obj
 0002:000006e8       ??_7dgParallelSolverBodyInertia@@6B@ 00000001800996e8     physics_2009:dgWorld.obj
 0002:000006f8       ??_7dgParallelSolverUpdateVeloc@@6B@ 00000001800996f8     physics_2009:dgWorld.obj
 0002:00000708       ??_7dgParallelSolverUpdateForce@@6B@ 0000000180099708     physics_2009:dgWorld.obj
 0002:00000718       ??_7dgParallelSolverCalculateForces@@6B@ 0000000180099718     physics_2009:dgWorld.obj
 0002:00000728       ??_7dgParallelSolverInitInternalForces@@6B@ 0000000180099728     physics_2009:dgWorld.obj
 0002:00000738       ??_7dgParallelSolverBuildJacobianRows@@6B@ 0000000180099738     physics_2009:dgWorld.obj
 0002:00000748       ??_7dgParallelSolverJointAcceleration@@6B@ 0000000180099748     physics_2009:dgWorld.obj
 0002:00000758       ??_7dgParallelSolverInitFeedbackUpdate@@6B@ 0000000180099758     physics_2009:dgWorld.obj
 0002:00000768       ??_7dgParallelSolverBuildJacobianMatrix@@6B@ 0000000180099768     physics_2009:dgWorld.obj
 0002:00000778       __real@431c6bf520000000    0000000180099778     physics_2009:dgWorld.obj
 0002:00000780       __real@404e000000000000    0000000180099780     physics_2009:dgWorldDynamicUpdate.obj
 0002:00000788       __real@3fecccccc0000000    0000000180099788     physics_2009:dgWorldDynamicUpdate.obj
 0002:00000790       __real@3c670ef540000000    0000000180099790     physics_2009:dgWorldDynamicUpdate.obj
 0002:00000798       __real@bc9cd2b2a0000000    0000000180099798     physics_2009:dgWorldDynamicUpdate.obj
 0002:000007a0       __real@4010000000000000    00000001800997a0     physics_2009:dgWorldDynamicUpdate.obj
 0002:000007a8       __real@3fd0000000000000    00000001800997a8     physics_2009:dgWorldDynamicUpdate.obj
 0002:000007b0       __real@c010000000000000    00000001800997b0     physics_2009:dgWorldDynamicUpdate.obj
 0002:000007b8       __real@3f1a36e2d7731900    00000001800997b8     physics_2009:dgNarrowPhaseCollision.obj
 0002:000007c0       __real@3eb0c6f7bb730840    00000001800997c0     physics_2009:dgNarrowPhaseCollision.obj
 0002:000007c8       __real@3feffbe760000000    00000001800997c8     physics_2009:dgNarrowPhaseCollision.obj
 0002:000007d0       __real@4415af1d80000000    00000001800997d0     physics_2009:dgNarrowPhaseCollision.obj
 0002:000007e0       ??_7dgCollisionMesh@@6B@   00000001800997e0     physics_2009:dgCollisionMesh.obj
 0002:000008c0       __real@3fc6388660000000    00000001800998c0     physics_2009:dgCollisionMesh.obj
 0002:000008d0       ??_7dgCollisionConvexPolygon@dgCollisionMesh@@6B@ 00000001800998d0     physics_2009:dgCollisionMesh.obj
 0002:000009b8       __real@3af357c2a0000000    00000001800999b8     physics_2009:dgCollisionMesh.obj
 0002:000009c0       __real@3fb99999a0000000    00000001800999c0     physics_2009:dgCollisionMesh.obj
 0002:000009c8       __real@3f647ae151eb8520    00000001800999c8     physics_2009:dgCollisionMesh.obj
 0002:000009d0       __real@3feffe5ca0000000    00000001800999d0     physics_2009:dgCollisionMesh.obj
 0002:000009d8       __real@c000000000000000    00000001800999d8     physics_2009:dgCollisionMesh.obj
 0002:000009e0       __real@bfb99999a0000000    00000001800999e0     physics_2009:dgCollisionMesh.obj
 0002:000009e8       __real@3f80000000000000    00000001800999e8     physics_2009:dgCollisionMesh.obj
 0002:000009f0       __real@bf70000000000000    00000001800999f0     physics_2009:dgCollisionMesh.obj
 0002:00000a00       ??_7dgCollisionBVH@@6BdgCollisionMesh@@@ 0000000180099a00     physics_2009:dgCollisionBVH.obj
 0002:00000ae0       ??_7dgCollisionBVH@@6BdgAABBPolygonSoup@@@ 0000000180099ae0     physics_2009:dgCollisionBVH.obj
 0002:00000b28       __real@3ff00068e0000000    0000000180099b28     physics_2009:dgCollisionBVH.obj
 0002:00000b30       __real@3ff3333340000000    0000000180099b30     physics_2009:dgCollisionBVH.obj
 0002:00000b38       __real@c415af1d80000000    0000000180099b38     physics_2009:dgCollisionBVH.obj
 0002:00000b40       __real@4050000000000000    0000000180099b40     physics_2009:dgCollisionScene.obj
 0002:00000b50       ??_7dgCollisionScene@@6B@  0000000180099b50     physics_2009:dgCollisionScene.obj
 0002:00000c20       __real@408f400000000000    0000000180099c20     physics_2009:dgBody.obj
 0002:00000c28       __real@4024000000000000    0000000180099c28     physics_2009:dgBody.obj
 0002:00000c30       __real@3ff999999999999a    0000000180099c30     physics_2009:dgBody.obj
 0002:00000c38       __real@3f899999a0000000    0000000180099c38     physics_2009:dgBody.obj
 0002:00000c40       __real@3fe99999a0000000    0000000180099c40     physics_2009:dgBody.obj
 0002:00000c48       __real@409fa40000000000    0000000180099c48     physics_2009:dgBody.obj
 0002:00000c60       ??_7dgBallConstraint@@6B@  0000000180099c60     physics_2009:dgBallConstraint.obj
 0002:00000cc0       __real@4065e00000000000    0000000180099cc0     physics_2009:dgBallConstraint.obj
 0002:00000cc8       __real@4056800000000000    0000000180099cc8     physics_2009:dgBallConstraint.obj
 0002:00000cd0       __real@4014000000000000    0000000180099cd0     physics_2009:dgBallConstraint.obj
 0002:00000cd8       __real@3ff19999a0000000    0000000180099cd8     physics_2009:dgBallConstraint.obj
 0002:00000ce0       __real@4030000000000000    0000000180099ce0     physics_2009:dgBallConstraint.obj
 0002:00000ce8       __real@bff921fa00000000    0000000180099ce8     physics_2009:dgBallConstraint.obj
 0002:00000cf0       __real@3ff921fa00000000    0000000180099cf0     physics_2009:dgBallConstraint.obj
 0002:00000d00       ??_7dgHingeConstraint@@6B@ 0000000180099d00     physics_2009:dgHingeConstraint.obj
 0002:00000d60       __real@3ff028f5c0000000    0000000180099d60     physics_2009:dgHingeConstraint.obj
 0002:00000d70       ??_7dgSlidingConstraint@@6B@ 0000000180099d70     physics_2009:dgSlidingConstraint.obj
 0002:00000dd0       ??_7dgCorkscrewConstraint@@6B@ 0000000180099dd0     physics_2009:dgCorkscrewConstraint.obj
 0002:00000e30       ??_7dgUniversalConstraint@@6B@ 0000000180099e30     physics_2009:dgUniversalConstraint.obj
 0002:00000e90       ??_7dgUpVectorConstraint@@6B@ 0000000180099e90     physics_2009:dgUpVectorConstraint.obj
 0002:00000ef0       __real@3fefd70a40000000    0000000180099ef0     physics_2009:dgUpVectorConstraint.obj
 0002:00000f00       ??_7dgCollisionConvexHull@@6B@ 0000000180099f00     physics_2009:dgCollisionConvexHull.obj
 0002:00000ff0       __real@3fefff9720000000    0000000180099ff0     physics_2009:dgCollisionConvexHull.obj
 0002:00000ff8       __real@beb0c6f7a0000000    0000000180099ff8     physics_2009:dgCollisionConvexHull.obj
 0002:00001000       __real@3f40000000000000    000000018009a000     physics_2009:dgCollisionConvexHull.obj
 0002:00001008       __real@40a0000000000000    000000018009a008     physics_2009:dgCollisionConvexHull.obj
 0002:00001010       __real@4060000000000000    000000018009a010     physics_2009:dgCollisionConvexHull.obj
 0002:00001018       __real@3fef5c2900000000    000000018009a018     physics_2009:dgCollisionConvexHull.obj
 0002:00001020       ??_7dgBroadPhaseApplyExternalForce@@6B@ 000000018009a020     physics_2009:dgBroadPhaseCollision.obj
 0002:00001030       ??_7dgBroadPhaseCellPairsWorkerThread@@6B@ 000000018009a030     physics_2009:dgBroadPhaseCollision.obj
 0002:00001040       ??_7dgBroadPhaseMaterialCallbackWorkerThread@@6B@ 000000018009a040     physics_2009:dgBroadPhaseCollision.obj
 0002:00001050       ??_7dgBroadPhaseCalculateContactsWorkerThread@@6B@ 000000018009a050     physics_2009:dgBroadPhaseCollision.obj
 0002:00001060       __real@3f90000000000000    000000018009a060     physics_2009:dgBroadPhaseCollision.obj
 0002:00001070       ??_7dgUserConstraint@@6B@  000000018009a070     physics_2009:dgUserConstraint.obj
 0002:000010d0       ??_7dgConstraint@@6B@      000000018009a0d0     physics_2009:dgBilateralConstraint.obj
 0002:00001120       ??_7dgBilateralConstraint@@6B@ 000000018009a120     physics_2009:dgBilateralConstraint.obj
 0002:00001180       __real@4097700000000000    000000018009a180     physics_2009:dgBilateralConstraint.obj
 0002:00001188       __real@40c3880000000000    000000018009a188     physics_2009:dgBilateralConstraint.obj
 0002:00001190       __real@c0c3880000000000    000000018009a190     physics_2009:dgBilateralConstraint.obj
 0002:00001198       __real@4079000000000000    000000018009a198     physics_2009:dgBilateralConstraint.obj
 0002:000011a0       __real@4077700000000000    000000018009a1a0     physics_2009:dgBilateralConstraint.obj
 0002:000011b0       ??_7dgCollisionSphere@@6B@ 000000018009a1b0     physics_2009:dgCollisionSphere.obj
 0002:00001298       __real@3fd999999999999a    000000018009a298     physics_2009:dgCollisionSphere.obj
 0002:000012a0       __real@4010c15200000000    000000018009a2a0     physics_2009:dgCollisionSphere.obj
 0002:000012b0       ??_7dgConvexCollision@@6B@ 000000018009a2b0     physics_2009:dgConvexCollision.obj
 0002:00001398       __real@4090000000000000    000000018009a398     physics_2009:dgConvexCollision.obj
 0002:000013a0       __real@4070000000000000    000000018009a3a0     physics_2009:dgConvexCollision.obj
 0002:000013a8       __real@3eb0c6f78dd616ff    000000018009a3a8     physics_2009:dgConvexCollision.obj
 0002:000013b0       __real@bf1a36e2e0000000    000000018009a3b0     physics_2009:dgConvexCollision.obj
 0002:000013b8       __real@3bc79ca100000000    000000018009a3b8     physics_2009:dgConvexCollision.obj
 0002:000013c0       __real@3d71979980000000    000000018009a3c0     physics_2009:dgConvexCollision.obj
 0002:000013c8       __real@3ee2dfd69a4df480    000000018009a3c8     physics_2009:dgConvexCollision.obj
 0002:000013d0       __real@baf357c2a0000000    000000018009a3d0     physics_2009:dgConvexCollision.obj
 0002:000013e0       ??_7dgCollisionNull@@6B@   000000018009a3e0     physics_2009:dgCollisionNull.obj
 0002:000014c8       __real@3fd3333340000000    000000018009a4c8     physics_2009:dgContact.obj
 0002:000014d0       __real@4049000000000000    000000018009a4d0     physics_2009:dgContact.obj
 0002:000014e0       ??_7dgContact@@6B@         000000018009a4e0     physics_2009:dgContact.obj
 0002:00001530       ??_7dgCollisionConvexModifier@@6B@ 000000018009a530     physics_2009:dgCollisionConvexModifier.obj
 0002:00001618       __real@c197d78400000000    000000018009a618     physics_2009:dgCollisionConvexModifier.obj
 0002:00001620       ??_7dgCompoundCollision@@6B@ 000000018009a620     physics_2009:dgCompoundCollision.obj
 0002:000016e8       __real@bbc79ca100000000    000000018009a6e8     physics_2009:dgCompoundCollision.obj
 0002:000016f0       ??_7dgCollisionUserMesh@@6B@ 000000018009a6f0     physics_2009:dgCollisionUserMesh.obj
 0002:000017d0       ??_7dgCollisionHeightField@@6B@ 000000018009a7d0     physics_2009:dgCollisionHeightField.obj
 0002:000018b0       __real@c26d1a94a0000000    000000018009a8b0     physics_2009:dgCollisionHeightField.obj
 0002:000018b8       __real@3fe279a6c0000000    000000018009a8b8     physics_2009:dgMinkowskiConv.obj
 0002:000018c0       __real@bfe279a6c0000000    000000018009a8c0     physics_2009:dgMinkowskiConv.obj
 0002:000018c8       __real@3fefef9dc0000000    000000018009a8c8     physics_2009:dgMinkowskiConv.obj
 0002:000018d0       __real@3fa1de6660000000    000000018009a8d0     physics_2009:dgMinkowskiConv.obj
 0002:000018d8       __real@3feffb00c0000000    000000018009a8d8     physics_2009:dgMinkowskiConv.obj
 0002:000018e0       __real@3fe6a09e60000000    000000018009a8e0     physics_2009:dgMinkowskiConv.obj
 0002:000018e8       __real@3fa1de58c0000000    000000018009a8e8     physics_2009:dgMinkowskiConv.obj
 0002:000018f0       __real@3feffb0280000000    000000018009a8f0     physics_2009:dgMinkowskiConv.obj
 0002:000018f8       __real@3f40624de0000000    000000018009a8f8     physics_2009:dgMinkowskiConv.obj
 0002:00001900       __real@3e112e0be0000000    000000018009a900     physics_2009:dgMinkowskiConv.obj
 0002:00001908       __real@3f1a36e3068db8c0    000000018009a908     physics_2009:dgMinkowskiConv.obj
 0002:00001910       __real@3f60000000000000    000000018009a910     physics_2009:dgMinkowskiConv.obj
 0002:00001918       __real@3f70000000000000    000000018009a918     physics_2009:dgMinkowskiConv.obj
 0002:00001920       __real@3fb0000000000000    000000018009a920     physics_2009:dgMinkowskiConv.obj
 0002:00001930       ??_7dgCollisionBox@@6B@    000000018009a930     physics_2009:dgCollisionBox.obj
 0002:00001a20       __real@4020000000000000    000000018009aa20     physics_2009:dgCollisionBox.obj
 0002:00001a28       __real@3fd5555555555555    000000018009aa28     physics_2009:dgCollisionBox.obj
 0002:00001a30       ??_7dgCollision@@6B@       000000018009aa30     physics_2009:dgCollision.obj
 0002:00001b00       ??_7dgCollisionEllipse@@6B@ 000000018009ab00     physics_2009:dgCollisionEllipse.obj
 0002:00001bf0       ??_7dgCollisionCapsule@@6B@ 000000018009abf0     physics_2009:dgCollisionCapsule.obj
 0002:00001cd8       __real@3fc5555555555555    000000018009acd8     physics_2009:dgCollisionCapsule.obj
 0002:00001ce0       __real@4010dca355555555    000000018009ace0     physics_2009:dgCollisionCapsule.obj
 0002:00001ce8       __real@40194af500000000    000000018009ace8     physics_2009:dgCollisionCapsule.obj
 0002:00001cf0       __real@bfe0000000000000    000000018009acf0     physics_2009:dgCollisionCapsule.obj
 0002:00001d00       ??_7dgCollisionCone@@6B@   000000018009ad00     physics_2009:dgCollisionCone.obj
 0002:00001de8       __real@3fa5555555555555    000000018009ade8     physics_2009:dgCollisionCone.obj
 0002:00001df0       __real@3fd3333333333333    000000018009adf0     physics_2009:dgCollisionCone.obj
 0002:00001df8       __real@3fc3333333333333    000000018009adf8     physics_2009:dgCollisionCone.obj
 0002:00001e00       __real@4000dca355555555    000000018009ae00     physics_2009:dgCollisionCone.obj
 0002:00001e10       ??_7dgCollisionCylinder@@6B@ 000000018009ae10     physics_2009:dgCollisionCylinder.obj
 0002:00001f00       ??_7dgCollisionChamferCylinder@@6B@ 000000018009af00     physics_2009:dgCollisionChamferCylinder.obj
 0002:00001fe8       __real@3fe921fa00000000    000000018009afe8     physics_2009:dgCollisionChamferCylinder.obj
 0002:00001ff0       __real@3fd0c15155555555    000000018009aff0     physics_2009:dgCollisionChamferCylinder.obj
 0002:00001ff8       __real@3c32725de0000000    000000018009aff8     physics_2009:dgCollisionChamferCylinder.obj
 0002:00002000       __real@8000000000000000    000000018009b000     physics_2009:dgCollisionChamferCylinder.obj
 0002:00002018       __real@bfefff9720000000    000000018009b018     corelib_2009:dgMatrix.obj
 0002:00002020       __real@3feffffde0000000    000000018009b020     corelib_2009:dgMatrix.obj
 0002:00002028       __real@bfeffffde0000000    000000018009b028     corelib_2009:dgMatrix.obj
 0002:00002038       __real@3fe69fbe80000000    000000018009b038     corelib_2009:dgPolyhedra.obj
 0002:00002040       __real@bfecccccc0000000    000000018009b040     corelib_2009:dgPolyhedra.obj
 0002:00002048       ??_7dgPolyhedra@@6B@       000000018009b048     corelib_2009:dgPolyhedra.obj
 0002:00002050       __real@3f1a36e2eb1c432d    000000018009b050     corelib_2009:dgTypes.obj
 0002:00002060       ??_7dgPolygonSoupDatabase@@6B@ 000000018009b060     corelib_2009:dgAABBPolygonSoup.obj
 0002:000020a0       ??_7dgAABBPolygonSoup@@6B@ 000000018009b0a0     corelib_2009:dgAABBPolygonSoup.obj
 0002:000020e8       ??_7dgPolySoupFilterAllocator@@6B@ 000000018009b0e8     corelib_2009:dgPolygonSoupBuilder.obj
 0002:000020f0       __real@3fb5555560000000    000000018009b0f0     corelib_2009:dgPolygonSoupBuilder.obj
 0002:000020f8       __real@bf91eb8520000000    000000018009b0f8     corelib_2009:dgIntersections.obj
 0002:00002100       __real@bf847ae140000000    000000018009b100     corelib_2009:dgIntersections.obj
 0002:00002110       _FPinit                    000000018009b110     LIBCMT:_fpinit_.obj
 0002:00002118       _FPmtinit                  000000018009b118     LIBCMT:_fpinit_.obj
 0002:00002120       _FPmtterm                  000000018009b120     LIBCMT:_fpinit_.obj
 0002:00002128       ??_C@_04GFPJNGEK@ceil?$AA@ 000000018009b128     LIBCMT:_ceil_.obj
 0002:00002130       ??_C@_04EIAKFFMI@sqrt?$AA@ 000000018009b130     LIBCMT:_sqrt_.obj
 0002:00002208       __real@3f2a01a019e83e5c    000000018009b208     LIBCMT:_sincos_.obj
 0002:00002210       __real@3e5ae600b42fdfa7    000000018009b210     LIBCMT:_sincos_.obj
 0002:00002218       __real@3f56c16c16c16967    000000018009b218     LIBCMT:_sincos_.obj
 0002:00002220       __real@3e927e4fa17f65f6    000000018009b220     LIBCMT:_sincos_.obj
 0002:00002228       __real@3da907db46cc5e42    000000018009b228     LIBCMT:_sincos_.obj
 0002:00002230       __real@411e848000000000    000000018009b230     LIBCMT:_sincos_.obj
 0002:00002238       ??_C@_03BLEJJJBH@sin?$AA@  000000018009b238     LIBCMT:_sincos_.obj
 0002:0000223c       ??_C@_03LALBNOCG@cos?$AA@  000000018009b23c     LIBCMT:_sincos_.obj
 0002:00003158       __real@3fd5555555555538    000000018009c158     LIBCMT:_atan2_.obj
 0002:00003160       __real@3fc99999999643a3    000000018009c160     LIBCMT:_atan2_.obj
 0002:00003168       __real@3fc2492482bd6be1    000000018009c168     LIBCMT:_atan2_.obj
 0002:00003170       __real@3fb70c3192d751c2    000000018009c170     LIBCMT:_atan2_.obj
 0002:00003178       __real@3fbc718839b8c4eb    000000018009c178     LIBCMT:_atan2_.obj
 0002:00003180       __real@3e45798ee2308c3a    000000018009c180     LIBCMT:_atan2_.obj
 0002:00003188       __real@3fc99992b9802d7d    000000018009c188     LIBCMT:_atan2_.obj
 0002:00003190       __real@3fd5555555550877    000000018009c190     LIBCMT:_atan2_.obj
 0002:00003198       ??_C@_05KNGEOGJB@atan2?$AA@ 000000018009c198     LIBCMT:_atan2_.obj
 0002:000031a0       _pRawDllMain               000000018009c1a0     LIBCMT:dllcrt0.obj
 0002:000031a0       _pDefaultRawDllMain        000000018009c1a0     LIBCMT:dllcrt0.obj
 0002:000031c8       __real@3fcd1e4180029834    000000018009c1c8     LIBCMT:_acos_.obj
 0002:000031d0       __real@3ff5d6b12001f228    000000018009c1d0     LIBCMT:_acos_.obj
 0002:000031d8       __real@3fdc7b297e269eac    000000018009c1d8     LIBCMT:_acos_.obj
 0002:000031e0       __real@400a4646f903cdea    000000018009c1e0     LIBCMT:_acos_.obj
 0002:000031e8       __real@3fd1a2bec1b7ef59    000000018009c1e8     LIBCMT:_acos_.obj
 0002:000031f0       __real@40062021571dccfc    000000018009c1f0     LIBCMT:_acos_.obj
 0002:000031f8       __real@3fac28d390c29690    000000018009c1f8     LIBCMT:_acos_.obj
 0002:00003200       __real@3fee324ab418f78d    000000018009c200     LIBCMT:_acos_.obj
 0002:00003208       __real@3f51e5f887a62135    000000018009c208     LIBCMT:_acos_.obj
 0002:00003210       __real@3fbb1a422982ce76    000000018009c210     LIBCMT:_acos_.obj
 0002:00003218       __real@3f0951665d321061    000000018009c218     LIBCMT:_acos_.obj
 0002:00003220       ??_C@_04PDIFKINK@acos?$AA@ 000000018009c220     LIBCMT:_acos_.obj
 0002:00003240       __real@bff921fb54442d18    000000018009c240     LIBCMT:_asin_.obj
 0002:00003248       ??_C@_04FIHNOPOL@asin?$AA@ 000000018009c248     LIBCMT:_asin_.obj
 0002:000036c0       ??_C@_03MGHMBJCF@log?$AA@  000000018009c6c0     LIBCMT:_log_.obj
 0002:00003f50       ??_C@_05KLBDPFGC@e?$CL000?$AA@ 000000018009cf50     LIBCMT:cvt.obj
 0002:00003f78       ??_C@_0P@MIGLKIOC@CorExitProcess?$AA@ 000000018009cf78     LIBCMT:crt0dat.obj
 0002:00003f88       ??_C@_1BI@BGOHAHKC@?$AAm?$AAs?$AAc?$AAo?$AAr?$AAe?$AAe?$AA?4?$AAd?$AAl?$AAl?$AA?$AA@ 000000018009cf88     LIBCMT:crt0dat.obj
 0002:00003fa0       ??_C@_0P@GGKDKEEG@runtime?5error?5?$AA@ 000000018009cfa0     LIBCMT:crt0msg.obj
 0002:00003fb0       ??_C@_02PCIJFNDE@?$AN?6?$AA@ 000000018009cfb0     LIBCMT:crt0msg.obj
 0002:00003fb8       ??_C@_0O@MJNIPGOH@TLOSS?5error?$AN?6?$AA@ 000000018009cfb8     LIBCMT:crt0msg.obj
 0002:00003fc8       ??_C@_0N@BONNPDHF@SING?5error?$AN?6?$AA@ 000000018009cfc8     LIBCMT:crt0msg.obj
 0002:00003fd8       ??_C@_0P@MBDAJNE@DOMAIN?5error?$AN?6?$AA@ 000000018009cfd8     LIBCMT:crt0msg.obj
 0002:00003ff0       ??_C@_0JL@DFDOOABL@R6034?$AN?6An?5application?5has?5made?5a@ 000000018009cff0     LIBCMT:crt0msg.obj
 0002:00004090       ??_C@_0PH@EPAFIJ@R6033?$AN?6?9?5Attempt?5to?5use?5MSIL?5cod@ 000000018009d090     LIBCMT:crt0msg.obj
 0002:00004188       ??_C@_0DD@BKEEABMM@R6032?$AN?6?9?5not?5enough?5space?5for?5lo@ 000000018009d188     LIBCMT:crt0msg.obj
 0002:000041c0       ??_C@_0GD@OFKILIED@R6031?$AN?6?9?5Attempt?5to?5initialize?5t@ 000000018009d1c0     LIBCMT:crt0msg.obj
 0002:00004228       ??_C@_0BP@LPMHJOKI@R6030?$AN?6?9?5CRT?5not?5initialized?$AN?6?$AA@ 000000018009d228     LIBCMT:crt0msg.obj
 0002:00004248       ??_C@_0CF@KJDAIALP@R6028?$AN?6?9?5unable?5to?5initialize?5he@ 000000018009d248     LIBCMT:crt0msg.obj
 0002:00004270       ??_C@_0DF@GAKBPDFP@R6027?$AN?6?9?5not?5enough?5space?5for?5lo@ 000000018009d270     LIBCMT:crt0msg.obj
 0002:000042a8       ??_C@_0DF@IBLNNAIG@R6026?$AN?6?9?5not?5enough?5space?5for?5st@ 000000018009d2a8     LIBCMT:crt0msg.obj
 0002:000042e0       ??_C@_0CG@IOHKGFNJ@R6025?$AN?6?9?5pure?5virtual?5function?5c@ 000000018009d2e0     LIBCMT:crt0msg.obj
 0002:00004308       ??_C@_0DF@JIJJFJDC@R6024?$AN?6?9?5not?5enough?5space?5for?5_o@ 000000018009d308     LIBCMT:crt0msg.obj
 0002:00004340       ??_C@_0CJ@EGEJHFME@R6019?$AN?6?9?5unable?5to?5open?5console?5@ 000000018009d340     LIBCMT:crt0msg.obj
 0002:00004370       ??_C@_0CB@GNHNIELH@R6018?$AN?6?9?5unexpected?5heap?5error?$AN?6@ 000000018009d370     LIBCMT:crt0msg.obj
 0002:00004398       ??_C@_0CN@FOLDKNG@R6017?$AN?6?9?5unexpected?5multithread?5@ 000000018009d398     LIBCMT:crt0msg.obj
 0002:000043c8       ??_C@_0CM@FAHFJNHO@R6016?$AN?6?9?5not?5enough?5space?5for?5th@ 000000018009d3c8     LIBCMT:crt0msg.obj
 0002:00004400       ??_C@_0JG@LBKMGKLD@?$AN?6This?5application?5has?5requested@ 000000018009d400     LIBCMT:crt0msg.obj
 0002:00004498       ??_C@_0CM@FLCNIPKK@R6009?$AN?6?9?5not?5enough?5space?5for?5en@ 000000018009d498     LIBCMT:crt0msg.obj
 0002:000044c8       ??_C@_0CK@KMMJOAPP@R6008?$AN?6?9?5not?5enough?5space?5for?5ar@ 000000018009d4c8     LIBCMT:crt0msg.obj
 0002:000044f8       ??_C@_0CN@LEKKICBM@R6002?$AN?6?9?5floating?5point?5support?5@ 000000018009d4f8     LIBCMT:crt0msg.obj
 0002:00004528       ??_C@_0CF@GOGNBNAK@Microsoft?5Visual?5C?$CL?$CL?5Runtime?5Lib@ 000000018009d528     LIBCMT:crt0msg.obj
 0002:00004550       ??_C@_02PHMGELLB@?6?6?$AA@ 000000018009d550     LIBCMT:crt0msg.obj
 0002:00004554       ??_C@_03KHICJKCI@?4?4?4?$AA@ 000000018009d554     LIBCMT:crt0msg.obj
 0002:00004558       ??_C@_0BH@DNAGHKFM@?$DMprogram?5name?5unknown?$DO?$AA@ 000000018009d558     LIBCMT:crt0msg.obj
 0002:00004570       ??_C@_0BK@OFGJDLJJ@Runtime?5Error?$CB?6?6Program?3?5?$AA@ 000000018009d570     LIBCMT:crt0msg.obj
 0002:00004590       _XcptActTab                000000018009d590     LIBCMT:winxfltr.obj
 0002:00004630       ??_C@_1O@CEDCILHN@?$AA?$CI?$AAn?$AAu?$AAl?$AAl?$AA?$CJ?$AA?$AA@ 000000018009d630     LIBCMT:output.obj
 0002:00004640       ??_C@_06OJHGLDPL@?$CInull?$CJ?$AA@ 000000018009d640     LIBCMT:output.obj
 0002:00004650       __lookuptable              000000018009d650     LIBCMT:output.obj
 0002:000046ac       ??_C@_03JGHBODFD@pow?$AA@  000000018009d6ac     LIBCMT:_pow_error_.obj
 0002:00004730       ??_C@_0L@KDOEJCKC@_nextafter?$AA@ 000000018009d730     LIBCMT:_fpexcept_.obj
 0002:0000473c       ??_C@_05JGDBENOH@_logb?$AA@ 000000018009d73c     LIBCMT:_fpexcept_.obj
 0002:00004744       ??_C@_03ONILCKOB@_yn?$AA@  000000018009d744     LIBCMT:_fpexcept_.obj
 0002:00004748       ??_C@_03NAKIGLHK@_y1?$AA@  000000018009d748     LIBCMT:_fpexcept_.obj
 0002:0000474c       ??_C@_03MJLDFKDL@_y0?$AA@  000000018009d74c     LIBCMT:_fpexcept_.obj
 0002:00004750       ??_C@_05GKKHEGJL@frexp?$AA@ 000000018009d750     LIBCMT:_fpexcept_.obj
 0002:00004758       ??_C@_04KEPJIHGP@fmod?$AA@ 000000018009d758     LIBCMT:_fpexcept_.obj
 0002:00004760       ??_C@_06MEIMCGCF@_hypot?$AA@ 000000018009d760     LIBCMT:_fpexcept_.obj
 0002:00004768       ??_C@_05KBKMEMPO@_cabs?$AA@ 000000018009d768     LIBCMT:_fpexcept_.obj
 0002:00004770       ??_C@_05CEJMAHNP@ldexp?$AA@ 000000018009d770     LIBCMT:_fpexcept_.obj
 0002:00004778       ??_C@_04EHEDPDJG@modf?$AA@ 000000018009d778     LIBCMT:_fpexcept_.obj
 0002:00004780       ??_C@_04ODHECPBC@fabs?$AA@ 000000018009d780     LIBCMT:_fpexcept_.obj
 0002:00004788       ??_C@_05PBJFFIGL@floor?$AA@ 000000018009d788     LIBCMT:_fpexcept_.obj
 0002:00004790       ??_C@_03IIINPABG@tan?$AA@  000000018009d790     LIBCMT:_fpexcept_.obj
 0002:00004794       ??_C@_04MLLJIGOK@atan?$AA@ 000000018009d794     LIBCMT:_fpexcept_.obj
 0002:0000479c       ??_C@_04FJHINJAO@tanh?$AA@ 000000018009d79c     LIBCMT:_fpexcept_.obj
 0002:000047a4       ??_C@_04HPJJNFIM@cosh?$AA@ 000000018009d7a4     LIBCMT:_fpexcept_.obj
 0002:000047ac       ??_C@_04COOMCNPB@sinh?$AA@ 000000018009d7ac     LIBCMT:_fpexcept_.obj
 0002:000047b4       ??_C@_05HGHHAHAP@log10?$AA@ 000000018009d7b4     LIBCMT:_fpexcept_.obj
 0002:000047bc       ??_C@_03KHJOGHMM@exp?$AA@  000000018009d7bc     LIBCMT:_fpexcept_.obj
 0002:000047c0       ??_C@_0BI@DFKBFLJE@GetProcessWindowStation?$AA@ 000000018009d7c0     LIBCMT:crtmbox.obj
 0002:000047d8       ??_C@_0BK@CIDNPOGP@GetUserObjectInformationA?$AA@ 000000018009d7d8     LIBCMT:crtmbox.obj
 0002:000047f8       ??_C@_0BD@HHGDFDBJ@GetLastActivePopup?$AA@ 000000018009d7f8     LIBCMT:crtmbox.obj
 0002:00004810       ??_C@_0BA@HNOPNCHB@GetActiveWindow?$AA@ 000000018009d810     LIBCMT:crtmbox.obj
 0002:00004820       ??_C@_0M@CHKKJDAI@MessageBoxA?$AA@ 000000018009d820     LIBCMT:crtmbox.obj
 0002:00004830       ??_C@_0L@NDEGIDAG@USER32?4DLL?$AA@ 000000018009d830     LIBCMT:crtmbox.obj
 0002:00004840       __lookuptable_s            000000018009d840     LIBCMT:outputs.obj
 0002:0000489c       ??_C@_13NOLLCAOD@?$AA?$AA?$AA?$AA@ 000000018009d89c     LIBCMT:a_map.obj
 0002:000048a0       __newctype                 000000018009d8a0     LIBCMT:ctype.obj
 0002:00004ba0       _wctype                    000000018009dba0     LIBCMT:ctype.obj
 0002:00004db0       __newclmap                 000000018009ddb0     LIBCMT:ctype.obj
 0002:00004f30       __newcumap                 000000018009df30     LIBCMT:ctype.obj
 0002:000050b0       ??_C@_08JCCMCCIL@HH?3mm?3ss?$AA@ 000000018009e0b0     LIBCMT:strftime.obj
 0002:000050c0       ??_C@_0BE@CKGJFCPC@dddd?0?5MMMM?5dd?0?5yyyy?$AA@ 000000018009e0c0     LIBCMT:strftime.obj
 0002:000050d8       ??_C@_08BPBNCDIB@MM?1dd?1yy?$AA@ 000000018009e0d8     LIBCMT:strftime.obj
 0002:000050e4       ??_C@_02CJNFDJBF@PM?$AA@   000000018009e0e4     LIBCMT:strftime.obj
 0002:000050e8       ??_C@_02DEDBPAFC@AM?$AA@   000000018009e0e8     LIBCMT:strftime.obj
 0002:000050f0       ??_C@_08EDHMEBNP@December?$AA@ 000000018009e0f0     LIBCMT:strftime.obj
 0002:00005100       ??_C@_08HCHEGEOA@November?$AA@ 000000018009e100     LIBCMT:strftime.obj
 0002:00005110       ??_C@_07JJNFCEND@October?$AA@ 000000018009e110     LIBCMT:strftime.obj
 0002:00005118       ??_C@_09BHHEALKD@September?$AA@ 000000018009e118     LIBCMT:strftime.obj
 0002:00005124       ??_C@_06LBBHFDDG@August?$AA@ 000000018009e124     LIBCMT:strftime.obj
 0002:0000512c       ??_C@_04MIEPOIFP@July?$AA@ 000000018009e12c     LIBCMT:strftime.obj
 0002:00005134       ??_C@_04CNLMGBGM@June?$AA@ 000000018009e134     LIBCMT:strftime.obj
 0002:0000513c       ??_C@_05DMJDNLEJ@April?$AA@ 000000018009e13c     LIBCMT:strftime.obj
 0002:00005144       ??_C@_05HPCKOFNC@March?$AA@ 000000018009e144     LIBCMT:strftime.obj
 0002:00005150       ??_C@_08GNJGEPFN@February?$AA@ 000000018009e150     LIBCMT:strftime.obj
 0002:00005160       ??_C@_07CGJPFGJA@January?$AA@ 000000018009e160     LIBCMT:strftime.obj
 0002:00005168       ??_C@_03MKABNOCG@Dec?$AA@  000000018009e168     LIBCMT:strftime.obj
 0002:0000516c       ??_C@_03JPJOFNIA@Nov?$AA@  000000018009e16c     LIBCMT:strftime.obj
 0002:00005170       ??_C@_03BMAOKBAD@Oct?$AA@  000000018009e170     LIBCMT:strftime.obj
 0002:00005174       ??_C@_03GGCAPAJC@Sep?$AA@  000000018009e174     LIBCMT:strftime.obj
 0002:00005178       ??_C@_03IFJFEIGA@Aug?$AA@  000000018009e178     LIBCMT:strftime.obj
 0002:0000517c       ??_C@_03LBGABGKK@Jul?$AA@  000000018009e17c     LIBCMT:strftime.obj
 0002:00005180       ??_C@_03IDFGHECI@Jun?$AA@  000000018009e180     LIBCMT:strftime.obj
 0002:00005184       ??_C@_03CNMDKL@May?$AA@    000000018009e184     LIBCMT:strftime.obj
 0002:00005188       ??_C@_03LEOLGMJP@Apr?$AA@  000000018009e188     LIBCMT:strftime.obj
 0002:0000518c       ??_C@_03ODNJBKGA@Mar?$AA@  000000018009e18c     LIBCMT:strftime.obj
 0002:00005190       ??_C@_03HJBDCHOM@Feb?$AA@  000000018009e190     LIBCMT:strftime.obj
 0002:00005194       ??_C@_03JIHJHPIE@Jan?$AA@  000000018009e194     LIBCMT:strftime.obj
 0002:00005198       ??_C@_08INBOOONO@Saturday?$AA@ 000000018009e198     LIBCMT:strftime.obj
 0002:000051a4       ??_C@_06JECMNKMI@Friday?$AA@ 000000018009e1a4     LIBCMT:strftime.obj
 0002:000051b0       ??_C@_08HACCIKIA@Thursday?$AA@ 000000018009e1b0     LIBCMT:strftime.obj
 0002:000051c0       ??_C@_09DLIGFAKA@Wednesday?$AA@ 000000018009e1c0     LIBCMT:strftime.obj
 0002:000051d0       ??_C@_07BAAGCFCM@Tuesday?$AA@ 000000018009e1d0     LIBCMT:strftime.obj
 0002:000051d8       ??_C@_06JLEDEDGH@Monday?$AA@ 000000018009e1d8     LIBCMT:strftime.obj
 0002:000051e0       ??_C@_06OOPIFAJ@Sunday?$AA@ 000000018009e1e0     LIBCMT:strftime.obj
 0002:000051e8       ??_C@_03FEFJNEK@Sat?$AA@   000000018009e1e8     LIBCMT:strftime.obj
 0002:000051ec       ??_C@_03IDIOELNC@Fri?$AA@  000000018009e1ec     LIBCMT:strftime.obj
 0002:000051f0       ??_C@_03IOFIKPDN@Thu?$AA@  000000018009e1f0     LIBCMT:strftime.obj
 0002:000051f4       ??_C@_03MHOMLAJA@Wed?$AA@  000000018009e1f4     LIBCMT:strftime.obj
 0002:000051f8       ??_C@_03NAGEINEP@Tue?$AA@  000000018009e1f8     LIBCMT:strftime.obj
 0002:000051fc       ??_C@_03PDAGKDH@Mon?$AA@   000000018009e1fc     LIBCMT:strftime.obj
 0002:00005200       ??_C@_03KOEHGMDN@Sun?$AA@  000000018009e200     LIBCMT:strftime.obj
 0002:00005204       ??_C@_06IMKFLFPG@1?$CDQNAN?$AA@ 000000018009e204     LIBCMT:_x10fout_.obj
 0002:0000520c       ??_C@_05DNEBIAHO@1?$CDINF?$AA@ 000000018009e20c     LIBCMT:_x10fout_.obj
 0002:00005214       ??_C@_05PHHOCPM@1?$CDIND?$AA@ 000000018009e214     LIBCMT:_x10fout_.obj
 0002:0000521c       ??_C@_06PGGFOGJG@1?$CDSNAN?$AA@ 000000018009e21c     LIBCMT:_x10fout_.obj
 0002:00005250       __dnames                   000000018009e250     LIBCMT:timeset.obj
 0002:00005268       __mnames                   000000018009e268     LIBCMT:timeset.obj
 0002:00005290       ??_C@_07GPDNMNG@CONOUT$?$AA@ 000000018009e290     LIBCMT:initcon.obj
 0002:000052f8       __rtc_iaa                  000000018009e2f8     LIBCMT:_initsect_.obj
 0002:00005300       __rtc_izz                  000000018009e300     LIBCMT:_initsect_.obj
 0002:00005308       __rtc_taa                  000000018009e308     LIBCMT:_initsect_.obj
 0002:00005310       __rtc_tzz                  000000018009e310     LIBCMT:_initsect_.obj
 0002:0000c148       __IMPORT_DESCRIPTOR_KERNEL32 00000001800a5148     kernel32:KERNEL32.dll
 0002:0000c15c       __NULL_IMPORT_DESCRIPTOR   00000001800a515c     kernel32:KERNEL32.dll
 0003:00000040       ?m_rayCastSimplex@dgConvexCollision@@1PAY03HA 00000001800a9040     physics_2009:dgConvexCollision.obj
 0003:00000080       ?m_hullDirs@dgConvexCollision@@1PAVdgTriplex@@A 00000001800a9080     physics_2009:dgConvexCollision.obj
 0003:000001d0       ?mult@dgConvexMassData@@2PANA 00000001800a91d0     physics_2009:dgConvexCollision.obj
 0003:00000230       ?m_negOne@dgConvexCollision@@1VdgVector@@A 00000001800a9230     physics_2009:dgConvexCollision.obj
 0003:00000250       ?m_nrh0p5@dgConvexCollision@@1VdgVector@@A 00000001800a9250     physics_2009:dgConvexCollision.obj
 0003:00000270       ?m_nrh3p0@dgConvexCollision@@1VdgVector@@A 00000001800a9270     physics_2009:dgConvexCollision.obj
 0003:00000290       ?m_indexStep@dgConvexCollision@@1VdgVector@@A 00000001800a9290     physics_2009:dgConvexCollision.obj
 0003:000002b0       ?m_index_0123@dgConvexCollision@@1VdgVector@@A 00000001800a92b0     physics_2009:dgConvexCollision.obj
 0003:000002d0       ?m_index_4567@dgConvexCollision@@1VdgVector@@A 00000001800a92d0     physics_2009:dgConvexCollision.obj
 0003:000002f0       ?m_huge@dgConvexCollision@@1VdgVector@@A 00000001800a92f0     physics_2009:dgConvexCollision.obj
 0003:00000310       ?m_negativeTiny@dgConvexCollision@@1VdgVector@@A 00000001800a9310     physics_2009:dgConvexCollision.obj
 0003:00000330       ?m_aabb_padd@dgConvexCollision@@1VdgVector@@A 00000001800a9330     physics_2009:dgConvexCollision.obj
 0003:00000350       ?m_faceIndex@dgContactSolver@@2PAY03HA 00000001800a9350     physics_2009:dgMinkowskiConv.obj
 0003:00000390       ?m_edgeArray@dgCollisionBox@@1PAVdgConvexSimplexEdge@@A 00000001800a9390     physics_2009:dgCollisionBox.obj
 0003:000006b0       ?g_allocaror@dgInternalMemory@@3VdgMemoryAllocator@@A 00000001800a96b0     corelib_2009:dgMemory.obj
 0003:00000cdc       _fltused                   00000001800a9cdc     LIBCMT:_fpinit_.obj
 0003:00000ce0       _ldused                    00000001800a9ce0     LIBCMT:_fpinit_.obj
 0003:00000d30       _cfltcvt_tab               00000001800a9d30     LIBCMT:cmiscdat.obj
 0003:00001170       _aexit_rtn                 00000001800aa170     LIBCMT:crt0dat.obj
 0003:000012f0       _amblksiz                  00000001800aa2f0     LIBCMT:heapinit.obj
 0003:00001470       __flsindex                 00000001800aa470     LIBCMT:tidtable.obj
 0003:00001480       __badioinfo                00000001800aa480     LIBCMT:ioinit.obj
 0003:000014d8       _First_FPE_Indx            00000001800aa4d8     LIBCMT:winxfltr.obj
 0003:000014dc       _Num_FPE                   00000001800aa4dc     LIBCMT:winxfltr.obj
 0003:000014e0       _XcptActTabSize            00000001800aa4e0     LIBCMT:winxfltr.obj
 0003:000014e4       _XcptActTabCount           00000001800aa4e4     LIBCMT:winxfltr.obj
 0003:000014e8       __nullstring               00000001800aa4e8     LIBCMT:output.obj
 0003:000014f0       __wnullstring              00000001800aa4f0     LIBCMT:output.obj
 0003:000014f8       __abort_behavior           00000001800aa4f8     LIBCMT:abort.obj
 0003:00001500       __initialmbcinfo           00000001800aa500     LIBCMT:mbctype.obj
 0003:00001720       _mbctype                   00000001800aa720     LIBCMT:mbctype.obj
 0003:00001830       _mbcasemap                 00000001800aa830     LIBCMT:mbctype.obj
 0003:00001930       __ptmbcinfo                00000001800aa930     LIBCMT:mbctype.obj
 0003:00001a38       __globallocalestatus       00000001800aaa38     LIBCMT:glstatus.obj
 0003:00001a40       __clocalestr               00000001800aaa40     LIBCMT:nlsdata2.obj
 0003:00001a50       __initiallocinfo           00000001800aaa50     LIBCMT:nlsdata2.obj
 0003:00001bb0       __ptlocinfo                00000001800aabb0     LIBCMT:nlsdata2.obj
 0003:00001bb8       __lc_clike                 00000001800aabb8     LIBCMT:nlsdata2.obj
 0003:00001bc0       __initiallocalestructinfo  00000001800aabc0     LIBCMT:nlsdata2.obj
 0003:00001bd0       __security_cookie          00000001800aabd0     LIBCMT:gs_cookie.obj
 0003:00001bd8       __security_cookie_complement 00000001800aabd8     LIBCMT:gs_cookie.obj
 0003:00001db0       _matherr_flag              00000001800aadb0     LIBCMT:_matherr_.obj
 0003:00001db5       ?dazSupported@?1??_control87@@9@9 00000001800aadb5     LIBCMT:_ieee_.obj
 0003:00002000       _iob                       00000001800ab000     LIBCMT:_file.obj
 0003:000023c0       _pctype                    00000001800ab3c0     LIBCMT:ctype.obj
 0003:000023c8       _pwctype                   00000001800ab3c8     LIBCMT:ctype.obj
 0003:000023d0       __lc_time_c                00000001800ab3d0     LIBCMT:strftime.obj
 0003:00002538       __lc_time_curr             00000001800ab538     LIBCMT:strftime.obj
 0003:00002540       __lconv_static_decimal     00000001800ab540     LIBCMT:lconv.obj
 0003:00002550       __lconv_c                  00000001800ab550     LIBCMT:lconv.obj
 0003:000025a8       __lconv                    00000001800ab5a8     LIBCMT:lconv.obj
 0003:000025b0       __mb_cur_max               00000001800ab5b0     LIBCMT:nlsdata1.obj
 0003:000025b4       __decimal_point            00000001800ab5b4     LIBCMT:nlsdata1.obj
 0003:000025b8       __decimal_point_length     00000001800ab5b8     LIBCMT:nlsdata1.obj
 0003:000025f0       _d_inf                     00000001800ab5f0     LIBCMT:_util_.obj
 0003:000025f8       _d_ind                     00000001800ab5f8     LIBCMT:_util_.obj
 0003:00002600       _d_max                     00000001800ab600     LIBCMT:_util_.obj
 0003:00002608       _d_min                     00000001800ab608     LIBCMT:_util_.obj
 0003:00002610       _d_mzero                   00000001800ab610     LIBCMT:_util_.obj
 0003:00002630       _timezone                  00000001800ab630     LIBCMT:timeset.obj
 0003:00002634       _daylight                  00000001800ab634     LIBCMT:timeset.obj
 0003:00002638       _dstbias                   00000001800ab638     LIBCMT:timeset.obj
 0003:000026c0       _tzname                    00000001800ab6c0     LIBCMT:timeset.obj
 0003:000026f0       _pow10pos                  00000001800ab6f0     LIBCMT:_constpow_.obj
 0003:00002850       _pow10neg                  00000001800ab850     LIBCMT:_constpow_.obj
 0003:000029b0       _coninpfh                  00000001800ab9b0     LIBCMT:initcon.obj
 0003:000029b8       _confh                     00000001800ab9b8     LIBCMT:initcon.obj
 0003:000029c0       _lpdays                    00000001800ab9c0     LIBCMT:days.obj
 0003:000029f8       _days                      00000001800ab9f8     LIBCMT:days.obj
 0003:00002a50       ?m_edgeArray@dgCollisionSphere@@1PAVdgConvexSimplexEdge@@A 00000001800aba50     physics_2009:dgCollisionSphere.obj
 0003:00003650       ?m_shapeRefCount@dgCollisionSphere@@1HA 00000001800ac650     physics_2009:dgCollisionSphere.obj
 0003:00003660       ?m_unitSphere@dgCollisionSphere@@1PAVdgVector@@A 00000001800ac660     physics_2009:dgCollisionSphere.obj
 0003:000038a0       ?m_iniliazised@dgConvexCollision@@1HA 00000001800ac8a0     physics_2009:dgConvexCollision.obj
 0003:000038b0       ?m_zero@dgConvexCollision@@1VdgVector@@A 00000001800ac8b0     physics_2009:dgConvexCollision.obj
 0003:000038d0       ?m_signMask@dgConvexCollision@@1VdgVector@@A 00000001800ac8d0     physics_2009:dgConvexCollision.obj
 0003:000038f0       ?m_triplexMask@dgConvexCollision@@1VdgVector@@A 00000001800ac8f0     physics_2009:dgConvexCollision.obj
 0003:00003910       ?m_multiResDir@dgConvexCollision@@1PAVdgVector@@A 00000001800ac910     physics_2009:dgConvexCollision.obj
 0003:00003a10       ?m_multiResDir_sse@dgConvexCollision@@1PAVdgVector@@A 00000001800aca10     physics_2009:dgConvexCollision.obj
 0003:00003ad0       ?m_vertex@dgCollisionHeightField@@0PAPEAVdgVector@@A 00000001800acad0     physics_2009:dgCollisionHeightField.obj
 0003:00003b10       ?m_vertexCount@dgCollisionHeightField@@0PAHA 00000001800acb10     physics_2009:dgCollisionHeightField.obj
 0003:00003b30       ?m_refCount@dgCollisionHeightField@@0HA 00000001800acb30     physics_2009:dgCollisionHeightField.obj
 0003:00003b40       ?m_dir@dgContactSolver@@2PAVdgVector@@A 00000001800acb40     physics_2009:dgMinkowskiConv.obj
 0003:00003d00       ?m_edgeArray@dgCollisionCapsule@@0PAVdgConvexSimplexEdge@@A 00000001800acd00     physics_2009:dgCollisionCapsule.obj
 0003:00005380       ?m_shapeRefCount@dgCollisionCapsule@@0HA 00000001800ae380     physics_2009:dgCollisionCapsule.obj
 0003:00005390       ?m_edgeArray@dgCollisionCone@@0PAVdgConvexSimplexEdge@@A 00000001800ae390     physics_2009:dgCollisionCone.obj
 0003:00005790       ?m_shapeRefCount@dgCollisionCone@@0HA 00000001800ae790     physics_2009:dgCollisionCone.obj
 0003:000057a0       ?m_edgeArray@dgCollisionCylinder@@0PAVdgConvexSimplexEdge@@A 00000001800ae7a0     physics_2009:dgCollisionCylinder.obj
 0003:00005da0       ?m_shapeRefCount@dgCollisionCylinder@@0HA 00000001800aeda0     physics_2009:dgCollisionCylinder.obj
 0003:00005db0       ?m_edgeArray@dgCollisionChamferCylinder@@0PAVdgConvexSimplexEdge@@A 00000001800aedb0     physics_2009:dgCollisionChamferCylinder.obj
 0003:00006fb0       ?m_shapeRefCount@dgCollisionChamferCylinder@@0HA 00000001800affb0     physics_2009:dgCollisionChamferCylinder.obj
 0003:00006fc0       ?m_shapesDirs@dgCollisionChamferCylinder@@0PAVdgVector@@A 00000001800affc0     physics_2009:dgCollisionChamferCylinder.obj
 0003:00007144       __fastflag                 00000001800b0144     LIBCMT:_fpinit_.obj
 0003:0000714c       __error_mode               00000001800b014c     LIBCMT:dllcrt0.obj
 0003:00007150       _aenvptr                   00000001800b0150     LIBCMT:dllcrt0.obj
 0003:00007158       _wenvptr                   00000001800b0158     LIBCMT:dllcrt0.obj
 0003:00007160       __app_type                 00000001800b0160     LIBCMT:dllcrt0.obj
 0003:00007168       _umaskval                  00000001800b0168     LIBCMT:crt0dat.obj
 0003:0000716c       __argc                     00000001800b016c     LIBCMT:crt0dat.obj
 0003:00007170       __argv                     00000001800b0170     LIBCMT:crt0dat.obj
 0003:00007178       __wargv                    00000001800b0178     LIBCMT:crt0dat.obj
 0003:00007180       _environ                   00000001800b0180     LIBCMT:crt0dat.obj
 0003:00007188       __initenv                  00000001800b0188     LIBCMT:crt0dat.obj
 0003:00007190       _wenviron                  00000001800b0190     LIBCMT:crt0dat.obj
 0003:00007198       __winitenv                 00000001800b0198     LIBCMT:crt0dat.obj
 0003:000071a0       _pgmptr                    00000001800b01a0     LIBCMT:crt0dat.obj
 0003:000071a8       _wpgmptr                   00000001800b01a8     LIBCMT:crt0dat.obj
 0003:000071b0       _exitflag                  00000001800b01b0     LIBCMT:crt0dat.obj
 0003:000071b4       _C_Termination_Done        00000001800b01b4     LIBCMT:crt0dat.obj
 0003:000071b8       _C_Exit_Done               00000001800b01b8     LIBCMT:crt0dat.obj
 0003:000074d8       _crtheap                   00000001800b04d8     LIBCMT:heapinit.obj
 0003:000074e0       ?_pnhHeap@@3P6AH_K@ZEA     00000001800b04e0     LIBCMT:handler.obj
 0003:000074e8       _newmode                   00000001800b04e8     LIBCMT:_newmode.obj
 0003:000074ec       _maxwait                   00000001800b04ec     LIBCMT:crtheap.obj
 0003:00007600       __pInvalidArgHandler       00000001800b0600     LIBCMT:invarg.obj
 0003:00007610       __pPurecall                00000001800b0610     LIBCMT:inithelp.obj
 0003:00007620       __mbulinfo                 00000001800b0620     LIBCMT:mbctype.obj
 0003:0000762c       __mbcodepage               00000001800b062c     LIBCMT:mbctype.obj
 0003:00007630       __ismbcodepage             00000001800b0630     LIBCMT:mbctype.obj
 0003:00007634       __mblcid                   00000001800b0634     LIBCMT:mbctype.obj
 0003:00007638       __locale_changed           00000001800b0638     LIBCMT:setlocal.obj
 0003:00007640       __lc_handle                00000001800b0640     LIBCMT:nlsdata2.obj
 0003:00007658       __lc_codepage              00000001800b0658     LIBCMT:nlsdata2.obj
 0003:0000765c       __lc_collate_cp            00000001800b065c     LIBCMT:nlsdata2.obj
 0003:00007660       _outputformat              00000001800b0660     LIBCMT:outputformat.obj
 0003:000078a0       ?__pInconsistency@@3P6AXXZEA 00000001800b08a0     LIBCMT:hooks.obj
 0003:00007908       _cflush                    00000001800b0908     LIBCMT:_file.obj
 0003:00007920       __lconv_static_null        00000001800b0920     LIBCMT:lconv.obj
 0003:00007ea0       _stdbuf                    00000001800b0ea0     LIBCMT:_sftbuf.obj
 0003:00007f6c       _debugger_hook_dummy       00000001800b0f6c     <common>
 0003:00007f70       __piob                     00000001800b0f70     <common>
 0003:00007f80       _bufin                     00000001800b0f80     <common>
 0003:00008f80       _nstream                   00000001800b1f80     <common>
 0003:00008f88       _pDestructExceptionObject  00000001800b1f88     <common>
 0003:00008f90       _nhandle                   00000001800b1f90     <common>
 0003:00008fa0       __pioinfo                  00000001800b1fa0     <common>
 0003:000091a0       __env_initialized          00000001800b21a0     <common>
 0003:000091a8       __onexitend                00000001800b21a8     <common>
 0003:000091b0       __onexitbegin              00000001800b21b0     <common>
 0003:000091b8       __mbctype_initialized      00000001800b21b8     <common>
 0003:000091c0       __dyn_tls_init_callback    00000001800b21c0     <common>
 0003:000091c8       _acmdln                    00000001800b21c8     <common>

 entry point at        0001:0008a1c4

 Static symbols

 0001:0000b8e0       ?CompareIslands@@YAHQEBVdgIsland@@0PEAX@Z 000000018000c8e0 f   physics_2009:dgWorldDynamicUpdate.obj
 0001:0001dec0       ?CompareContact@@YAHQEBVdgContactPoint@@0PEAX@Z 000000018001eec0 f   physics_2009:dgNarrowPhaseCollision.obj
 0001:00076e80       ?NormalizeVertex@InternalPolyhedra@@YAXHQEAVdgTriplex@@QEBNH@Z 0000000180077e80 f   corelib_2009:dgPolyhedra.obj
 0001:00077060       ?EdgePlane@InternalPolyhedra@@YA?AVdgBigPlane@@HHHQEBVdgTriplex@@@Z 0000000180078060 f   corelib_2009:dgPolyhedra.obj
 0001:00077250       ?UnboundedLoopPlane@InternalPolyhedra@@YA?AVdgBigPlane@@HHHQEBVdgTriplex@@@Z 0000000180078250 f   corelib_2009:dgPolyhedra.obj
 0001:00077480       ?BigFaceNormal@InternalPolyhedra@@YA?AVdgBigVector@@PEAVdgEdge@@QEBNH@Z 0000000180078480 f   corelib_2009:dgPolyhedra.obj
 0001:000776b0       ?CalculateVertexMetrics@InternalPolyhedra@@YAXQEAUVERTEX_METRIC_STRUCT@1@QEBVdgTriplex@@PEAVdgEdge@@@Z 00000001800786b0 f   corelib_2009:dgPolyhedra.obj
 0001:000779b0       ?IsEssensialPointDiagonal@InternalPolyhedra@@YA_NPEAVdgEdge@@AEBVdgBigVector@@QEBNH@Z 00000001800789b0 f   corelib_2009:dgPolyhedra.obj
 0001:00077e60       ?CalculateAllMetrics@InternalPolyhedra@@YAXPEBVdgPolyhedra@@QEAUVERTEX_METRIC_STRUCT@1@QEBVdgTriplex@@@Z 0000000180078e60 f   corelib_2009:dgPolyhedra.obj
 0001:000782e0       ?EdgePenalty@InternalPolyhedra@@YANAEBVdgPolyhedra@@QEBVdgTriplex@@PEAVdgEdge@@@Z 00000001800792e0 f   corelib_2009:dgPolyhedra.obj
 0001:00078c80       ?MatchTwins@InternalPolyhedra@@YA_NPEAVdgPolyhedra@@@Z 0000000180079c80 f   corelib_2009:dgPolyhedra.obj
 0001:00078d40       ?FindEarTip@InternalPolyhedra@@YAPEAVdgEdge@@AEBVdgPolyhedra@@PEAV2@QEBNHAEAV?$dgDownHeap@PEAVdgEdge@@N@@AEBVdgVector@@@Z 0000000180079d40 f   corelib_2009:dgPolyhedra.obj
 0001:00079c30       ?CloseOpenBounds@InternalPolyhedra@@YAXPEAVdgPolyhedra@@@Z 000000018007ac30 f   corelib_2009:dgPolyhedra.obj
 0001:0007ba50       ?MarkAdjacentCoplanarFaces@InternalPolyhedra@@YAXAEAVdgPolyhedra@@0PEAVdgEdge@@QEBNH@Z 000000018007ca50 f   corelib_2009:dgPolyhedra.obj
 0001:0007bf50       ?ConvexPartition@InternalPolyhedra@@YA_NAEAVdgPolyhedra@@QEBNH@Z 000000018007cf50 f   corelib_2009:dgPolyhedra.obj
 0001:0007cef0       ?TriangulateFace@InternalPolyhedra@@YAPEAVdgEdge@@AEAVdgPolyhedra@@PEAV2@QEBNHAEAV?$dgDownHeap@PEAVdgEdge@@N@@PEAVdgVector@@@Z 000000018007def0 f   corelib_2009:dgPolyhedra.obj
 0001:0007dbf0       ?SortVertices@InternalGeoUtil@@YAHQEANHHHHN@Z 000000018007ebf0 f   corelib_2009:dgTypes.obj
 0001:0007e610       ?QuickSortVertices@InternalGeoUtil@@YAHQEANHHHHN@Z 000000018007f610 f   corelib_2009:dgTypes.obj
 0001:00088df4       sin_piby4                  0000000180089df4 f   LIBCMT:_sincos_.obj
 0001:00088e98       cos_piby4                  0000000180089e98 f   LIBCMT:_sincos_.obj
 0001:0008a0ac       __DllMainCRTStartup        000000018008b0ac f   LIBCMT:dllcrt0.obj
 0001:0008b350       _callthreadstartex         000000018008c350 f   LIBCMT:threadex.obj
 0001:0008b37c       _threadstartex             000000018008c37c f   LIBCMT:threadex.obj
 0001:0008b760       _cftoe2_l                  000000018008c760 f   LIBCMT:cvt.obj
 0001:0008bef0       _cftof2_l                  000000018008cef0 f   LIBCMT:cvt.obj
 0001:0008c3d4       _call_matherr              000000018008d3d4 f   LIBCMT:_libm_error_.obj
 0001:0008c43c       _exception_enabled         000000018008d43c f   LIBCMT:_libm_error_.obj
 0001:0008cc5c       _initterm                  000000018008dc5c f   LIBCMT:crt0dat.obj
 0001:0008cd7c       doexit                     000000018008dd7c f   LIBCMT:crt0dat.obj
 0001:0008dd2c       parse_cmdline              000000018008ed2c f   LIBCMT:stdargv.obj
 0001:0008e7f0       write_char                 000000018008f7f0 f   LIBCMT:output.obj
 0001:0008e838       write_multi_char           000000018008f838 f   LIBCMT:output.obj
 0001:0008e88c       write_string               000000018008f88c f   LIBCMT:output.obj
 0001:0008fabc       ?setSBCS@@YAXPEAUthreadmbcinfostruct@@@Z 0000000180090abc f   LIBCMT:mbctype.obj
 0001:0008fb50       ?setSBUpLow@@YAXPEAUthreadmbcinfostruct@@@Z 0000000180090b50 f   LIBCMT:mbctype.obj
 0001:0008fdf0       ?getSystemCP@@YAHH@Z       0000000180090df0 f   LIBCMT:mbctype.obj
 0001:000905d4       _updatetlocinfoEx_nolock   00000001800915d4 f   LIBCMT:setlocal.obj
 0001:000920dc       ?x_ismbbtype_l@@YAHPEAUlocaleinfo_struct@@IHH@Z 00000001800930dc f   LIBCMT:ismbbyte.obj
 0001:0009323c       ?__crtLCMapStringA_stat@@YAHPEAUlocaleinfo_struct@@KKPEBDHPEADHHH@Z 000000018009423c f   LIBCMT:a_map.obj
 0001:00093814       ?__crtGetStringTypeA_stat@@YAHPEAUlocaleinfo_struct@@KPEBDHPEAGHHH@Z 0000000180094814 f   LIBCMT:a_str.obj
 0001:00096934       flsall                     0000000180097934 f   LIBCMT:fflush.obj
 0001:00096a34       ?strtoxl@@YAKPEAUlocaleinfo_struct@@PEBDPEAPEBDHH@Z 0000000180097a34 f   LIBCMT:strtol.obj
 0001:00097740       __DllMainCRTStartup$filt$0 0000000180098740 f   LIBCMT:dllcrt0.obj
 0001:0009775c       _onexit$fin$0              000000018009875c f   LIBCMT:onexit.obj
 0001:00097770       _callthreadstartex$filt$0  0000000180098770 f   LIBCMT:threadex.obj
 0001:0009778c       doexit$fin$0               000000018009878c f   LIBCMT:crt0dat.obj
 0001:000977ae       _freefls$fin$1             00000001800987ae f   LIBCMT:tidtable.obj
 0001:000977ae       _initptd$fin$1             00000001800987ae f   LIBCMT:tidtable.obj
 0001:000977ce       _initptd$fin$0             00000001800987ce f   LIBCMT:tidtable.obj
 0001:000977ce       _freefls$fin$0             00000001800987ce f   LIBCMT:tidtable.obj
 0001:000977f0       _IsNonwritableInCurrentImage$filt$0 00000001800987f0 f   LIBCMT:pesect.obj
 0001:00097811       __updatetmbcinfo$fin$0     0000000180098811 f   LIBCMT:mbctype.obj
 0001:00097811       _setmbcp$fin$0             0000000180098811 f   LIBCMT:mbctype.obj
 0001:0009782a       __updatetlocinfo$fin$0     000000018009882a f   LIBCMT:setlocal.obj
 0001:00097843       _control87$filt$0          0000000180098843 f   LIBCMT:_ieee_.obj
 0001:00097843       _ctrlfp$filt$0             0000000180098843 f   LIBCMT:_ieee_.obj
 0001:0009786e       _mtinitlocknum$fin$0       000000018009886e f   LIBCMT:mlock.obj
 0001:0009788a       raise$fin$0                000000018009888a f   LIBCMT:winsig.obj
 0001:000978a6       __crtInitCritSecAndSpinCount$filt$0 00000001800988a6 f   LIBCMT:initcrit.obj
 0001:000978c7       _write$fin$0               00000001800988c7 f   LIBCMT:lseeki64.obj
 0001:000978c7       _lseeki64$fin$0            00000001800988c7 f   LIBCMT:lseeki64.obj
 0001:000978de       __lock_fhandle$fin$0       00000001800988de f   LIBCMT:osfinfo.obj
 0001:000978f7       _fcloseall$fin$0           00000001800988f7 f   LIBCMT:closeall.obj
 0001:00097910       flsall$fin$0               0000000180098910 f   LIBCMT:fflush.obj
 0001:00097940       flsall$fin$1               0000000180098940 f   LIBCMT:fflush.obj
 0001:00097959       fclose$fin$0               0000000180098959 f   LIBCMT:fclose.obj
 0001:00097971       _close$fin$0               0000000180098971 f   LIBCMT:commit.obj
 0001:00097971       _commit$fin$0              0000000180098971 f   LIBCMT:commit.obj
 0001:00097990       ??__Eg_allocaror@dgInternalMemory@@YAXXZ 0000000180098990 f   corelib_2009:dgMemory.obj
 0001:000979a0       ??__Fg_allocaror@dgInternalMemory@@YAXXZ 00000001800989a0 f   corelib_2009:dgMemory.obj
