 newton

 Timestamp is 4a902635 (Sat Aug 22 10:09:09 2009)

 Preferred load address is 10000000

 Start         Length     Name                   Class
 0001:00000000 00073094H .text                   CODE
 0001:000730a0 0000000cH .text$yc                CODE
 0001:000730b0 00000001H .text$yd                CODE
 0002:00000000 00000148H .idata$5                DATA
 0002:00000148 00000004H .CRT$XCA                DATA
 0002:0000014c 00000004H .CRT$XCU                DATA
 0002:00000150 00000004H .CRT$XCZ                DATA
 0002:00000154 00000004H .CRT$XIA                DATA
 0002:00000158 00000014H .CRT$XIC                DATA
 0002:0000016c 00000004H .CRT$XIZ                DATA
 0002:00000170 00000004H .CRT$XPA                DATA
 0002:00000174 00000004H .CRT$XPX                DATA
 0002:00000178 00000004H .CRT$XPXA               DATA
 0002:0000017c 00000004H .CRT$XPZ                DATA
 0002:00000180 00000004H .CRT$XTA                DATA
 0002:00000184 00000004H .CRT$XTZ                DATA
 0002:00000190 000060a0H .rdata                  DATA
 0002:00006230 00000060H .rdata$debug            DATA
 0002:00006290 0000000cH .rdata$sxdata           DATA
 0002:0000629c 00000004H .rtc$IAA                DATA
 0002:000062a0 00000004H .rtc$IZZ                DATA
 0002:000062a4 00000004H .rtc$TAA                DATA
 0002:000062a8 00000004H .rtc$TZZ                DATA
 0002:000062b0 000003d4H .xdata$x                DATA
 0002:00006684 00000014H .idata$2                DATA
 0002:00006698 00000014H .idata$3                DATA
 0002:000066ac 00000148H .idata$4                DATA
 0002:000067f4 000005e0H .idata$6                DATA
 0002:00006de0 000027aaH .edata                  DATA
 0003:00000000 00001f80H .data                   DATA
 0003:00001f80 00004384H .bss                    DATA

  Address         Publics by Value              Rva+Base       Lib:Object

 0000:00000000       __except_list              00000000     <absolute>
 0000:00000003       ___safe_se_handler_count   00000003     <absolute>
 0000:00000000       ___ImageBase               10000000     <linker-defined>
 0001:00000000       _DllMain@12                10001000 f   Newton.obj
 0001:00000010       _NewtonGetMemoryUsed       10001010 f   Newton.obj
 0001:00000020       _NewtonInvalidateCache     10001020 f   Newton.obj
 0001:00000030       _NewtonSetPlatformArchitecture 10001030 f   Newton.obj
 0001:00000040       _NewtonGetPlatformArchitecture 10001040 f   Newton.obj
 0001:00000050       _NewtonSetThreadsCount     10001050 f   Newton.obj
 0001:00000060       _NewtonGetThreadsCount     10001060 f   Newton.obj
 0001:00000070       _NewtonSetMultiThreadSolverOnSingleIsland 10001070 f   Newton.obj
 0001:00000080       _NewtonGetMultiThreadSolverOnSingleIsland 10001080 f   Newton.obj
 0001:00000090       _NewtonSetSolverModel      10001090 f   Newton.obj
 0001:000000a0       _NewtonSetFrictionModel    100010a0 f   Newton.obj
 0001:000000b0       _NewtonSetPerformanceClock 100010b0 f   Newton.obj
 0001:000000c0       _NewtonReadPerformanceTicks 100010c0 f   Newton.obj
 0001:000000d0       _NewtonCollisionUpdate     100010d0 f   Newton.obj
 0001:00000100       _NewtonSetIslandUpdateEvent 10001100 f   Newton.obj
 0001:00000110       _NewtonSetCollisionDestructor 10001110 f   Newton.obj
 0001:00000120       _NewtonSetBodyLeaveWorldEvent 10001120 f   Newton.obj
 0001:00000130       _NewtonWorldGetVersion     10001130 f   Newton.obj
 0001:00000140       _NewtonWorldSetUserData    10001140 f   Newton.obj
 0001:00000150       _NewtonWorldGetUserData    10001150 f   Newton.obj
 0001:00000160       _NewtonWorldSetDestructorCallBack 10001160 f   Newton.obj
 0001:00000170       _NewtonWorldGetDestructorCallBack 10001170 f   Newton.obj
 0001:00000180       _NewtonWorldGetBodyCount   10001180 f   Newton.obj
 0001:00000190       _NewtonWorldGetConstraintCount 10001190 f   Newton.obj
 0001:000001a0       _NewtonIslandGetBody       100011a0 f   Newton.obj
 0001:000001c0       _NewtonMaterialGetDefaultGroupID 100011c0 f   Newton.obj
 0001:000001d0       _NewtonMaterialCreateGroupID 100011d0 f   Newton.obj
 0001:000001e0       _NewtonMaterialDestroyAllGroupID 100011e0 f   Newton.obj
 0001:000001f0       _NewtonMaterialSetDefaultCollidable 100011f0 f   Newton.obj
 0001:00000220       _NewtonMaterialSetContinuousCollisionMode 10001220 f   Newton.obj
 0001:00000250       _NewtonWorldGetFirstMaterial 10001250 f   Newton.obj
 0001:00000260       _NewtonWorldGetNextMaterial 10001260 f   Newton.obj
 0001:00000270       _NewtonMaterialGetContactFaceAttribute 10001270 f   Newton.obj
 0001:00000280       _NewtonMaterialGetContactPositionAndNormal 10001280 f   Newton.obj
 0001:000002b0       _NewtonMaterialGetContactTangentDirections 100012b0 f   Newton.obj
 0001:000002f0       _NewtonMaterialSetContactFrictionState 100012f0 f   Newton.obj
 0001:00000330       _NewtonMaterialSetContactNormalAcceleration 10001330 f   Newton.obj
 0001:00000350       _NewtonMaterialSetContactTangentAcceleration 10001350 f   Newton.obj
 0001:00000380       _NewtonCreateNull          10001380 f   Newton.obj
 0001:00000390       _NewtonCreateBox           10001390 f   Newton.obj
 0001:000003f0       _NewtonCreateSphere        100013f0 f   Newton.obj
 0001:000004e0       _NewtonCreateCone          100014e0 f   Newton.obj
 0001:00000540       _NewtonCreateCapsule       10001540 f   Newton.obj
 0001:000005a0       _NewtonCreateCylinder      100015a0 f   Newton.obj
 0001:00000600       _NewtonCreateChamferCylinder 10001600 f   Newton.obj
 0001:00000660       _NewtonCreateConvexHullFromMesh 10001660 f   Newton.obj
 0001:00000680       _NewtonConvexHullModifierGetMatrix 10001680 f   Newton.obj
 0001:000006b0       _NewtonConvexHullModifierSetMatrix 100016b0 f   Newton.obj
 0001:000006d0       _NewtonCollisionIsTriggerVolume 100016d0 f   Newton.obj
 0001:000006f0       _NewtonCollisionSetAsTriggerVolume 100016f0 f   Newton.obj
 0001:00000710       _NewtonConvexCollisionCalculateVolume 10001710 f   Newton.obj
 0001:00000720       _NewtonTreeCollisionSetUserRayCastCallback 10001720 f   Newton.obj
 0001:00000730       _NewtonTreeCollisionBeginBuild 10001730 f   Newton.obj
 0001:00000740       _NewtonTreeCollisionAddFace 10001740 f   Newton.obj
 0001:00000760       _NewtonTreeCollisionEndBuild 10001760 f   Newton.obj
 0001:00000770       _NewtonSceneCollisionCreateProxy 10001770 f   Newton.obj
 0001:00000780       _NewtonSceneCollisionDestroyProxy 10001780 f   Newton.obj
 0001:00000790       _NewtonSceneCollisionOptimize 10001790 f   Newton.obj
 0001:000007a0       _NewtonCollisionPointDistance 100017a0 f   Newton.obj
 0001:000007d0       _NewtonCollisionClosestPoint 100017d0 f   Newton.obj
 0001:00000810       _NewtonCollisionCollide    10001810 f   Newton.obj
 0001:00000850       _NewtonCollisionCollideContinue 10001850 f   Newton.obj
 0001:000008b0       _NewtonCollisionForEachPolygonDo 100018b0 f   Newton.obj
 0001:000008f0       _NewtonCollisionMakeUnique 100018f0 f   Newton.obj
 0001:00000900       _NewtonReleaseCollision    10001900 f   Newton.obj
 0001:00000910       _NewtonCollisionSerialize  10001910 f   Newton.obj
 0001:00000930       _NewtonCreateCollisionFromSerialization 10001930 f   Newton.obj
 0001:00000950       _NewtonCollisionGetInfo    10001950 f   Newton.obj
 0001:00000970       _NewtonGetEulerAngle       10001970 f   Newton.obj
 0001:000009a0       _NewtonCalculateSpringDamperAcceleration 100019a0 f   Newton.obj
 0001:000009e0       _NewtonCreateBody          100019e0 f   Newton.obj
 0001:000009f0       _NewtonDestroyBody         100019f0 f   Newton.obj
 0001:00000a00       _NewtonBodySetMatrix       10001a00 f   Newton.obj
 0001:00000a50       _NewtonBodyGetFirstJoint   10001a50 f   Newton.obj
 0001:00000a60       _NewtonBodyGetNextJoint    10001a60 f   Newton.obj
 0001:00000a70       _NewtonBodyGetFirstContactJoint 10001a70 f   Newton.obj
 0001:00000a80       _NewtonBodyGetNextContactJoint 10001a80 f   Newton.obj
 0001:00000a90       _NewtonBodySetCollision    10001a90 f   Newton.obj
 0001:00000aa0       _NewtonBodySetFreezeState  10001aa0 f   Newton.obj
 0001:00000ac0       _NewtonBallSetUserCallback 10001ac0 f   Newton.obj
 0001:00000ad0       _NewtonBallGetJointAngle   10001ad0 f   Newton.obj
 0001:00000b00       _NewtonBallGetJointOmega   10001b00 f   Newton.obj
 0001:00000b30       _NewtonBallGetJointForce   10001b30 f   Newton.obj
 0001:00000b60       _NewtonHingeSetUserCallback 10001b60 f   Newton.obj
 0001:00000b60       _NewtonSliderSetUserCallback 10001b60 f   Newton.obj
 0001:00000b70       _NewtonHingeCalculateStopAlpha 10001b70 f   Newton.obj
 0001:00000b90       _NewtonHingeGetJointForce  10001b90 f   Newton.obj
 0001:00000bc0       _NewtonSliderCalculateStopAccel 10001bc0 f   Newton.obj
 0001:00000be0       _NewtonSliderGetJointForce 10001be0 f   Newton.obj
 0001:00000c10       _NewtonCorkscrewSetUserCallback 10001c10 f   Newton.obj
 0001:00000c10       _NewtonUniversalSetUserCallback 10001c10 f   Newton.obj
 0001:00000c20       _NewtonSliderGetJointVeloc 10001c20 f   Newton.obj
 0001:00000c20       _NewtonCorkscrewGetJointVeloc 10001c20 f   Newton.obj
 0001:00000c30       _NewtonCorkscrewCalculateStopAlpha 10001c30 f   Newton.obj
 0001:00000c30       _NewtonUniversalCalculateStopAlpha0 10001c30 f   Newton.obj
 0001:00000c50       _NewtonCorkscrewCalculateStopAccel 10001c50 f   Newton.obj
 0001:00000c70       _NewtonSliderGetJointPosit 10001c70 f   Newton.obj
 0001:00000c70       _NewtonHingeGetJointAngle  10001c70 f   Newton.obj
 0001:00000c70       _NewtonUniversalGetJointAngle0 10001c70 f   Newton.obj
 0001:00000c70       _NewtonCorkscrewGetJointAngle 10001c70 f   Newton.obj
 0001:00000c80       _NewtonCorkscrewGetJointPosit 10001c80 f   Newton.obj
 0001:00000c80       _NewtonUniversalGetJointAngle1 10001c80 f   Newton.obj
 0001:00000c90       _NewtonUniversalGetJointOmega0 10001c90 f   Newton.obj
 0001:00000c90       _NewtonCorkscrewGetJointOmega 10001c90 f   Newton.obj
 0001:00000c90       _NewtonHingeGetJointOmega  10001c90 f   Newton.obj
 0001:00000ca0       _NewtonUniversalGetJointOmega1 10001ca0 f   Newton.obj
 0001:00000cb0       _NewtonUniversalCalculateStopAlpha1 10001cb0 f   Newton.obj
 0001:00000cd0       _NewtonUniversalGetJointForce 10001cd0 f   Newton.obj
 0001:00000cd0       _NewtonCorkscrewGetJointForce 10001cd0 f   Newton.obj
 0001:00000d00       _NewtonUpVectorGetPin      10001d00 f   Newton.obj
 0001:00000d30       _NewtonUserJointAddGeneralRow 10001d30 f   Newton.obj
 0001:00000d50       _NewtonUserJointSetRowMaximumFriction 10001d50 f   Newton.obj
 0001:00000d70       _NewtonUserJointSetRowMinimumFriction 10001d70 f   Newton.obj
 0001:00000d90       _NewtonUserJointSetRowAcceleration 10001d90 f   Newton.obj
 0001:00000db0       _NewtonUserJointSetRowSpringDamperAcceleration 10001db0 f   Newton.obj
 0001:00000dd0       _NewtonUserJointSetRowStiffness 10001dd0 f   Newton.obj
 0001:00000df0       _NewtonUserJointGetRowForce 10001df0 f   Newton.obj
 0001:00000e00       _NewtonUserJointSetFeedbackCollectorCallback 10001e00 f   Newton.obj
 0001:00000e10       _NewtonJointSetUserData    10001e10 f   Newton.obj
 0001:00000e20       _NewtonJointGetUserData    10001e20 f   Newton.obj
 0001:00000e30       _NewtonJointGetInfo        10001e30 f   Newton.obj
 0001:00000e50       _NewtonJointSetStiffness   10001e50 f   Newton.obj
 0001:00000e70       _NewtonJointGetStiffness   10001e70 f   Newton.obj
 0001:00000e80       _NewtonJointSetDestructor  10001e80 f   Newton.obj
 0001:00000e90       _NewtonDestroyJoint        10001e90 f   Newton.obj
 0001:00000ea0       _NewtonMeshDestroy         10001ea0 f   Newton.obj
 0001:00000ec0       _NewtonMeshCalculateVertexNormals 10001ec0 f   Newton.obj
 0001:00000ee0       _NewtonMeshApplySphericalMapping 10001ee0 f   Newton.obj
 0001:00000ef0       _NewtonMeshApplyBoxMapping 10001ef0 f   Newton.obj
 0001:00000f10       _NewtonMeshApplyCylindricalMapping 10001f10 f   Newton.obj
 0001:00000f30       _NewtonMeshBeginFace       10001f30 f   Newton.obj
 0001:00000f40       _NewtonMeshAddFace         10001f40 f   Newton.obj
 0001:00000f60       _NewtonMeshEndFace         10001f60 f   Newton.obj
 0001:00000f70       _NewtonMeshGetVertexCount  10001f70 f   Newton.obj
 0001:00000f80       _NewtonMeshGetVertexStreams 10001f80 f   Newton.obj
 0001:00000fb0       _NewtonMeshGetIndirectVertexStreams 10001fb0 f   Newton.obj
 0001:00001000       _NewtonMeshFirstMaterial   10002000 f   Newton.obj
 0001:00001010       _NewtonMeshNextMaterial    10002010 f   Newton.obj
 0001:00001020       _NewtonMeshMaterialGetMaterial 10002020 f   Newton.obj
 0001:00001030       _NewtonMeshMaterialGetIndexCount 10002030 f   Newton.obj
 0001:00001050       _NewtonMeshMaterialGetIndexStream 10002050 f   Newton.obj
 0001:00001070       _NewtonMeshMaterialGetIndexStreamShort 10002070 f   Newton.obj
 0001:00001090       ?dgGetUserLock@dgWorld@@QAEXXZ 10002090 f i Newton.obj
 0001:000010b0       ?dgReleasedUserLock@dgWorld@@QAEXXZ 100020b0 f i Newton.obj
 0001:000010d0       ?Scale@?$dgTemplateVector@N@@QBE?AV1@N@Z 100020d0 f i Newton.obj
 0001:00001100       ??H?$dgTemplateVector@N@@QBE?AV0@ABV0@@Z 10002100 f i Newton.obj
 0001:00001130       ??G?$dgTemplateVector@N@@QBE?AV0@ABV0@@Z 10002130 f i Newton.obj
 0001:00001160       ??D?$dgTemplateVector@N@@QBE?AV0@ABV0@@Z 10002160 f i Newton.obj
 0001:000011a0       _NewtonDestroy             100021a0 f   Newton.obj
 0001:000011e0       _NewtonWorldCriticalSectionLock 100021e0 f   Newton.obj
 0001:00001200       _NewtonWorldCriticalSectionUnlock 10002200 f   Newton.obj
 0001:00001220       _NewtonUpdate              10002220 f   Newton.obj
 0001:000012e0       _NewtonSetMinimumFrameRate 100022e0 f   Newton.obj
 0001:00001330       _NewtonWorldGetFirstBody   10002330 f   Newton.obj
 0001:00001350       _NewtonWorldGetNextBody    10002350 f   Newton.obj
 0001:00001370       _NewtonIslandGetBodyAABB   10002370 f   Newton.obj
 0001:000013d0       _NewtonMaterialSetSurfaceThickness 100023d0 f   Newton.obj
 0001:00001430       _NewtonMaterialSetDefaultFriction 10002430 f   Newton.obj
 0001:00001500       _NewtonMaterialSetDefaultElasticity 10002500 f   Newton.obj
 0001:00001550       _NewtonMaterialSetDefaultSoftness 10002550 f   Newton.obj
 0001:000015a0       _NewtonMaterialSetCollisionCallback 100025a0 f   Newton.obj
 0001:000015e0       _NewtonMaterialGetUserData 100025e0 f   Newton.obj
 0001:00001600       _NewtonMaterialGetMaterialPairUserData 10002600 f   Newton.obj
 0001:00001610       _NewtonMaterialGetContactNormalSpeed 10002610 f   Newton.obj
 0001:00001710       _NewtonMaterialGetContactForce 10002710 f   Newton.obj
 0001:00001790       _NewtonMaterialGetBodyCollisionID 10002790 f   Newton.obj
 0001:000017c0       _NewtonMaterialSetContactSoftness 100027c0 f   Newton.obj
 0001:00001810       _NewtonMaterialSetContactElasticity 10002810 f   Newton.obj
 0001:00001860       _NewtonMaterialSetContactFrictionCoef 10002860 f   Newton.obj
 0001:00001930       _NewtonCreateConvexHull    10002930 f   Newton.obj
 0001:000019b0       _NewtonCreateConvexHullModifier 100029b0 f   Newton.obj
 0001:000019d0       _NewtonCreateCompoundCollision 100029d0 f   Newton.obj
 0001:000019f0       _NewtonCreateCompoundCollisionFromMesh 100029f0 f   Newton.obj
 0001:00001a20       _NewtonCollisionSetUserID  10002a20 f   Newton.obj
 0001:00001a30       _NewtonCollisionGetUserID  10002a30 f   Newton.obj
 0001:00001a40       _NewtonConvexHullGetFaceIndices 10002a40 f   Newton.obj
 0001:00001a60       _NewtonCreateTreeCollision 10002a60 f   Newton.obj
 0001:00001a80       _NewtonStaticCollisionSetDebugCallback 10002a80 f   Newton.obj
 0001:00001ab0       _NewtonTreeCollisionGetFaceAtribute 10002ab0 f   Newton.obj
 0001:00001ac0       _NewtonTreeCollisionSetFaceAtribute 10002ac0 f   Newton.obj
 0001:00001ad0       _NewtonCreateHeightFieldCollision 10002ad0 f   Newton.obj
 0001:00001b10       _NewtonCreateSceneCollision 10002b10 f   Newton.obj
 0001:00001b30       _NewtonSceneProxySetMatrix 10002b30 f   Newton.obj
 0001:00001b50       _NewtonSceneProxyGetMatrix 10002b50 f   Newton.obj
 0001:00001b90       _NewtonCollisionCalculateAABB 10002b90 f   Newton.obj
 0001:00001bf0       _NewtonAddCollisionReference 10002bf0 f   Newton.obj
 0001:00001c10       _NewtonBodySetUserData     10002c10 f   Newton.obj
 0001:00001c20       _NewtonBodyGetUserData     10002c20 f   Newton.obj
 0001:00001c30       _NewtonBodyGetWorld        10002c30 f   Newton.obj
 0001:00001c40       _NewtonBodySetTransformCallback 10002c40 f   Newton.obj
 0001:00001c50       _NewtonBodyGetTransformCallback 10002c50 f   Newton.obj
 0001:00001c60       _NewtonBodySetForceAndTorqueCallback 10002c60 f   Newton.obj
 0001:00001c70       _NewtonBodyGetForceAndTorqueCallback 10002c70 f   Newton.obj
 0001:00001c80       _NewtonBodySetDestructorCallback 10002c80 f   Newton.obj
 0001:00001c90       _NewtonBodySetMassMatrix   10002c90 f   Newton.obj
 0001:00001df0       _NewtonBodyGetMassMatrix   10002df0 f   Newton.obj
 0001:00001e50       _NewtonBodyGetInvMass      10002e50 f   Newton.obj
 0001:00001eb0       _NewtonBodySetMatrixRecursive 10002eb0 f   Newton.obj
 0001:00001ef0       _NewtonBodyGetMatrix       10002ef0 f   Newton.obj
 0001:00001f10       _NewtonBodyGetRotation     10002f10 f   Newton.obj
 0001:00001f30       _NewtonBodyGetForceAcc     10002f30 f   Newton.obj
 0001:00001f70       _NewtonBodyGetForce        10002f70 f   Newton.obj
 0001:00001fb0       _NewtonBodyCalculateInverseDynamicsForce 10002fb0 f   Newton.obj
 0001:00002010       _NewtonBodyGetTorque       10003010 f   Newton.obj
 0001:00002050       _NewtonBodyGetTorqueAcc    10003050 f   Newton.obj
 0001:00002090       _NewtonBodyGetCentreOfMass 10003090 f   Newton.obj
 0001:000020d0       _NewtonContactJointGetContactCount 100030d0 f   Newton.obj
 0001:000020f0       _NewtonContactJointGetFirstContact 100030f0 f   Newton.obj
 0001:00002120       _NewtonContactJointGetNextContact 10003120 f   Newton.obj
 0001:00002150       _NewtonContactGetMaterial  10003150 f   Newton.obj
 0001:00002160       _NewtonBodyAddBuoyancyForce 10003160 f   Newton.obj
 0001:000021c0       _NewtonBodyGetCollision    100031c0 f   Newton.obj
 0001:000021d0       _NewtonBodySetMaterialGroupID 100031d0 f   Newton.obj
 0001:000021e0       _NewtonBodyGetMaterialGroupID 100031e0 f   Newton.obj
 0001:000021f0       _NewtonBodySetContinuousCollisionMode 100031f0 f   Newton.obj
 0001:00002210       _NewtonBodyGetContinuousCollisionMode 10003210 f   Newton.obj
 0001:00002230       _NewtonBodySetJointRecursiveCollision 10003230 f   Newton.obj
 0001:00002260       _NewtonBodyGetJointRecursiveCollision 10003260 f   Newton.obj
 0001:00002280       _NewtonBodyGetFreezeState  10003280 f   Newton.obj
 0001:00002290       _NewtonBodySetAutoSleep    10003290 f   Newton.obj
 0001:000022c0       _NewtonBodyGetAutoSleep    100032c0 f   Newton.obj
 0001:000022e0       _NewtonBodyGetSleepState   100032e0 f   Newton.obj
 0001:000022f0       _NewtonBodyGetAABB         100032f0 f   Newton.obj
 0001:00002340       _NewtonBodySetVelocity     10003340 f   Newton.obj
 0001:00002380       _NewtonBodyGetVelocity     10003380 f   Newton.obj
 0001:000023c0       _NewtonBodySetOmega        100033c0 f   Newton.obj
 0001:00002400       _NewtonBodyGetOmega        10003400 f   Newton.obj
 0001:00002440       _NewtonBodyGetLinearDamping 10003440 f   Newton.obj
 0001:00002460       _NewtonBodyAddImpulse      10003460 f   Newton.obj
 0001:000024c0       _NewtonConstraintCreateBall 100034c0 f   Newton.obj
 0001:00002500       _NewtonBallSetConeLimits   10003500 f   Newton.obj
 0001:00002770       _NewtonConstraintCreateHinge 10003770 f   Newton.obj
 0001:000027d0       _NewtonConstraintCreateSlider 100037d0 f   Newton.obj
 0001:00002830       _NewtonConstraintCreateCorkscrew 10003830 f   Newton.obj
 0001:00002890       _NewtonConstraintCreateUniversal 10003890 f   Newton.obj
 0001:00002910       ?SetCentreOfMass@dgBody@@QAEXABVdgVector@@@Z 10003910 f i Newton.obj
 0001:000029b0       _NewtonConstraintCreateUpVector 100039b0 f   Newton.obj
 0001:000029f0       _NewtonUpVectorSetPin      100039f0 f   Newton.obj
 0001:00002a30       _NewtonConstraintCreateUserJoint 10003a30 f   Newton.obj
 0001:00002a70       _NewtonUserJointAddLinearRow 10003a70 f   Newton.obj
 0001:00002b40       _NewtonUserJointAddAngularRow 10003b40 f   Newton.obj
 0001:00002bd0       ?SetLinearDamping@dgBody@@QAEXN@Z 10003bd0 f i Newton.obj
 0001:00002c30       _NewtonJointGetBody0       10003c30 f   Newton.obj
 0001:00002c40       ?SetAngularDamping@dgBody@@QAEXABVdgVector@@@Z 10003c40 f i Newton.obj
 0001:00002cf0       _NewtonJointGetBody1       10003cf0 f   Newton.obj
 0001:00002d10       _NewtonJointSetCollisionState 10003d10 f   Newton.obj
 0001:00002d30       _NewtonJointGetCollisionState 10003d30 f   Newton.obj
 0001:00002d40       _NewtonMeshCreate          10003d40 f   Newton.obj
 0001:00002d60       ?SetForce@dgBody@@QAEXABVdgVector@@@Z 10003d60 f i Newton.obj
 0001:00002de0       _NewtonMeshCreateFromCollision 10003de0 f   Newton.obj
 0001:00002e00       ?SetTorque@dgBody@@QAEXABVdgVector@@@Z 10003e00 f i Newton.obj
 0001:00002e80       _NewtonMeshPlaneClip       10003e80 f   Newton.obj
 0001:00002ed0       ?Unlink@?$dgList@VdgContactMaterial@@@@QAEXPAVdgListNode@1@@Z 10003ed0 f i Newton.obj
 0001:00002f40       _NewtonSetWorldSize        10003f40 f   Newton.obj
 0001:00002fa0       _NewtonWorldForEachBodyInAABBDo 10003fa0 f   Newton.obj
 0001:00003000       _NewtonWorldRayCast        10004000 f   Newton.obj
 0001:00003070       _NewtonWorldConvexCast     10004070 f   Newton.obj
 0001:000030d0       _NewtonMaterialGetContactTangentSpeed 100040d0 f   Newton.obj
 0001:000031f0       _NewtonMaterialSetContactNormalDirection 100041f0 f   Newton.obj
 0001:00003400       _NewtonMaterialContactRotateTangentDirections 10004400 f   Newton.obj
 0001:00003520       _NewtonConvexCollisionCalculateInertialMatrix 10004520 f   Newton.obj
 0001:00003570       _NewtonCreateUserMeshCollision 10004570 f   Newton.obj
 0001:00003600       _NewtonTreeCollisionGetVertexListIndexListInAABB 10004600 f   Newton.obj
 0001:000036b0       _NewtonCollisionSupportVertex 100046b0 f   Newton.obj
 0001:000037e0       _NewtonCollisionRayCast    100047e0 f   Newton.obj
 0001:00003970       _NewtonSetEulerAngle       10004970 f   Newton.obj
 0001:00003d50       _NewtonBodySetForce        10004d50 f   Newton.obj
 0001:00003d90       _NewtonBodySetTorque       10004d90 f   Newton.obj
 0001:00003dd0       _NewtonBodySetCentreOfMass 10004dd0 f   Newton.obj
 0001:00003e10       _NewtonBodySetLinearDamping 10004e10 f   Newton.obj
 0001:00003e30       _NewtonBodySetAngularDamping 10004e30 f   Newton.obj
 0001:00003e70       _NewtonBodyGetAngularDamping 10004e70 f   Newton.obj
 0001:00003ec0       _NewtonCreate              10004ec0 f   Newton.obj
 0001:00003f90       _NewtonDestroyAllBodies    10004f90 f   Newton.obj
 0001:00003fe0       _NewtonBodyAddForce        10004fe0 f   Newton.obj
 0001:00004040       _NewtonBodyAddTorque       10005040 f   Newton.obj
 0001:00004090       _NewtonContactJointRemoveContact 10005090 f   Newton.obj
 0001:000040d0       _NewtonWorldForEachJointDo 100050d0 f   Newton.obj
 0001:00004180       ?Append@?$dgList@UNewtonMeshPartition@@@@QAEPAVdgListNode@1@XZ 10005180 f i NewtonAproximateConvexPartition.obj
 0001:00004210       ?CalculateHulls@NewtonAproximateConvexPartition@@QAEXPBVdgVector@@H@Z 10005210 f   NewtonAproximateConvexPartition.obj
 0001:00004310       ?RemoveAll@?$dgList@UNewtonMeshPartition@@@@QAEXXZ 10005310 f i NewtonAproximateConvexPartition.obj
 0001:00004380       ??0NewtonAproximateConvexPartition@@QAE@ABVNewtonMeshEffect@@NH@Z 10005380 f   NewtonAproximateConvexPartition.obj
 0001:00004400       ??1NewtonAproximateConvexPartition@@QAE@XZ 10005400 f   NewtonAproximateConvexPartition.obj
 0001:00004410       ?__malloc__@dgMemoryAllocator@@CAPAXI@Z 10005410 f   corelib_2009:dgMemory.obj
 0001:00004410       ?DefaultAllocMemory@Newton@@SAPAXH@Z 10005410 f   NewtonClass.obj
 0001:00004420       ?JacobianDerivative@NewtonUserJoint@@UAEIAAVdgContraintDescritor@@@Z 10005420 f   NewtonClass.obj
 0001:00004460       ?SetAcceleration@NewtonUserJoint@@QAEXN@Z 10005460 f   NewtonClass.obj
 0001:00004490       ?SetSpringDamperAcceleration@NewtonUserJoint@@QAEXNN@Z 10005490 f   NewtonClass.obj
 0001:00004500       ?GetRowForce@NewtonUserJoint@@QBENH@Z 10005500 f   NewtonClass.obj
 0001:00004530       ?GetInfo@NewtonUserJoint@@UBEXPAVdgConstraintInfo@@@Z 10005530 f   NewtonClass.obj
 0001:00004570       ??_ENewtonUserJoint@@UAEPAXI@Z 10005570 f i NewtonClass.obj
 0001:00004570       ??_GNewtonUserJoint@@UAEPAXI@Z 10005570 f i NewtonClass.obj
 0001:000045b0       ?SetHighFriction@NewtonUserJoint@@QAEXN@Z 100055b0 f   NewtonClass.obj
 0001:00004620       ?SetLowerFriction@NewtonUserJoint@@QAEXN@Z 10005620 f   NewtonClass.obj
 0001:00004690       ?SetRowStiffness@NewtonUserJoint@@QAEXN@Z 10005690 f   NewtonClass.obj
 0001:000046f0       ?SetUpdateFeedbackFunction@NewtonUserJoint@@QAEXP6AXPBUNewtonJoint@@NH@Z@Z 100056f0 f   NewtonClass.obj
 0001:00004700       ?DestroyJoints@NewtonDeadJoints@@QAEXAAVNewton@@@Z 10005700 f   NewtonClass.obj
 0001:00004760       ??1Newton@@QAE@XZ          10005760 f   NewtonClass.obj
 0001:000047c0       ??0NewtonUserJoint@@QAE@PAVdgWorld@@HP6AXPBUNewtonJoint@@NH@ZP6AX1PAUNewtonJointRecord@@@ZPAVdgBody@@5@Z 100057c0 f   NewtonClass.obj
 0001:00004870       ?AddAngularRowJacobian@NewtonUserJoint@@QAEXABVdgVector@@N@Z 10005870 f   NewtonClass.obj
 0001:00004910       ?AddGeneralRowJacobian@NewtonUserJoint@@QAEXPBN0@Z 10005910 f   NewtonClass.obj
 0001:000049a0       ?AddLinearRowJacobian@NewtonUserJoint@@QAEXABVdgVector@@00@Z 100059a0 f   NewtonClass.obj
 0001:00004a30       ?Insert@?$dgTree@PAVdgConstraint@@PAX@@QAEPAVdgTreeNode@1@ABQAVdgConstraint@@PAXAA_N@Z 10005a30 f i NewtonClass.obj
 0001:00004a30       ?Insert@?$dgTree@PAVdgCollision@@I@@QAEPAVdgTreeNode@1@ABQAVdgCollision@@IAA_N@Z 10005a30 f i physics_2009:dgNarrowPhaseCollision.obj
 0001:00004a30       ?Insert@?$dgTree@PAVdgEdge@@PAX@@QAEPAVdgTreeNode@1@ABQAVdgEdge@@PAXAA_N@Z 10005a30 f i physics_2009:dgCollisionConvexHull.obj
 0001:00004a30       ?Insert@?$dgTree@PAVdgConstraint@@PAV1@@@QAEPAVdgTreeNode@1@ABQAVdgConstraint@@PAV3@AA_N@Z 10005a30 f i Newton.obj
 0001:00004a30       ?Insert@?$dgTree@PAVdgBody@@PAX@@QAEPAVdgTreeNode@1@ABQAVdgBody@@PAXAA_N@Z 10005a30 f i NewtonClass.obj
 0001:00004b00       ??0Newton@@QAE@N@Z         10005b00 f   NewtonClass.obj
 0001:00004b70       ?DestroyJoint@Newton@@QAEXPAVdgConstraint@@@Z 10005b70 f   NewtonClass.obj
 0001:00004ba0       ?DestroyBody@Newton@@QAEXPAVdgBody@@@Z 10005ba0 f   NewtonClass.obj
 0001:00004bd0       ?DestroyBodies@NewtonDeadBodies@@QAEXAAVNewton@@@Z 10005bd0 f   NewtonClass.obj
 0001:00004c50       ?UpdatePhysics@Newton@@QAEXN@Z 10005c50 f   NewtonClass.obj
 0001:00004c90       ?GetShapeFromCollision@NewtonMeshEffectBuilder@@SAXPAXHPBNH@Z 10005c90 f i NewtonMeshEffect.obj
 0001:00004d70       ?BeginPolygon@NewtonMeshEffect@@QAEXXZ 10005d70 f   NewtonMeshEffect.obj
 0001:00004d80       ?AddVertex@NewtonMeshEffect@@AAEXPBNH@Z 10005d80 f   NewtonMeshEffect.obj
 0001:00004ee0       ?AddPolygon@NewtonMeshEffect@@QAEXHPBNHH@Z 10005ee0 f   NewtonMeshEffect.obj
 0001:00004f60       ?GetVertexStreams@NewtonMeshEffect@@QAEXHPANH0H0@Z 10005f60 f   NewtonMeshEffect.obj
 0001:00005020       ?GetIndirectVertexStreams@NewtonMeshEffect@@QAEXHPANPAH1H011H011@Z 10006020 f   NewtonMeshEffect.obj
 0001:00005200       ?GetNextMaterial@NewtonMeshEffect@@QAEHH@Z 10006200 f   NewtonMeshEffect.obj
 0001:00005230       ?GetMaterialGetIndexStream@NewtonMeshEffect@@QAEXHPAH@Z 10006230 f   NewtonMeshEffect.obj
 0001:000052a0       ?GetMaterialGetIndexStreamShort@NewtonMeshEffect@@QAEXHPAF@Z 100062a0 f   NewtonMeshEffect.obj
 0001:00005310       ?CreateConvexAproximationCollision@NewtonMeshEffect@@QBEPAVdgCollision@@NH@Z 10006310 f   NewtonMeshEffect.obj
 0001:00005340       ??Y?$dgTemplateVector@N@@QAEAAV0@ABV0@@Z 10006340 f i NewtonMeshEffect.obj
 0001:00005370       ??0NewtonMeshEffect@@QAE@_N@Z 10006370 f   NewtonMeshEffect.obj
 0001:000053d0       ??_ENewtonMeshEffect@@UAEPAXI@Z 100063d0 f i NewtonMeshEffect.obj
 0001:000053d0       ??_GNewtonMeshEffect@@UAEPAXI@Z 100063d0 f i NewtonMeshEffect.obj
 0001:00005420       ?EndPolygon@NewtonMeshEffect@@QAEXXZ 10006420 f   NewtonMeshEffect.obj
 0001:000055f0       ?CreateConvexCollision@NewtonMeshEffect@@QBEPAVdgCollision@@NH@Z 100065f0 f   NewtonMeshEffect.obj
 0001:00005660       ??0NewtonMeshEffect@@QAE@PAVdgCollision@@@Z 10006660 f   NewtonMeshEffect.obj
 0001:000058f0       ?GetAttriubeArray@NewtonMeshEffect@@AAEXPAUdgVertexAtribute@1@@Z 100068f0 f   NewtonMeshEffect.obj
 0001:00005980       ?ApplyAttriubeArray@NewtonMeshEffect@@AAEXPAUdgVertexAtribute@1@@Z 10006980 f   NewtonMeshEffect.obj
 0001:00005a40       ?GetOrigin@NewtonMeshEffect@@ABE?AVdgVector@@XZ 10006a40 f   NewtonMeshEffect.obj
 0001:00005b10       ?FixCylindricalMapping@NewtonMeshEffect@@ABEXPAUdgVertexAtribute@1@@Z 10006b10 f   NewtonMeshEffect.obj
 0001:00005c60       ?SphericalMapping@NewtonMeshEffect@@QAEXH@Z 10006c60 f   NewtonMeshEffect.obj
 0001:00005e30       ?CylindricalMapping@NewtonMeshEffect@@QAEXHH@Z 10006e30 f   NewtonMeshEffect.obj
 0001:00006190       ?BoxMapping@NewtonMeshEffect@@QAEXHHH@Z 10007190 f   NewtonMeshEffect.obj
 0001:00006450       ?CalcualetNormals@NewtonMeshEffect@@QAEXN@Z 10007450 f   NewtonMeshEffect.obj
 0001:00006810       ?GetFirstMaterial@NewtonMeshEffect@@QAEHXZ 10007810 f   NewtonMeshEffect.obj
 0001:00006a10       ?CapClipFace@NewtonMeshEffect@@AAE_NABVdgPlane@@ABVdgMatrix@@HH@Z 10007a10 f   NewtonMeshEffect.obj
 0001:00006c40       ?PlaneClip@NewtonMeshEffect@@QAEHABVdgPlane@@ABVdgMatrix@@PAPAV1@HH@Z 10007c40 f   NewtonMeshEffect.obj
 0001:00007750       ?ModifierGetMatrix@dgCollision@@UBE?AVdgMatrix@@XZ 10008750 f i physics_2009:dgWorld.obj
 0001:00007770       ?Release@dgCollision@@UAEHXZ 10008770 f i physics_2009:dgWorld.obj
 0001:00007790       ?GetSentinelBody@dgWorld@@QBEPAVdgBody@@XZ 10008790 f   physics_2009:dgWorld.obj
 0001:000077a0       ?SetFrictionMode@dgWorld@@QAEXH@Z 100087a0 f   physics_2009:dgWorld.obj
 0001:000077b0       ?SetHardwareMode@dgWorld@@QAEXH@Z 100087b0 f   physics_2009:dgWorld.obj
 0001:000077e0       ?GetHardwareMode@dgWorld@@QAEHPAD@Z 100087e0 f   physics_2009:dgWorld.obj
 0001:00007830       ?ThreadExecute@dgSetTrreadRoundMode@dgWorld@@UAEXXZ 10008830 f   physics_2009:dgWorld.obj
 0001:00007850       ?SetThreadsCount@dgWorld@@QAEXH@Z 10008850 f   physics_2009:dgWorld.obj
 0001:00007890       ?GetThreadsCount@dgWorld@@QBEHXZ 10008890 f   physics_2009:dgWorld.obj
 0001:000078a0       ?EnableThreadOnSingleIsland@dgWorld@@QAEXH@Z 100088a0 f   physics_2009:dgWorld.obj
 0001:000078c0       ?GetThreadOnSingleIsland@dgWorld@@QBEHXZ 100088c0 f   physics_2009:dgWorld.obj
 0001:000078d0       ?DestroyConstraint@dgWorld@@QAEXPAVdgConstraint@@@Z 100088d0 f   physics_2009:dgWorld.obj
 0001:000078f0       ?UpdateCollision@dgWorld@@QAEXXZ 100088f0 f   physics_2009:dgWorld.obj
 0001:00007970       ?Update@dgWorld@@QAEXN@Z   10008970 f   physics_2009:dgWorld.obj
 0001:00007a10       ?SetPerfomanceCounter@dgWorld@@QAEXP6AIXZ@Z 10008a10 f   physics_2009:dgWorld.obj
 0001:00007a60       ?SetUserData@dgWorld@@QAEXPAX@Z 10008a60 f   physics_2009:dgWorld.obj
 0001:00007a70       ?GetUserData@dgWorld@@QBEPAXXZ 10008a70 f   physics_2009:dgWorld.obj
 0001:00007a80       ?SetIslandUpdateCallback@dgWorld@@QAEXP6AIPAXH@Z@Z 10008a80 f   physics_2009:dgWorld.obj
 0001:00007a90       ?SetDestroyCollisionCallback@dgWorld@@QAEXP6AXPAVdgCollision@@@Z@Z 10008a90 f   physics_2009:dgWorld.obj
 0001:00007aa0       ?SetLeavingWorldCallback@dgWorld@@QAEXP6AXPAVdgBody@@H@Z@Z 10008aa0 f   physics_2009:dgWorld.obj
 0001:00007ab0       ?CreateBallConstraint@dgWorld@@QAEPAVdgBallConstraint@@ABVdgVector@@PAVdgBody@@1@Z 10008ab0 f   physics_2009:dgWorld.obj
 0001:00007b00       ?CreateHingeConstraint@dgWorld@@QAEPAVdgHingeConstraint@@ABVdgVector@@0PAVdgBody@@1@Z 10008b00 f   physics_2009:dgWorld.obj
 0001:00007b50       ?CreateUpVectorConstraint@dgWorld@@QAEPAVdgUpVectorConstraint@@ABVdgVector@@PAVdgBody@@@Z 10008b50 f   physics_2009:dgWorld.obj
 0001:00007ba0       ?CreateSlidingConstraint@dgWorld@@QAEPAVdgSlidingConstraint@@ABVdgVector@@0PAVdgBody@@1@Z 10008ba0 f   physics_2009:dgWorld.obj
 0001:00007bf0       ?CreateCorkscrewConstraint@dgWorld@@QAEPAVdgCorkscrewConstraint@@ABVdgVector@@0PAVdgBody@@1@Z 10008bf0 f   physics_2009:dgWorld.obj
 0001:00007c40       ?CreateUniversalConstraint@dgWorld@@QAEPAVdgUniversalConstraint@@ABVdgVector@@00PAVdgBody@@1@Z 10008c40 f   physics_2009:dgWorld.obj
 0001:00007ca0       ?GetConstraintsCount@dgWorld@@QBEHXZ 10008ca0 f   physics_2009:dgWorld.obj
 0001:00007cb0       ?AddBodyImpulse@dgWorld@@QAEXPAVdgBody@@ABVdgVector@@1@Z 10008cb0 f   physics_2009:dgWorld.obj
 0001:00007ce0       ??_GdgCollisionPoint@@UAEPAXI@Z 10008ce0 f i physics_2009:dgWorld.obj
 0001:00007ce0       ??_EdgCollisionPoint@@UAEPAXI@Z 10008ce0 f i physics_2009:dgWorld.obj
 0001:00007d00       ??_GdgSolverWorlkerThreads@@UAEPAXI@Z 10008d00 f i physics_2009:dgWorld.obj
 0001:00007d00       ??_EdgParallelSolverUpdateVeloc@@UAEPAXI@Z 10008d00 f i physics_2009:dgWorld.obj
 0001:00007d00       ??_EdgParallelSolverBodyInertia@@UAEPAXI@Z 10008d00 f i physics_2009:dgWorld.obj
 0001:00007d00       ??_EdgBroadPhaseCalculateContactsWorkerThread@@UAEPAXI@Z 10008d00 f i physics_2009:dgBroadPhaseCollision.obj
 0001:00007d00       ??_GdgParallelSolverInitFeedbackUpdate@@UAEPAXI@Z 10008d00 f i physics_2009:dgWorld.obj
 0001:00007d00       ??_EdgParallelSolverBuildJacobianRows@@UAEPAXI@Z 10008d00 f i physics_2009:dgWorld.obj
 0001:00007d00       ??_GdgBroadPhaseApplyExternalForce@@UAEPAXI@Z 10008d00 f i physics_2009:dgBroadPhaseCollision.obj
 0001:00007d00       ??_GdgParallelSolverBuildJacobianMatrix@@UAEPAXI@Z 10008d00 f i physics_2009:dgWorld.obj
 0001:00007d00       ??_EdgParallelSolverBuildJacobianMatrix@@UAEPAXI@Z 10008d00 f i physics_2009:dgWorld.obj
 0001:00007d00       ??_GdgParallelSolverInitInternalForces@@UAEPAXI@Z 10008d00 f i physics_2009:dgWorld.obj
 0001:00007d00       ??_EdgParallelSolverClear@@UAEPAXI@Z 10008d00 f i physics_2009:dgWorld.obj
 0001:00007d00       ??_GdgParallelSolverBuildJacobianRows@@UAEPAXI@Z 10008d00 f i physics_2009:dgWorld.obj
 0001:00007d00       ??_GdgBroadPhaseCalculateContactsWorkerThread@@UAEPAXI@Z 10008d00 f i physics_2009:dgBroadPhaseCollision.obj
 0001:00007d00       ??_GdgBroadPhaseCellPairsWorkerThread@@UAEPAXI@Z 10008d00 f i physics_2009:dgBroadPhaseCollision.obj
 0001:00007d00       ??_GdgParallelSolverUpdateVeloc@@UAEPAXI@Z 10008d00 f i physics_2009:dgWorld.obj
 0001:00007d00       ??_GdgParallelSolverUpdateForce@@UAEPAXI@Z 10008d00 f i physics_2009:dgWorld.obj
 0001:00007d00       ??_EdgSetTrreadRoundMode@dgWorld@@UAEPAXI@Z 10008d00 f i physics_2009:dgWorld.obj
 0001:00007d00       ??_EdgParallelSolverInitFeedbackUpdate@@UAEPAXI@Z 10008d00 f i physics_2009:dgWorld.obj
 0001:00007d00       ??_EdgParallelSolverUpdateForce@@UAEPAXI@Z 10008d00 f i physics_2009:dgWorld.obj
 0001:00007d00       ??_EdgSolverWorlkerThreads@@UAEPAXI@Z 10008d00 f i physics_2009:dgWorld.obj
 0001:00007d00       ??_EdgBroadPhaseMaterialCallbackWorkerThread@@UAEPAXI@Z 10008d00 f i physics_2009:dgBroadPhaseCollision.obj
 0001:00007d00       ??_EdgParallelSolverCalculateForces@@UAEPAXI@Z 10008d00 f i physics_2009:dgWorld.obj
 0001:00007d00       ??_GdgBroadPhaseMaterialCallbackWorkerThread@@UAEPAXI@Z 10008d00 f i physics_2009:dgBroadPhaseCollision.obj
 0001:00007d00       ??_EdgBroadPhaseApplyExternalForce@@UAEPAXI@Z 10008d00 f i physics_2009:dgBroadPhaseCollision.obj
 0001:00007d00       ??_GdgParallelSolverJointAcceleration@@UAEPAXI@Z 10008d00 f i physics_2009:dgWorld.obj
 0001:00007d00       ??_GdgParallelSolverCalculateForces@@UAEPAXI@Z 10008d00 f i physics_2009:dgWorld.obj
 0001:00007d00       ??_GdgParallelSolverBodyInertia@@UAEPAXI@Z 10008d00 f i physics_2009:dgWorld.obj
 0001:00007d00       ??_EdgParallelSolverJointAcceleration@@UAEPAXI@Z 10008d00 f i physics_2009:dgWorld.obj
 0001:00007d00       ??_EdgParallelSolverInitInternalForces@@UAEPAXI@Z 10008d00 f i physics_2009:dgWorld.obj
 0001:00007d00       ??_GdgWorkerThread@@UAEPAXI@Z 10008d00 f i physics_2009:dgWorld.obj
 0001:00007d00       ??_EdgBroadPhaseCellPairsWorkerThread@@UAEPAXI@Z 10008d00 f i physics_2009:dgBroadPhaseCollision.obj
 0001:00007d00       ??_GdgSetTrreadRoundMode@dgWorld@@UAEPAXI@Z 10008d00 f i physics_2009:dgWorld.obj
 0001:00007d00       ??_GdgParallelSolverClear@@UAEPAXI@Z 10008d00 f i physics_2009:dgWorld.obj
 0001:00007d00       ??_EdgWorkerThread@@UAEPAXI@Z 10008d00 f i physics_2009:dgWorld.obj
 0001:00007d20       ?SetSolverMode@dgWorld@@QAEXH@Z 10008d20 f   physics_2009:dgWorld.obj
 0001:00007d40       ?RemoveAllGroupID@dgWorld@@QAEXXZ 10008d40 f   physics_2009:dgWorld.obj
 0001:00007d90       ?DestroyBody@dgWorld@@QAEXPAVdgBody@@@Z 10008d90 f   physics_2009:dgWorld.obj
 0001:00007de0       ?GetPerfomanceTicks@dgWorld@@QBEII@Z 10008de0 f   physics_2009:dgWorld.obj
 0001:00007e00       ?GetBodiesCount@dgWorld@@QBEHXZ 10008e00 f   physics_2009:dgWorld.obj
 0001:00007e10       ?AreBodyConnectedByJoints@dgWorld@@AAE_NPAVdgBody@@0@Z 10008e10 f   physics_2009:dgWorld.obj
 0001:00007ef0       ?FlushCache@dgWorld@@QAEXXZ 10008ef0 f   physics_2009:dgWorld.obj
 0001:00007f50       ??0dgWorldDynamicUpdate@@QAE@XZ 10008f50 f i physics_2009:dgWorld.obj
 0001:000083b0       ??1dgWorldDynamicUpdate@@QAE@XZ 100093b0 f i physics_2009:dgWorld.obj
 0001:00008510       ?DestroyAllBodies@dgWorld@@QAEXXZ 10009510 f   physics_2009:dgWorld.obj
 0001:00008570       ?CreateBody@dgWorld@@QAEPAVdgBody@@PAVdgCollision@@@Z 10009570 f   physics_2009:dgWorld.obj
 0001:000086b0       ?BodySetMatrix@dgWorld@@QAEXPAVdgBody@@ABVdgMatrix@@@Z 100096b0 f   physics_2009:dgWorld.obj
 0001:00008910       ?RemoveAll@?$dgList@PAVdgContact@@@@QAEXXZ 10009910 f i physics_2009:dgWorld.obj
 0001:00008910       ?RemoveAll@?$dgList@PAVdgEdge@@@@QAEXXZ 10009910 f i corelib_2009:dgPolyhedra.obj
 0001:00008970       ??1dgWorld@@QAE@XZ         10009970 f   physics_2009:dgWorld.obj
 0001:00008ad0       ??0dgWorld@@QAE@XZ         10009ad0 f   physics_2009:dgWorld.obj
 0001:00008fd0       ?GetIslandBody@dgWorld@@QBEPAVdgBody@@PBXH@Z 10009fd0 f   physics_2009:dgWorldDynamicUpdate.obj
 0001:00009000       ?ReallocBodyMemory@dgWorldDynamicUpdate@@AAEXH@Z 1000a000 f   physics_2009:dgWorldDynamicUpdate.obj
 0001:000090b0       ?ReallocIslandMemory@dgWorldDynamicUpdate@@AAEXH@Z 1000a0b0 f   physics_2009:dgWorldDynamicUpdate.obj
 0001:00009170       ?ReallocJointsMemory@dgWorldDynamicUpdate@@AAEXH@Z 1000a170 f   physics_2009:dgWorldDynamicUpdate.obj
 0001:00009230       ?ReallocJacobiansMemory@dgWorldDynamicUpdate@@AAEXHH@Z 1000a230 f   physics_2009:dgWorldDynamicUpdate.obj
 0001:000094a0       ?ReallocIntenalForcesMemory@dgWorldDynamicUpdate@@AAEXHH@Z 1000a4a0 f   physics_2009:dgWorldDynamicUpdate.obj
 0001:000095b0       ?GetJacobialDerivativesParallel@dgWorldDynamicUpdate@@AAEHABVdgIsland@@_NHN@Z 1000a5b0 f   physics_2009:dgWorldDynamicUpdate.obj
 0001:000096a0       ?ThreadExecute@dgParallelSolverJointAcceleration@@UAEXXZ 1000a6a0 f   physics_2009:dgWorldDynamicUpdate.obj
 0001:00009840       ?ThreadExecute@dgParallelSolverInitFeedbackUpdate@@UAEXXZ 1000a840 f   physics_2009:dgWorldDynamicUpdate.obj
 0001:00009960       ??$dgSort@VdgIsland@@@@YAXQAVdgIsland@@HP6AHQBV0@1PAX@Z2@Z 1000a960 f i physics_2009:dgWorldDynamicUpdate.obj
 0001:00009bf0       ?BuildIsland@dgWorldDynamicUpdate@@AAEXAAV?$dgQueue@PAVdgBody@@@@HHH@Z 1000abf0 f   physics_2009:dgWorldDynamicUpdate.obj
 0001:00009e40       ?SpanningTree@dgWorldDynamicUpdate@@AAEXPAVdgBody@@@Z 1000ae40 f   physics_2009:dgWorldDynamicUpdate.obj
 0001:0000a290       ?IntegrateArray@dgWorldDynamicUpdate@@ABEXPBVdgBodyInfo@@HNNH_N@Z 1000b290 f   physics_2009:dgWorldDynamicUpdate.obj
 0001:0000a8c0       ?ApplyExternalForcesAndAcceleration@dgJacobianMemory@@QBEXN@Z 1000b8c0 f   physics_2009:dgWorldDynamicUpdate.obj
 0001:0000b450       ?SwapRows@dgJacobianMemory@@QBEXHH@Z 1000c450 f   physics_2009:dgWorldDynamicUpdate.obj
 0001:0000b5d0       ?CalculateSimpleBodyReactionsForces@dgJacobianMemory@@QBEXN@Z 1000c5d0 f   physics_2009:dgWorldDynamicUpdate.obj
 0001:0000d1b0       ?CalculateJointForces@dgJacobianMemory@@QBENHPANN@Z 1000e1b0 f   physics_2009:dgWorldDynamicUpdate.obj
 0001:0000e5f0       ?CalculateForcesGameMode@dgJacobianMemory@@QBEXHN@Z 1000f5f0 f   physics_2009:dgWorldDynamicUpdate.obj
 0001:0000fd40       ?ThreadExecute@dgParallelSolverBuildJacobianRows@@UAEXXZ 10010d40 f   physics_2009:dgWorldDynamicUpdate.obj
 0001:00010200       ?BuildJacobianMatrixParallel@dgWorldDynamicUpdate@@AAEXABVdgIsland@@NH@Z 10011200 f   physics_2009:dgWorldDynamicUpdate.obj
 0001:00010510       ?ThreadExecute@dgParallelSolverClear@@UAEXXZ 10011510 f   physics_2009:dgWorldDynamicUpdate.obj
 0001:00010610       ?ThreadExecute@dgParallelSolverInitInternalForces@@UAEXXZ 10011610 f   physics_2009:dgWorldDynamicUpdate.obj
 0001:00010f10       ?ThreadExecute@dgParallelSolverUpdateVeloc@@UAEXXZ 10011f10 f   physics_2009:dgWorldDynamicUpdate.obj
 0001:000110b0       ?ThreadExecute@dgParallelSolverUpdateForce@@UAEXXZ 100120b0 f   physics_2009:dgWorldDynamicUpdate.obj
 0001:000113d0       ?ThreadExecute@dgParallelSolverCalculateForces@@UAEXXZ 100123d0 f   physics_2009:dgWorldDynamicUpdate.obj
 0001:000118d0       ?CalculateForcesGameModeParallel@dgJacobianMemory@@QBEXHNH@Z 100128d0 f   physics_2009:dgWorldDynamicUpdate.obj
 0001:000120b0       ?AddDamingAcceleration@dgBody@@AAEXXZ 100130b0 f i physics_2009:dgWorldDynamicUpdate.obj
 0001:000121e0       ?CalculateForcesSimulationMode@dgJacobianMemory@@QBEXN@Z 100131e0 f   physics_2009:dgWorldDynamicUpdate.obj
 0001:00016260       ?ThreadExecute@dgParallelSolverBodyInertia@@UAEXXZ 10017260 f   physics_2009:dgWorldDynamicUpdate.obj
 0001:000162c0       ?UpdateDynamics@dgWorldDynamicUpdate@@AAEXPAVdgWorld@@HN@Z 100172c0 f   physics_2009:dgWorldDynamicUpdate.obj
 0001:00016730       ?ThreadExecute@dgParallelSolverBuildJacobianMatrix@@UAEXXZ 10017730 f   physics_2009:dgWorldDynamicUpdate.obj
 0001:00016d20       ?GetJacobialDerivatives@dgWorldDynamicUpdate@@AAEHABVdgIsland@@H_NHN@Z 10017d20 f   physics_2009:dgWorldDynamicUpdate.obj
 0001:000172b0       ?BuildJacobianMatrix@dgWorldDynamicUpdate@@AAEXABVdgIsland@@HN@Z 100182b0 f   physics_2009:dgWorldDynamicUpdate.obj
 0001:000178f0       ?ThreadExecute@dgSolverWorlkerThreads@@UAEXXZ 100188f0 f   physics_2009:dgWorldDynamicUpdate.obj
 0001:000180d0       ?CreateConvexModifier@dgWorld@@QAEPAVdgCollision@@PAV2@@Z 100190d0 f   physics_2009:dgNarrowPhaseCollision.obj
 0001:00018120       ?CreateCompoundCollision@dgWorld@@QAEPAVdgCollision@@HQBQAV2@@Z 10019120 f   physics_2009:dgNarrowPhaseCollision.obj
 0001:00018150       ?CreateBVH@dgWorld@@QAEPAVdgCollision@@XZ 10019150 f   physics_2009:dgNarrowPhaseCollision.obj
 0001:00018170       ?CreateStaticUserMesh@dgWorld@@QAEPAVdgCollision@@ABVdgVector@@0ABVdgUserMeshCreation@@@Z 10019170 f   physics_2009:dgNarrowPhaseCollision.obj
 0001:00018190       ?CreateBVHFieldCollision@dgWorld@@QAEPAVdgCollision@@HHHPAGPADNN@Z 10019190 f   physics_2009:dgNarrowPhaseCollision.obj
 0001:000181f0       ?CreateScene@dgWorld@@QAEPAVdgCollision@@XZ 100191f0 f   physics_2009:dgNarrowPhaseCollision.obj
 0001:00018220       ?Serialize@dgWorld@@QBEXPAVdgCollision@@P6AXPAXPBXI@Z1@Z 10019220 f   physics_2009:dgNarrowPhaseCollision.obj
 0001:00018290       ?GetDefualtBodyGroupID@dgWorld@@QBEIXZ 10019290 f   physics_2009:dgNarrowPhaseCollision.obj
 0001:000182a0       ??$dgSort@VdgContactPoint@@@@YAXQAVdgContactPoint@@HP6AHQBV0@1PAX@Z2@Z 100192a0 f i physics_2009:dgNarrowPhaseCollision.obj
 0001:000184d0       ?GetFirstMaterial@dgWorld@@QBEPAVdgContactMaterial@@XZ 100194d0 f   physics_2009:dgNarrowPhaseCollision.obj
 0001:000184f0       ?GetNextMaterial@dgWorld@@QBEPAVdgContactMaterial@@PAV2@@Z 100194f0 f   physics_2009:dgNarrowPhaseCollision.obj
 0001:00018550       ?ReduceContacts@dgWorld@@ABEHHQAVdgContactPoint@@HNH@Z 10019550 f   physics_2009:dgNarrowPhaseCollision.obj
 0001:000186e0       ?PruneContacts@dgWorld@@ABEHHQAVdgContactPoint@@H@Z 100196e0 f   physics_2009:dgNarrowPhaseCollision.obj
 0001:00018860       ?ProcessCachedContacts@dgWorld@@ABEXPAVdgContact@@PBVdgContactMaterial@@NH@Z 10019860 f   physics_2009:dgNarrowPhaseCollision.obj
 0001:00018940       ?ProcessTriggers@dgWorld@@AAEXAAUdgPair@dgCollidingPairCollector@@NH@Z 10019940 f   physics_2009:dgNarrowPhaseCollision.obj
 0001:00018a20       ?ValidateContactCache@dgWorld@@ABEHPAVdgBody@@0PAVdgContact@@@Z 10019a20 f   physics_2009:dgNarrowPhaseCollision.obj
 0001:00018f30       ?CompoundContactsSimd@dgWorld@@ABEXQAUdgPair@dgCollidingPairCollector@@AAVdgCollisionParamProxi@@@Z 10019f30 f   physics_2009:dgNarrowPhaseCollision.obj
 0001:00019700       ?CompoundContacts@dgWorld@@ABEXQAUdgPair@dgCollidingPairCollector@@AAVdgCollisionParamProxi@@@Z 1001a700 f   physics_2009:dgNarrowPhaseCollision.obj
 0001:0001a300       ?ConvexContactsSimd@dgWorld@@ABEXQAUdgPair@dgCollidingPairCollector@@AAVdgCollisionParamProxi@@@Z 1001b300 f   physics_2009:dgNarrowPhaseCollision.obj
 0001:0001a420       ?ConvexContacts@dgWorld@@ABEXQAUdgPair@dgCollidingPairCollector@@AAVdgCollisionParamProxi@@@Z 1001b420 f   physics_2009:dgNarrowPhaseCollision.obj
 0001:0001a540       ?SceneContacts@dgWorld@@ABEXABUdgProxy@dgCollisionScene@@QAUdgPair@dgCollidingPairCollector@@AAVdgCollisionParamProxi@@@Z 1001b540 f   physics_2009:dgNarrowPhaseCollision.obj
 0001:0001a610       ?SceneContacts@dgWorld@@ABEXQAUdgPair@dgCollidingPairCollector@@AAVdgCollisionParamProxi@@@Z 1001b610 f   physics_2009:dgNarrowPhaseCollision.obj
 0001:0001a6b0       ?SceneContactsSimd@dgWorld@@ABEXQAUdgPair@dgCollidingPairCollector@@AAVdgCollisionParamProxi@@@Z 1001b6b0 f   physics_2009:dgNarrowPhaseCollision.obj
 0001:0001a750       ?Append@?$dgList@VdgContactMaterial@@@@QAEPAVdgListNode@1@XZ 1001b750 f i physics_2009:dgNarrowPhaseCollision.obj
 0001:0001a800       ?Find@?$dgTree@VdgContactMaterial@@I@@QBEPAVdgTreeNode@1@I@Z 1001b800 f i physics_2009:dgNarrowPhaseCollision.obj
 0001:0001a830       ?GetMaterial@dgWorld@@QBEPAVdgContactMaterial@@II@Z 1001b830 f   physics_2009:dgNarrowPhaseCollision.obj
 0001:0001a880       ?RemoveFromCache@dgWorld@@QAEXPAVdgCollision@@@Z 1001b880 f   physics_2009:dgNarrowPhaseCollision.obj
 0001:0001a8e0       ?ReleaseCollision@dgWorld@@QAEXPAVdgCollision@@@Z 1001b8e0 f   physics_2009:dgNarrowPhaseCollision.obj
 0001:0001a980       ?ClosestCompoundPoint@dgWorld@@ABEHPAVdgBody@@0AAVdgTriplex@@11H@Z 1001b980 f   physics_2009:dgNarrowPhaseCollision.obj
 0001:0001ae00       ?CalculateContactsSimd@dgWorld@@AAEXQAUdgPair@dgCollidingPairCollector@@NH@Z 1001be00 f   physics_2009:dgNarrowPhaseCollision.obj
 0001:0001afa0       ?CalculateContacts@dgWorld@@AAEXQAUdgPair@dgCollidingPairCollector@@NH@Z 1001bfa0 f   physics_2009:dgNarrowPhaseCollision.obj
 0001:0001b160       ?CollideContinueSimd@dgWorld@@QAEHPAVdgCollision@@ABVdgMatrix@@ABVdgVector@@20122AANPAVdgTriplex@@4PANHH@Z 1001c160 f   physics_2009:dgNarrowPhaseCollision.obj
 0001:0001b7b0       ?CollideContinue@dgWorld@@QAEHPAVdgCollision@@ABVdgMatrix@@ABVdgVector@@20122AANPAVdgTriplex@@4PANHH@Z 1001c7b0 f   physics_2009:dgNarrowPhaseCollision.obj
 0001:0001be00       ?Collide@dgWorld@@QAEHPAVdgCollision@@ABVdgMatrix@@01PAVdgTriplex@@2PANHH@Z 1001ce00 f   physics_2009:dgNarrowPhaseCollision.obj
 0001:0001c280       ?ClosestPoint@dgWorld@@QBEHPAVdgCollision@@ABVdgMatrix@@01AAVdgTriplex@@22H@Z 1001d280 f   physics_2009:dgNarrowPhaseCollision.obj
 0001:0001c560       ?ProcessContacts@dgWorld@@AAEXAAUdgPair@dgCollidingPairCollector@@NH@Z 1001d560 f   physics_2009:dgNarrowPhaseCollision.obj
 0001:0001cfe0       ?Insert@?$dgTree@VdgContactMaterial@@I@@QAEPAVdgTreeNode@1@ABVdgContactMaterial@@IAA_N@Z 1001dfe0 f i physics_2009:dgNarrowPhaseCollision.obj
 0001:0001d0c0       ?ClosestPoint@dgWorld@@QBEHAAVdgTriplex@@PAVdgCollision@@ABVdgMatrix@@00H@Z 1001e0c0 f   physics_2009:dgNarrowPhaseCollision.obj
 0001:0001d140       ?Insert@?$dgTree@PAVdgCollision@@I@@QAEPAVdgTreeNode@1@ABQAVdgCollision@@I@Z 1001e140 f i physics_2009:dgNarrowPhaseCollision.obj
 0001:0001d160       ?CreateNull@dgWorld@@QAEPAVdgCollision@@XZ 1001e160 f   physics_2009:dgNarrowPhaseCollision.obj
 0001:0001d1f0       ?CreateBox@dgWorld@@QAEPAVdgCollision@@NNNHABVdgMatrix@@@Z 1001e1f0 f   physics_2009:dgNarrowPhaseCollision.obj
 0001:0001d350       ?CreateSphere@dgWorld@@QAEPAVdgCollision@@NHABVdgMatrix@@@Z 1001e350 f   physics_2009:dgNarrowPhaseCollision.obj
 0001:0001d460       ?CreateEllipse@dgWorld@@QAEPAVdgCollision@@NNNHABVdgMatrix@@@Z 1001e460 f   physics_2009:dgNarrowPhaseCollision.obj
 0001:0001d5b0       ?CreateCapsule@dgWorld@@QAEPAVdgCollision@@NNHABVdgMatrix@@@Z 1001e5b0 f   physics_2009:dgNarrowPhaseCollision.obj
 0001:0001d6e0       ?CreateCone@dgWorld@@QAEPAVdgCollision@@NNHABVdgMatrix@@@Z 1001e6e0 f   physics_2009:dgNarrowPhaseCollision.obj
 0001:0001d810       ?CreateCylinder@dgWorld@@QAEPAVdgCollision@@NNHABVdgMatrix@@@Z 1001e810 f   physics_2009:dgNarrowPhaseCollision.obj
 0001:0001d940       ?CreateChamferCylinder@dgWorld@@QAEPAVdgCollision@@NNHABVdgMatrix@@@Z 1001e940 f   physics_2009:dgNarrowPhaseCollision.obj
 0001:0001da70       ?CreateConvexHull@dgWorld@@QAEPAVdgCollision@@HPBNHNHABVdgMatrix@@@Z 1001ea70 f   physics_2009:dgNarrowPhaseCollision.obj
 0001:0001dc50       ?CreateFromSerialization@dgWorld@@QAEPAVdgCollision@@P6AXPAX0I@Z0@Z 1001ec50 f   physics_2009:dgNarrowPhaseCollision.obj
 0001:0001df90       ?CreateBodyGroupID@dgWorld@@QAEIXZ 1001ef90 f   physics_2009:dgNarrowPhaseCollision.obj
 0001:0001e010       ?CalculateSignature@dgCollisionConvexPolygon@dgCollisionMesh@@UBEHXZ 1001f010 f   physics_2009:dgCollisionMesh.obj
 0001:0001e020       ?GetBoxMinRadius@dgCollisionConvexPolygon@dgCollisionMesh@@UBENXZ 1001f020 f   physics_2009:dgCollisionMesh.obj
 0001:0001e020       ?GetVolume@dgCollisionScene@@EBENXZ 1001f020 f   physics_2009:dgCollisionScene.obj
 0001:0001e020       ?GetVolume@dgCollisionPoint@@UBENXZ 1001f020 f   physics_2009:dgCollisionSphere.obj
 0001:0001e020       ?GetVolume@dgCollisionMesh@@UBENXZ 1001f020 f   physics_2009:dgCollisionMesh.obj
 0001:0001e020       ?GetBoxMaxRadius@dgCollisionMesh@@UBENXZ 1001f020 f   physics_2009:dgCollisionMesh.obj
 0001:0001e020       ?GetBoxMinRadius@dgCollisionScene@@EBENXZ 1001f020 f   physics_2009:dgCollisionScene.obj
 0001:0001e020       ?GetBoxMaxRadius@dgCollisionScene@@EBENXZ 1001f020 f   physics_2009:dgCollisionScene.obj
 0001:0001e020       ?GetVolume@dgCollisionConvexPolygon@dgCollisionMesh@@UBENXZ 1001f020 f   physics_2009:dgCollisionMesh.obj
 0001:0001e020       ?GetVolume@dgCollisionNull@@MBENXZ 1001f020 f   physics_2009:dgCollisionNull.obj
 0001:0001e020       ?GetBoxMinRadius@dgCollisionMesh@@UBENXZ 1001f020 f   physics_2009:dgCollisionMesh.obj
 0001:0001e020       ?GetBoxMaxRadius@dgCollisionConvexPolygon@dgCollisionMesh@@UBENXZ 1001f020 f   physics_2009:dgCollisionMesh.obj
 0001:0001e030       ??1dgCollisionMesh@@UAE@XZ 1001f030 f   physics_2009:dgCollisionMesh.obj
 0001:0001e070       ?IsTriggerVolume@dgCollision@@UBE_NXZ 1001f070 f i physics_2009:dgCollisionMesh.obj
 0001:0001e070       ?IsBilateral@dgUpVectorConstraint@@UBE_NXZ 1001f070 f i physics_2009:dgUpVectorConstraint.obj
 0001:0001e070       ?IsBilateral@dgConstraint@@MBE_NXZ 1001f070 f i physics_2009:dgConstraint.obj
 0001:0001e080       ?SetCollisionCallback@dgCollisionMesh@@QAEXP6AXPBVdgBody@@0HHPBNH@Z@Z 1001f080 f   physics_2009:dgCollisionMesh.obj
 0001:0001e090       ?SetCollisionRayCastCallback@dgCollisionMesh@@QAEXP6ANNPANHPAX@Z@Z 1001f090 f   physics_2009:dgCollisionMesh.obj
 0001:0001e0a0       ?CalcAABBSimD@dgCollisionNull@@MBEXABVdgMatrix@@AAVdgVector@@1@Z 1001f0a0 f   physics_2009:dgCollisionNull.obj
 0001:0001e0a0       ?CalcAABBSimD@dgCollisionMesh@@EBEXABVdgMatrix@@AAVdgVector@@1@Z 1001f0a0 f   physics_2009:dgCollisionMesh.obj
 0001:0001e0a0       ?CalcAABBSimD@dgCollisionScene@@EBEXABVdgMatrix@@AAVdgVector@@1@Z 1001f0a0 f   physics_2009:dgCollisionScene.obj
 0001:0001e0b0       ?SupportVertex@dgCollisionConvexPolygon@dgCollisionMesh@@UBE?AVdgVector@@ABV3@@Z 1001f0b0 f   physics_2009:dgCollisionMesh.obj
 0001:0001e210       ?CalculatePlaneIntersection@dgCollisionConvexPolygon@dgCollisionMesh@@UBEHABVdgVector@@0QAV3@@Z 1001f210 f   physics_2009:dgCollisionMesh.obj
 0001:0001ea60       ??_EdgCollisionMesh@@UAEPAXI@Z 1001fa60 f i physics_2009:dgCollisionMesh.obj
 0001:0001ea60       ??_GdgCollisionMesh@@UAEPAXI@Z 1001fa60 f i physics_2009:dgCollisionMesh.obj
 0001:0001ea80       ??0dgCollisionConvexPolygon@dgCollisionMesh@@QAE@XZ 1001fa80 f   physics_2009:dgCollisionMesh.obj
 0001:0001eb10       ??_GdgCollisionConvexPolygon@dgCollisionMesh@@UAEPAXI@Z 1001fb10 f i physics_2009:dgCollisionMesh.obj
 0001:0001eb10       ??_EdgCollisionConvexPolygon@dgCollisionMesh@@UAEPAXI@Z 1001fb10 f i physics_2009:dgCollisionMesh.obj
 0001:0001eb30       ?CalculateNormal@dgCollisionConvexPolygon@dgCollisionMesh@@QAEXXZ 1001fb30 f   physics_2009:dgCollisionMesh.obj
 0001:0001ec70       ?ClipContacts@dgCollisionConvexPolygon@dgCollisionMesh@@QBEHHQAVdgContactPoint@@ABVdgMatrix@@@Z 1001fc70 f   physics_2009:dgCollisionMesh.obj
 0001:0001f3f0       ?ClosestDistanceToTriangle@dgCollisionConvexPolygon@dgCollisionMesh@@QBE?AVdgVector@@ABV3@000@Z 100203f0 f   physics_2009:dgCollisionMesh.obj
 0001:0001f7a0       ?PointToPolygonDistance@dgCollisionConvexPolygon@dgCollisionMesh@@QAE_NABVdgVector@@NAAV3@@Z 100207a0 f   physics_2009:dgCollisionMesh.obj
 0001:0001f970       ?DistanceToOrigen@dgCollisionConvexPolygon@dgCollisionMesh@@QAE_NABVdgMatrix@@ABVdgVector@@NAAV4@@Z 10020970 f   physics_2009:dgCollisionMesh.obj
 0001:0001fdb0       ?MovingPointToPolygonContact@dgCollisionConvexPolygon@dgCollisionMesh@@QAENABVdgVector@@0NAAVdgContactPoint@@@Z 10020db0 f   physics_2009:dgCollisionMesh.obj
 0001:00020500       ?CalcAABB@dgCollisionScene@@EBEXABVdgMatrix@@AAVdgVector@@1@Z 10021500 f   physics_2009:dgCollisionScene.obj
 0001:00020500       ?CalcAABB@dgCollisionMesh@@EBEXABVdgMatrix@@AAVdgVector@@1@Z 10021500 f   physics_2009:dgCollisionMesh.obj
 0001:000206f0       ?QuickTestContinue@dgCollisionConvexPolygon@dgCollisionMesh@@QAEHPBVdgConvexCollision@@ABVdgMatrix@@@Z 100216f0 f   physics_2009:dgCollisionMesh.obj
 0001:00020940       ?QuickTest@dgCollisionConvexPolygon@dgCollisionMesh@@QAEHPBVdgConvexCollision@@ABVdgMatrix@@@Z 10021940 f   physics_2009:dgCollisionMesh.obj
 0001:00020c80       ??0dgCollisionMesh@@QAE@W4dgCollisionID@@@Z 10021c80 f   physics_2009:dgCollisionMesh.obj
 0001:00020d40       ??0dgCollisionMesh@@QAE@PAVdgWorld@@P6AXPAX1I@Z1@Z 10021d40 f   physics_2009:dgCollisionMesh.obj
 0001:00020e00       ??0dgCollisionBVH@@QAE@XZ  10021e00 f   physics_2009:dgCollisionBVH.obj
 0001:00020e40       ?Serialize@dgCollisionBVH@@EBEXP6AXPAXPBXI@Z0@Z 10021e40 f   physics_2009:dgCollisionBVH.obj
 0001:00020e70       ?AddFace@dgCollisionBVH@@QAEXHQBNHH@Z 10021e70 f   physics_2009:dgCollisionBVH.obj
 0001:00020ee0       ?CollectVertexListIndexList@dgCollisionBVH@@CA?AW4dgIntersectStatus@@PAXQBNHQBHH@Z 10021ee0 f   physics_2009:dgCollisionBVH.obj
 0001:00020f80       ?GetTriangleCount@dgCollisionBVH@@CA?AW4dgIntersectStatus@@PAXQBNHQBHH@Z 10021f80 f   physics_2009:dgCollisionBVH.obj
 0001:00020fb0       ?SupportVertex@dgCollisionBVH@@EBE?AVdgVector@@ABV2@@Z 10021fb0 f   physics_2009:dgCollisionBVH.obj
 0001:00020fe0       ??_EdgCollisionBVH@@WBCA@AEPAXI@Z 10021fe0 f i physics_2009:dgCollisionBVH.obj
 0001:00020ff0       ?Serialize@dgCollisionBVH@@GBCA@BEXP6AXPAXPBXI@Z0@Z 10021ff0 f i physics_2009:dgCollisionBVH.obj
 0001:00021000       ??_GdgCollisionBVH@@UAEPAXI@Z 10022000 f i physics_2009:dgCollisionBVH.obj
 0001:00021000       ??_EdgCollisionBVH@@UAEPAXI@Z 10022000 f i physics_2009:dgCollisionBVH.obj
 0001:00021040       ?BeginBuild@dgCollisionBVH@@QAEXXZ 10022040 f   physics_2009:dgCollisionBVH.obj
 0001:00021080       ?GetVertexListIndexList@dgCollisionBVH@@UBEXABVdgVector@@0AAVdgGetVertexListIndexList@dgCollisionMesh@@@Z 10022080 f   physics_2009:dgCollisionBVH.obj
 0001:000210d0       ??0dgCollisionBVH@@QAE@PAVdgWorld@@P6AXPAX1I@Z1@Z 100220d0 f   physics_2009:dgCollisionBVH.obj
 0001:00021160       ?EndBuild@dgCollisionBVH@@QAEXH@Z 10022160 f   physics_2009:dgCollisionBVH.obj
 0001:000211f0       ?GetCollisionInfo@dgCollisionBVH@@EBEXPAVdgCollisionInfo@@@Z 100221f0 f   physics_2009:dgCollisionBVH.obj
 0001:000212b0       ?RayHitSimd@dgCollisionBVH@@CANPAXQBNHQBHH@Z 100222b0 f   physics_2009:dgCollisionBVH.obj
 0001:00021420       ?RayHit@dgCollisionBVH@@CANPAXQBNHQBHH@Z 10022420 f   physics_2009:dgCollisionBVH.obj
 0001:00021590       ?RayHitUserSimd@dgCollisionBVH@@CANPAXQBNHQBHH@Z 10022590 f   physics_2009:dgCollisionBVH.obj
 0001:00021690       ?RayHitUser@dgCollisionBVH@@CANPAXQBNHQBHH@Z 10022690 f   physics_2009:dgCollisionBVH.obj
 0001:000217f0       ?RayCastSimd@dgCollisionBVH@@EBENABVdgVector@@0AAVdgContactPoint@@P6AIPBVdgBody@@PBVdgCollision@@PAX@Z24@Z 100227f0 f   physics_2009:dgCollisionBVH.obj
 0001:00021a20       ?RayCast@dgCollisionBVH@@EBENABVdgVector@@0AAVdgContactPoint@@P6AIPBVdgBody@@PBVdgCollision@@PAX@Z24@Z 10022a20 f   physics_2009:dgCollisionBVH.obj
 0001:00021c50       ?GetPolygon@dgCollisionBVH@@CA?AW4dgIntersectStatus@@PAXQBNHQBHH@Z 10022c50 f   physics_2009:dgCollisionBVH.obj
 0001:00022070       ?GetCollidingFacesSimd@dgCollisionBVH@@EBEXQAVdgPolygonMeshDesc@@@Z 10023070 f   physics_2009:dgCollisionBVH.obj
 0001:000220e0       ?GetCollidingFaces@dgCollisionBVH@@EBEXQAVdgPolygonMeshDesc@@@Z 100230e0 f   physics_2009:dgCollisionBVH.obj
 0001:00022150       ?ShowDebugPolygon@dgCollisionBVH@@CA?AW4dgIntersectStatus@@PAXQBNHQBHH@Z 10023150 f   physics_2009:dgCollisionBVH.obj
 0001:000223f0       ?DebugCollision@dgCollisionBVH@@EBEXABVdgMatrix@@P6AXPAXHPBNH@Z1@Z 100233f0 f   physics_2009:dgCollisionBVH.obj
 0001:00022480       ??_GdgSceneNode@dgCollisionScene@@QAEPAXI@Z 10023480 f i physics_2009:dgCollisionScene.obj
 0001:000224d0       ?CalculateSignature@dgCollisionMesh@@EBEHXZ 100234d0 f   physics_2009:dgCollisionMesh.obj
 0001:000224d0       ?CalculateSignature@dgCollisionScene@@EBEHXZ 100234d0 f   physics_2009:dgCollisionScene.obj
 0001:000224d0       ?dgGetCpuType@@YA?AW4dgCpuClass@@XZ 100234d0 f   corelib_2009:dgTypes.obj
 0001:000224d0       ?CalculateSignature@dgCompoundCollision@@EBEHXZ 100234d0 f   physics_2009:dgCompoundCollision.obj
 0001:000224d0       ?GetUserData@dgCollision@@UBEPAXXZ 100234d0 f   physics_2009:dgCollision.obj
 0001:000224d0       ?GetUserData@dgCollisionMesh@@UBEPAXXZ 100234d0 f   physics_2009:dgCollisionMesh.obj
 0001:000224d0       ?GetPerformanceCount@dgWorld@@CAIXZ 100234d0 f   physics_2009:dgWorld.obj
 0001:000224d0       ?CalculateSignature@dgCollisionConvexModifier@@EBEHXZ 100234d0 f   physics_2009:dgCollisionConvexModifier.obj
 0001:000224e0       ?UpdateAABB@dgSceneNode@dgCollisionScene@@QAEXABVdgVector@@0@Z 100234e0 f i physics_2009:dgCollisionScene.obj
 0001:00022580       ?Serialize@dgCollisionScene@@EBEXP6AXPAXPBXI@Z0@Z 10023580 f   physics_2009:dgCollisionScene.obj
 0001:00022720       ?SetProxyMatrix@dgCollisionScene@@QAEXPAXABVdgMatrix@@@Z 10023720 f   physics_2009:dgCollisionScene.obj
 0001:00022780       ?SetCollisionCallback@dgCollisionScene@@QAEXP6AXPBVdgBody@@0HHPBNH@Z@Z 10023780 f   physics_2009:dgCollisionScene.obj
 0001:000227c0       ?DebugCollision@dgCollisionScene@@EBEXABVdgMatrix@@P6AXPAXHPBNH@Z1@Z 100237c0 f   physics_2009:dgCollisionScene.obj
 0001:00022840       ?GetCollisionInfo@dgCollisionScene@@EBEXPAVdgCollisionInfo@@@Z 10023840 f   physics_2009:dgCollisionScene.obj
 0001:00022880       ?RemoveAll@?$dgList@UdgProxy@dgCollisionScene@@@@QAEXXZ 10023880 f i physics_2009:dgCollisionScene.obj
 0001:000228f0       ?Unlink@?$dgList@UdgProxy@dgCollisionScene@@@@QAEXPAVdgListNode@1@@Z 100238f0 f i physics_2009:dgCollisionScene.obj
 0001:00022960       ?GetProxyMatrix@dgCollisionScene@@QAE?AVdgMatrix@@PAX@Z 10023960 f   physics_2009:dgCollisionScene.obj
 0001:00022ab0       ?SetCollisionBBox@dgCollisionMesh@@MAEXABVdgVector@@0@Z 10023ab0 f   physics_2009:dgCollisionMesh.obj
 0001:00022ab0       ?SetCollisionBBox@dgCollisionScene@@EAEXABVdgVector@@0@Z 10023ab0 f   physics_2009:dgCollisionScene.obj
 0001:00022b40       ?GetAxis@dgCollisionScene@@ABEHQAPAVdgListNode@?$dgList@UdgProxy@dgCollisionScene@@@@H@Z 10023b40 f   physics_2009:dgCollisionScene.obj
 0001:00022f00       ?RayCastSimd@dgCollisionScene@@EBENABVdgVector@@0AAVdgContactPoint@@P6AIPBVdgBody@@PBVdgCollision@@PAX@Z24@Z 10023f00 f   physics_2009:dgCollisionScene.obj
 0001:00023390       ?RayCast@dgCollisionScene@@EBENABVdgVector@@0AAVdgContactPoint@@P6AIPBVdgBody@@PBVdgCollision@@PAX@Z24@Z 10024390 f   physics_2009:dgCollisionScene.obj
 0001:00023820       ?CollidePairSimd@dgCollisionScene@@QBEXQAUdgPair@dgCollidingPairCollector@@AAVdgCollisionParamProxi@@@Z 10024820 f   physics_2009:dgCollisionScene.obj
 0001:000239a0       ?CollidePair@dgCollisionScene@@QBEXQAUdgPair@dgCollidingPairCollector@@AAVdgCollisionParamProxi@@@Z 100249a0 f   physics_2009:dgCollisionScene.obj
 0001:00023e30       ?SortAABBBoxes@dgCollisionScene@@ABEHQAPAVdgListNode@?$dgList@UdgProxy@dgCollisionScene@@@@H@Z 10024e30 f   physics_2009:dgCollisionScene.obj
 0001:00023fa0       ?SortAndSpliteSplite@dgCollisionScene@@ABEHQAPAVdgListNode@?$dgList@UdgProxy@dgCollisionScene@@@@H@Z 10024fa0 f   physics_2009:dgCollisionScene.obj
 0001:000241d0       ?BuildTree@dgCollisionScene@@AAEPAUdgSceneNode@1@PAU21@QAPAVdgListNode@?$dgList@UdgProxy@dgCollisionScene@@@@HH@Z 100251d0 f   physics_2009:dgCollisionScene.obj
 0001:000242f0       ??0dgListNode@?$dgList@UdgProxy@dgCollisionScene@@@@AAE@PAV01@0@Z 100252f0 f i physics_2009:dgCollisionScene.obj
 0001:00024340       ??0dgCollisionScene@@QAE@PAVdgWorld@@@Z 10025340 f   physics_2009:dgCollisionScene.obj
 0001:000243d0       ??1dgCollisionScene@@UAE@XZ 100253d0 f   physics_2009:dgCollisionScene.obj
 0001:00024450       ?RemoveProxy@dgCollisionScene@@QAEXPAX@Z 10025450 f   physics_2009:dgCollisionScene.obj
 0001:00024490       ?Append@?$dgList@UdgProxy@dgCollisionScene@@@@QAEPAVdgListNode@1@XZ 10025490 f i physics_2009:dgCollisionScene.obj
 0001:00024520       ??_GdgCollisionScene@@UAEPAXI@Z 10025520 f i physics_2009:dgCollisionScene.obj
 0001:00024520       ??_EdgCollisionScene@@UAEPAXI@Z 10025520 f i physics_2009:dgCollisionScene.obj
 0001:00024540       ?AddProxy@dgCollisionScene@@QAEPAXPAVdgCollision@@@Z 10025540 f   physics_2009:dgCollisionScene.obj
 0001:00024590       ?BuildTree@dgCollisionScene@@QAEXXZ 10025590 f   physics_2009:dgCollisionScene.obj
 0001:00024700       ??0dgCollisionScene@@QAE@PAVdgWorld@@P6AXPAX1I@Z1@Z 10025700 f   physics_2009:dgCollisionScene.obj
 0001:000249b0       ?SetAparentMassMatrix@dgBody@@QAEXABVdgVector@@@Z 100259b0 f   physics_2009:dgBody.obj
 0001:00024a20       ?BeginFace@dgPolyhedra@@QAEXXZ 10025a20 f   corelib_2009:dgPolyhedra.obj
 0001:00024a20       ??3@YAXPAX@Z               10025a20 f   NewtonStdAfx.obj
 0001:00024a20       ??1dgBody@@QAE@XZ          10025a20 f   physics_2009:dgBody.obj
 0001:00024a20       ?Init@dgBilateralConstraint@@MAEXXZ 10025a20 f   NewtonClass.obj
 0001:00024a20       ?CalcInvInertiaMatrixSimD@dgBody@@QAEXXZ 10025a20 f   physics_2009:dgBody.obj
 0001:00024a20       ??1dgCollidingPairCollector@@QAE@XZ 10025a20 f   physics_2009:dgContact.obj
 0001:00024a30       ??DdgQuaternion@@QBE?AV0@ABV0@@Z 10025a30 f i physics_2009:dgBody.obj
 0001:00024ac0       ?AddBuoyancyForce@dgBody@@QAEXNNNABVdgVector@@P6AIPAX1ABVdgMatrix@@AAVdgPlane@@@Z1@Z 10025ac0 f   physics_2009:dgBody.obj
 0001:00024d60       ?CalcInvInertiaMatrix@dgBody@@QAEXXZ 10025d60 f   physics_2009:dgBody.obj
 0001:00024e30       ?CalculateInverseDynamicForce@dgBody@@QBE?AVdgVector@@ABV2@N@Z 10025e30 f   physics_2009:dgBody.obj
 0001:00024ea0       ?GetFirstJoint@dgBody@@QBEPAVdgConstraint@@XZ 10025ea0 f   physics_2009:dgBody.obj
 0001:00024ed0       ?GetNextJoint@dgBody@@QBEPAVdgConstraint@@PAV2@@Z 10025ed0 f   physics_2009:dgBody.obj
 0001:00024f10       ?GetFirstContact@dgBody@@QBEPAVdgConstraint@@XZ 10025f10 f   physics_2009:dgBody.obj
 0001:00024f40       ?GetNextContact@dgBody@@QBEPAVdgConstraint@@PAV2@@Z 10025f40 f   physics_2009:dgBody.obj
 0001:00024f80       ?Freeze@dgBody@@QAEXXZ     10025f80 f   physics_2009:dgBody.obj
 0001:00024fd0       ?Unfreeze@dgBody@@QAEXXZ   10025fd0 f   physics_2009:dgBody.obj
 0001:00025020       ?AddImpulse@dgBody@@AAEXABVdgVector@@0@Z 10026020 f   physics_2009:dgBody.obj
 0001:00025410       ?RotateToEnd@?$dgList@VdgBodyMasterListRow@@@@QAEXPAVdgListNode@1@@Z 10026410 f i physics_2009:dgBody.obj
 0001:00025470       ?InsertAfter@?$dgList@VdgBodyMasterListRow@@@@QAEXPAVdgListNode@1@0@Z 10026470 f i physics_2009:dgBody.obj
 0001:000254e0       ??0dgBody@@QAE@XZ          100264e0 f   physics_2009:dgBody.obj
 0001:00025500       ?SetMassMatrix@dgBody@@QAEXNNNN@Z 10026500 f   physics_2009:dgBody.obj
 0001:00025610       ?UpdateCollisionMatrix@dgBody@@AAEXNH@Z 10026610 f   physics_2009:dgBody.obj
 0001:00025a80       ?RayCast@dgBody@@QBENABUdgLineBox@@P6ANPBV1@ABVdgVector@@HPAXN@ZP6AI1PBVdgCollision@@3@Z3N@Z 10026a80 f   physics_2009:dgBody.obj
 0001:00025cc0       ?UpdateMatrix@dgBody@@AAEXNH@Z 10026cc0 f   physics_2009:dgBody.obj
 0001:00025d00       ?IntegrateVelocity@dgBody@@AAEXN@Z 10026d00 f   physics_2009:dgBody.obj
 0001:00025ff0       ?CalculateContinueVelocity@dgBody@@ABEXNAAVdgVector@@0@Z 10026ff0 f   physics_2009:dgBody.obj
 0001:00026140       ?SetFreeze@dgBody@@QAEX_N@Z 10027140 f   physics_2009:dgBody.obj
 0001:00026160       ?SetMatrix@dgBody@@QAEXABVdgMatrix@@@Z 10027160 f   physics_2009:dgBody.obj
 0001:00026250       ?SetMatrixIgnoreSleep@dgBody@@QAEXABVdgMatrix@@@Z 10027250 f   physics_2009:dgBody.obj
 0001:000262f0       ?AttachCollision@dgBody@@QAEXPAVdgCollision@@@Z 100272f0 f   physics_2009:dgBody.obj
 0001:00026410       ?SetJointParameterCallBack@dgBallConstraint@@QAEXP6AIABV1@N@Z@Z 10027410 f   physics_2009:dgBallConstraint.obj
 0001:00026420       ?GetJointAngle@dgBallConstraint@@QBE?AVdgVector@@XZ 10027420 f   physics_2009:dgBallConstraint.obj
 0001:00026440       ?SetTwistLimitState@dgBallConstraint@@QAEX_N@Z 10027440 f   physics_2009:dgBallConstraint.obj
 0001:00026460       ?SetConeLimitState@dgBallConstraint@@QAEX_N@Z 10027460 f   physics_2009:dgBallConstraint.obj
 0001:00026480       ?SetLatealLimitState@dgBallConstraint@@QAEX_N@Z 10027480 f   physics_2009:dgBallConstraint.obj
 0001:000264a0       ??_EdgBallConstraint@@EAEPAXI@Z 100274a0 f i physics_2009:dgBallConstraint.obj
 0001:000264a0       ??_GdgBallConstraint@@EAEPAXI@Z 100274a0 f i physics_2009:dgBallConstraint.obj
 0001:000264d0       ??0dgBallConstraint@@AAE@XZ 100274d0 f   physics_2009:dgBallConstraint.obj
 0001:00026530       ?GetJointOmega@dgBallConstraint@@QBE?AVdgVector@@XZ 10027530 f   physics_2009:dgBallConstraint.obj
 0001:00026690       ?GetJointForce@dgBallConstraint@@QBE?AVdgVector@@XZ 10027690 f   physics_2009:dgBallConstraint.obj
 0001:00026740       ?SetLimits@dgBallConstraint@@QAEXABVdgVector@@NNN0NN@Z 10027740 f   physics_2009:dgBallConstraint.obj
 0001:00026e30       ?JacobianDerivative@dgBallConstraint@@EAEIAAVdgContraintDescritor@@@Z 10027e30 f   physics_2009:dgBallConstraint.obj
 0001:00027510       ?SetPivotPoint@dgBallConstraint@@AAEXABVdgVector@@@Z 10028510 f   physics_2009:dgBallConstraint.obj
 0001:000275f0       ??0dgHingeConstraint@@AAE@XZ 100285f0 f   physics_2009:dgHingeConstraint.obj
 0001:00027630       ??_EdgHingeConstraint@@EAEPAXI@Z 10028630 f i physics_2009:dgHingeConstraint.obj
 0001:00027630       ??_GdgHingeConstraint@@EAEPAXI@Z 10028630 f i physics_2009:dgHingeConstraint.obj
 0001:00027660       ?GetJointOmega@dgCorkscrewConstraint@@QBENXZ 10028660 f   physics_2009:dgCorkscrewConstraint.obj
 0001:00027660       ?GetJointOmega0@dgUniversalConstraint@@QBENXZ 10028660 f   physics_2009:dgUniversalConstraint.obj
 0001:00027660       ?GetJointOmega@dgHingeConstraint@@QBENXZ 10028660 f   physics_2009:dgHingeConstraint.obj
 0001:000276e0       ?CalculateStopAlpha@dgHingeConstraint@@QBENNPBVdgJointCallBackParam@@@Z 100286e0 f   physics_2009:dgHingeConstraint.obj
 0001:00027790       ?GetJointForce@dgHingeConstraint@@QBE?AVdgVector@@XZ 10028790 f   physics_2009:dgHingeConstraint.obj
 0001:000278f0       ?JacobianDerivative@dgHingeConstraint@@EAEIAAVdgContraintDescritor@@@Z 100288f0 f   physics_2009:dgHingeConstraint.obj
 0001:00027bb0       ??0dgSlidingConstraint@@AAE@XZ 10028bb0 f   physics_2009:dgSlidingConstraint.obj
 0001:00027bf0       ?SetJointParameterCallBack@dgSlidingConstraint@@QAEXP6AIABV1@PAVdgJointCallBackParam@@@Z@Z 10028bf0 f   physics_2009:dgSlidingConstraint.obj
 0001:00027bf0       ?SetJointParameterCallBack@dgHingeConstraint@@QAEXP6AIABV1@PAVdgJointCallBackParam@@@Z@Z 10028bf0 f   physics_2009:dgHingeConstraint.obj
 0001:00027c00       ??_GdgSlidingConstraint@@EAEPAXI@Z 10028c00 f i physics_2009:dgSlidingConstraint.obj
 0001:00027c00       ??_EdgSlidingConstraint@@EAEPAXI@Z 10028c00 f i physics_2009:dgSlidingConstraint.obj
 0001:00027c30       ?CalculateStopAccel@dgSlidingConstraint@@QBENNPBVdgJointCallBackParam@@@Z 10028c30 f   physics_2009:dgSlidingConstraint.obj
 0001:00027cd0       ?GetJointForce@dgSlidingConstraint@@QBE?AVdgVector@@XZ 10028cd0 f   physics_2009:dgSlidingConstraint.obj
 0001:00027e00       ?JacobianDerivative@dgSlidingConstraint@@EAEIAAVdgContraintDescritor@@@Z 10028e00 f   physics_2009:dgSlidingConstraint.obj
 0001:00028350       ??0dgCorkscrewConstraint@@AAE@XZ 10029350 f   physics_2009:dgCorkscrewConstraint.obj
 0001:00028390       ?GetJointAngle0@dgUniversalConstraint@@QBENXZ 10029390 f   physics_2009:dgUniversalConstraint.obj
 0001:00028390       ?GetJointPosit@dgSlidingConstraint@@QBENXZ 10029390 f   physics_2009:dgSlidingConstraint.obj
 0001:00028390       ?GetJointAngle@dgCorkscrewConstraint@@QBENXZ 10029390 f   physics_2009:dgCorkscrewConstraint.obj
 0001:00028390       ?GetJointAngle@dgHingeConstraint@@QBENXZ 10029390 f   physics_2009:dgHingeConstraint.obj
 0001:000283a0       ?GetJointPosit@dgCorkscrewConstraint@@QBENXZ 100293a0 f   physics_2009:dgCorkscrewConstraint.obj
 0001:000283a0       ?GetJointAngle1@dgUniversalConstraint@@QBENXZ 100293a0 f   physics_2009:dgUniversalConstraint.obj
 0001:000283b0       ??_GdgCorkscrewConstraint@@EAEPAXI@Z 100293b0 f i physics_2009:dgCorkscrewConstraint.obj
 0001:000283b0       ??_EdgCorkscrewConstraint@@EAEPAXI@Z 100293b0 f i physics_2009:dgCorkscrewConstraint.obj
 0001:000283e0       ?GetJointVeloc@dgCorkscrewConstraint@@QBENXZ 100293e0 f   physics_2009:dgCorkscrewConstraint.obj
 0001:000283e0       ?GetJointVeloc@dgSlidingConstraint@@QBENXZ 100293e0 f   physics_2009:dgSlidingConstraint.obj
 0001:00028460       ?CalculateStopAlpha0@dgUniversalConstraint@@QBENNPBVdgJointCallBackParam@@@Z 10029460 f   physics_2009:dgUniversalConstraint.obj
 0001:00028460       ?CalculateStopAlpha@dgCorkscrewConstraint@@QBENNPBVdgJointCallBackParam@@@Z 10029460 f   physics_2009:dgCorkscrewConstraint.obj
 0001:00028500       ?CalculateStopAccel@dgCorkscrewConstraint@@QBENNPBVdgJointCallBackParam@@@Z 10029500 f   physics_2009:dgCorkscrewConstraint.obj
 0001:000285a0       ?JacobianDerivative@dgCorkscrewConstraint@@EAEIAAVdgContraintDescritor@@@Z 100295a0 f   physics_2009:dgCorkscrewConstraint.obj
 0001:00028a90       ??0dgUniversalConstraint@@AAE@XZ 10029a90 f   physics_2009:dgUniversalConstraint.obj
 0001:00028ad0       ?SetJointParameterCallBack@dgUniversalConstraint@@QAEXP6AIABV1@PAVdgJointCallBackParam@@@Z@Z 10029ad0 f   physics_2009:dgUniversalConstraint.obj
 0001:00028ad0       ?SetJointParameterCallBack@dgCorkscrewConstraint@@QAEXP6AIABV1@PAVdgJointCallBackParam@@@Z@Z 10029ad0 f   physics_2009:dgCorkscrewConstraint.obj
 0001:00028ae0       ??_EdgUniversalConstraint@@EAEPAXI@Z 10029ae0 f i physics_2009:dgUniversalConstraint.obj
 0001:00028ae0       ??_GdgUniversalConstraint@@EAEPAXI@Z 10029ae0 f i physics_2009:dgUniversalConstraint.obj
 0001:00028b10       ?GetJointOmega1@dgUniversalConstraint@@QBENXZ 10029b10 f   physics_2009:dgUniversalConstraint.obj
 0001:00028bb0       ?CalculateStopAlpha1@dgUniversalConstraint@@QBENNPBVdgJointCallBackParam@@@Z 10029bb0 f   physics_2009:dgUniversalConstraint.obj
 0001:00028c50       ?GetJointForce@dgCorkscrewConstraint@@QBE?AVdgVector@@XZ 10029c50 f   physics_2009:dgCorkscrewConstraint.obj
 0001:00028c50       ?GetJointForce@dgUniversalConstraint@@QBE?AVdgVector@@XZ 10029c50 f   physics_2009:dgUniversalConstraint.obj
 0001:00028d50       ?JacobianDerivative@dgUniversalConstraint@@EAEIAAVdgContraintDescritor@@@Z 10029d50 f   physics_2009:dgUniversalConstraint.obj
 0001:000292b0       ??0dgUpVectorConstraint@@AAE@XZ 1002a2b0 f   physics_2009:dgUpVectorConstraint.obj
 0001:000292f0       ?InitPinDir@dgUpVectorConstraint@@QAEXABVdgVector@@@Z 1002a2f0 f   physics_2009:dgUpVectorConstraint.obj
 0001:00029330       ?GetPinDir@dgUpVectorConstraint@@QBE?AVdgVector@@XZ 1002a330 f   physics_2009:dgUpVectorConstraint.obj
 0001:00029350       ??_GdgUpVectorConstraint@@EAEPAXI@Z 1002a350 f i physics_2009:dgUpVectorConstraint.obj
 0001:00029350       ??_EdgUpVectorConstraint@@EAEPAXI@Z 1002a350 f i physics_2009:dgUpVectorConstraint.obj
 0001:00029380       ?SetPinDir@dgUpVectorConstraint@@QAEXABVdgVector@@@Z 1002a380 f   physics_2009:dgUpVectorConstraint.obj
 0001:000294f0       ?JacobianDerivative@dgUpVectorConstraint@@EAEIAAVdgContraintDescritor@@@Z 1002a4f0 f   physics_2009:dgUpVectorConstraint.obj
 0001:000296e0       ?GetUserData@dgConstraint@@QBEPAXXZ 1002a6e0 f   physics_2009:dgConstraint.obj
 0001:000296f0       ?SetUserData@dgConstraint@@QAEXPAX@Z 1002a6f0 f   physics_2009:dgConstraint.obj
 0001:00029700       ?InitInfo@dgConstraint@@IBEXPAVdgConstraintInfo@@@Z 1002a700 f   physics_2009:dgConstraint.obj
 0001:00029790       ?InitPointParam@dgConstraint@@IBEXAAVdgPointParam@1@NABVdgVector@@1@Z 1002a790 f   physics_2009:dgConstraint.obj
 0001:00029a00       ??0dgCollisionConvexHull@@QAE@PAVdgWorld@@P6AXPAX1I@Z1@Z 1002aa00 f   physics_2009:dgCollisionConvexHull.obj
 0001:00029b90       ?GetFaceIndices@dgCollisionConvexHull@@QBEHHPAH@Z 1002ab90 f   physics_2009:dgCollisionConvexHull.obj
 0001:00029bc0       ?CalculateSignature@dgCollisionConvexHull@@EBEHXZ 1002abc0 f   physics_2009:dgCollisionConvexHull.obj
 0001:00029bc0       ?CalculateSignature@dgCollisionNull@@EBEHXZ 1002abc0 f   physics_2009:dgCollisionNull.obj
 0001:00029bd0       ?GetCollisionInfo@dgCollisionConvexHull@@EBEXPAVdgCollisionInfo@@@Z 1002abd0 f   physics_2009:dgCollisionConvexHull.obj
 0001:00029c30       ?Serialize@dgCollisionConvexHull@@EBEXP6AXPAXPBXI@Z0@Z 1002ac30 f   physics_2009:dgCollisionConvexHull.obj
 0001:00029d60       ??_EdgCollisionConvexHull@@UAEPAXI@Z 1002ad60 f i physics_2009:dgCollisionConvexHull.obj
 0001:00029d60       ??_GdgCollisionConvexHull@@UAEPAXI@Z 1002ad60 f i physics_2009:dgCollisionConvexHull.obj
 0001:00029da0       ?BruteForceSupportVertex@dgCollisionConvexHull@@ABEHHPAVdgVector@@ABV2@@Z 1002ada0 f   physics_2009:dgCollisionConvexHull.obj
 0001:00029ec0       ?DebugCollision@dgCollisionConvexHull@@EBEXABVdgMatrix@@P6AXPAXHPBNH@Z1@Z 1002aec0 f   physics_2009:dgCollisionConvexHull.obj
 0001:00029fd0       ?OOBBTest@dgCollisionConvexHull@@EBE_NABVdgMatrix@@QBVdgConvexCollision@@PAX@Z 1002afd0 f   physics_2009:dgCollisionConvexHull.obj
 0001:0002a380       ?FaceNormal@dgCollisionConvexHull@@ABE?AVdgVector@@PBVdgEdge@@PBV2@@Z 1002b380 f   physics_2009:dgCollisionConvexHull.obj
 0001:0002a510       ?RemoveCoplanarEdge@dgCollisionConvexHull@@ABE_NAAVdgPolyhedra@@QAVdgVector@@@Z 1002b510 f   physics_2009:dgCollisionConvexHull.obj
 0001:0002a990       ?Create@dgCollisionConvexHull@@AAE_NHHPBNN@Z 1002b990 f   physics_2009:dgCollisionConvexHull.obj
 0001:0002c0c0       ??0dgCollisionConvexHull@@QAE@IHHNPBNABVdgMatrix@@@Z 1002d0c0 f   physics_2009:dgCollisionConvexHull.obj
 0001:0002c440       ?Realloc@dgBroadPhaseCalculateContactsWorkerThread@@QAEXHHH@Z 1002d440 f   physics_2009:dgBroadPhaseCollision.obj
 0001:0002c530       ?ThreadExecute@dgBroadPhaseCalculateContactsWorkerThread@@UAEXXZ 1002d530 f   physics_2009:dgBroadPhaseCollision.obj
 0001:0002c6d0       ?ThreadExecute@dgBroadPhaseMaterialCallbackWorkerThread@@UAEXXZ 1002d6d0 f   physics_2009:dgBroadPhaseCollision.obj
 0001:0002c7a0       ?RayCast@dgSortArray@@QBENNABUdgLineBox@@P6ANPBVdgBody@@ABVdgVector@@HPAXN@ZP6AI1PBVdgCollision@@3@Z3@Z 1002d7a0 f   physics_2009:dgBroadPhaseCollision.obj
 0001:0002c840       ?UpdateAutoPair@dgBroadPhaseCell@@AAEXPAVdgWorld@@H@Z 1002d840 f   physics_2009:dgBroadPhaseCollision.obj
 0001:0002c950       ?UpdatePairs@dgBroadPhaseCollision@@ABEXPAVdgBody@@PAVdgListNode@?$dgList@VdgSortArrayEntry@@@@HH@Z 1002d950 f   physics_2009:dgBroadPhaseCollision.obj
 0001:0002ca40       ?UpdatePairs@dgBroadPhaseCollision@@ABEXAAVdgBroadPhaseCell@@0H@Z 1002da40 f   physics_2009:dgBroadPhaseCollision.obj
 0001:0002cab0       ?ThreadExecute@dgBroadPhaseCellPairsWorkerThread@@UAEXXZ 1002dab0 f   physics_2009:dgBroadPhaseCollision.obj
 0001:0002cb20       ?UpdateContactsBroadPhaseEnd@dgBroadPhaseCollision@@AAEXN@Z 1002db20 f   physics_2009:dgBroadPhaseCollision.obj
 0001:0002cbc0       ?Append@?$dgList@VdgSortArrayEntry@@@@QAEPAVdgListNode@1@XZ 1002dbc0 f i physics_2009:dgBroadPhaseCollision.obj
 0001:0002cc40       ?RemoveAll@?$dgList@VdgSortArrayEntry@@@@QAEXXZ 1002dc40 f i physics_2009:dgBroadPhaseCollision.obj
 0001:0002cca0       ?ApplyExtenalForces@dgBody@@AAEXNH@Z 1002dca0 f i physics_2009:dgBroadPhaseCollision.obj
 0001:0002cd10       ?IsInEquelibrium@dgBody@@QBE_NXZ 1002dd10 f i physics_2009:dgBroadPhaseCollision.obj
 0001:0002ce90       ?Sort@dgSortArray@@QAENXZ  1002de90 f   physics_2009:dgBroadPhaseCollision.obj
 0001:0002cfc0       ?Add@dgBroadPhaseCell@@AAEXPAVdgBody@@@Z 1002dfc0 f   physics_2009:dgBroadPhaseCollision.obj
 0001:0002d080       ?InvalidateCache@dgBroadPhaseCollision@@AAEXXZ 1002e080 f   physics_2009:dgBroadPhaseCollision.obj
 0001:0002d0c0       ?ForEachBodyInAABB@dgBroadPhaseCollision@@QBEXABVdgVector@@0P6AXPAVdgBody@@@Z@Z 1002e0c0 f   physics_2009:dgBroadPhaseCollision.obj
 0001:0002d380       ?ConvexCast@dgBroadPhaseCollision@@QBEHPAVdgCollision@@ABVdgMatrix@@ABVdgVector@@AANP6AIPBVdgBody@@PBV2@PAX@Z6QAVdgConvexCastReturnInfo@@HH@Z 1002e380 f   physics_2009:dgBroadPhaseCollision.obj
 0001:0002dcb0       ?ThreadExecute@dgBroadPhaseApplyExternalForce@@UAEXXZ 1002ecb0 f   physics_2009:dgBroadPhaseCollision.obj
 0001:0002dec0       ?RayCast@dgBroadPhaseCollision@@QBEXABVdgVector@@0P6ANPBVdgBody@@0HPAXN@ZP6AI1PBVdgCollision@@2@Z2@Z 1002eec0 f   physics_2009:dgBroadPhaseCollision.obj
 0001:0002e600       ?Remove@?$dgList@VdgSortArrayEntry@@@@QAEXPAVdgListNode@1@@Z 1002f600 f i physics_2009:dgBroadPhaseCollision.obj
 0001:0002e650       ?Remove@dgBroadPhaseCell@@AAEXPAVdgBody@@@Z 1002f650 f   physics_2009:dgBroadPhaseCollision.obj
 0001:0002e6d0       ??0dgBroadPhaseCollision@@AAE@XZ 1002f6d0 f   physics_2009:dgBroadPhaseCollision.obj
 0001:0002e9d0       ??1dgBroadPhaseCollision@@AAE@XZ 1002f9d0 f   physics_2009:dgBroadPhaseCollision.obj
 0001:0002eaa0       ?Remove@dgBroadPhaseCollision@@AAEXPAVdgBody@@@Z 1002faa0 f   physics_2009:dgBroadPhaseCollision.obj
 0001:0002eb00       ?UpdateContactsBroadPhaseBegin@dgBroadPhaseCollision@@AAEIN_NI@Z 1002fb00 f   physics_2009:dgBroadPhaseCollision.obj
 0001:0002f320       ?UpdateContacts@dgBroadPhaseCollision@@AAEXN_N@Z 10030320 f   physics_2009:dgBroadPhaseCollision.obj
 0001:0002f550       ?Insert@?$dgTree@VdgBroadPhaseCell@@I@@QAEPAVdgTreeNode@1@ABVdgBroadPhaseCell@@IAA_N@Z 10030550 f i physics_2009:dgBroadPhaseCollision.obj
 0001:0002f620       ?FindCreate@dgBroadPhaseLayer@@AAEPAVdgBroadPhaseCell@@HH@Z 10030620 f   physics_2009:dgBroadPhaseCollision.obj
 0001:0002f710       ?Add@dgBroadPhaseCollision@@AAEXPAVdgBody@@@Z 10030710 f   physics_2009:dgBroadPhaseCollision.obj
 0001:0002f730       ?UpdateBodyBroadphase@dgBroadPhaseCollision@@AAEXPAVdgBody@@H@Z 10030730 f   physics_2009:dgBroadPhaseCollision.obj
 0001:0002fbc0       ?SetWorldSize@dgBroadPhaseCollision@@QAEXABVdgVector@@0@Z 10030bc0 f   physics_2009:dgBroadPhaseCollision.obj
 0001:0002fe80       ?Init@dgBroadPhaseCollision@@AAEXPAVdgWorld@@@Z 10030e80 f   physics_2009:dgBroadPhaseCollision.obj
 0001:0002fee0       ??0dgUserConstraint@@IAE@PAVdgWorld@@PAVdgBody@@1H@Z 10030ee0 f   physics_2009:dgUserConstraint.obj
 0001:0002ff40       ??1dgUserConstraint@@MAE@XZ 10030f40 f   physics_2009:dgUserConstraint.obj
 0001:0002ff50       ?GetInfo@dgUserConstraint@@MBEXPAVdgConstraintInfo@@@Z 10030f50 f   physics_2009:dgUserConstraint.obj
 0001:0002ff60       ??_EdgUserConstraint@@MAEPAXI@Z 10030f60 f i physics_2009:dgUserConstraint.obj
 0001:0002ff60       ??_GdgUserConstraint@@MAEPAXI@Z 10030f60 f i physics_2009:dgUserConstraint.obj
 0001:0002ff90       ?GetStiffness@dgConstraint@@UBENXZ 10030f90 f i physics_2009:dgBilateralConstraint.obj
 0001:0002ffa0       ??1dgBilateralConstraint@@MAE@XZ 10030fa0 f   physics_2009:dgBilateralConstraint.obj
 0001:0002ffd0       ?IsBilateral@dgBilateralConstraint@@MBE_NXZ 10030fd0 f   physics_2009:dgBilateralConstraint.obj
 0001:0002ffe0       ?GetStiffness@dgBilateralConstraint@@MBENXZ 10030fe0 f   physics_2009:dgBilateralConstraint.obj
 0001:00030000       ?SetDestructorCallback@dgBilateralConstraint@@UAEXP6AXAAVdgConstraint@@@Z@Z 10031000 f   physics_2009:dgBilateralConstraint.obj
 0001:00030010       ?SetMotorAcceleration@dgBilateralConstraint@@IAEXHNAAVdgContraintDescritor@@@Z 10031010 f   physics_2009:dgBilateralConstraint.obj
 0001:00030050       ??_EdgConstraint@@MAEPAXI@Z 10031050 f i physics_2009:dgBilateralConstraint.obj
 0001:00030050       ??_GdgConstraint@@MAEPAXI@Z 10031050 f i physics_2009:dgBilateralConstraint.obj
 0001:00030070       ??_GdgBilateralConstraint@@MAEPAXI@Z 10031070 f i physics_2009:dgBilateralConstraint.obj
 0001:00030070       ??_EdgBilateralConstraint@@MAEPAXI@Z 10031070 f i physics_2009:dgBilateralConstraint.obj
 0001:000300b0       ?SetStiffness@dgBilateralConstraint@@MAEXN@Z 100310b0 f   physics_2009:dgBilateralConstraint.obj
 0001:000300f0       ?SetJacobianDerivative@dgBilateralConstraint@@IAEXHAAVdgContraintDescritor@@PBN1PAN@Z 100310f0 f   physics_2009:dgBilateralConstraint.obj
 0001:000301b0       ?CalculatePointDerivative@dgBilateralConstraint@@IAEXHAAVdgContraintDescritor@@ABVdgVector@@ABVdgPointParam@dgConstraint@@PAN@Z 100311b0 f   physics_2009:dgBilateralConstraint.obj
 0001:000303d0       ??0dgBilateralConstraint@@IAE@XZ 100313d0 f   physics_2009:dgBilateralConstraint.obj
 0001:00030480       ?CalculateMatrixOffset@dgBilateralConstraint@@IAEXABVdgVector@@0AAVdgMatrix@@1@Z 10031480 f   physics_2009:dgBilateralConstraint.obj
 0001:000308f0       ?SetPivotAndPinDir@dgBilateralConstraint@@IAEXABVdgVector@@0@Z 100318f0 f   physics_2009:dgBilateralConstraint.obj
 0001:00030910       ?SetPivotAndPinDir@dgBilateralConstraint@@IAEXABVdgVector@@00@Z 10031910 f   physics_2009:dgBilateralConstraint.obj
 0001:00030d30       ?CalculateGlobalMatrixAndAngle@dgBilateralConstraint@@IBE?AVdgVector@@AAVdgMatrix@@0@Z 10031d30 f   physics_2009:dgBilateralConstraint.obj
 0001:00030ef0       ?CalculateSpringDamperAcceleration@dgBilateralConstraint@@IAENHABVdgContraintDescritor@@NABVdgVector@@1NN@Z 10031ef0 f   physics_2009:dgBilateralConstraint.obj
 0001:00031060       ?CalculateAngularDerivative@dgBilateralConstraint@@IAEXHAAVdgContraintDescritor@@ABVdgVector@@NNPAN@Z 10032060 f   physics_2009:dgBilateralConstraint.obj
 0001:000311b0       ?JointAccelerations@dgBilateralConstraint@@MAEXABVdgJointAccelerationDecriptor@@@Z 100321b0 f   physics_2009:dgBilateralConstraint.obj
 0001:00031320       ??1dgCollisionSphere@@UAE@XZ 10032320 f   physics_2009:dgCollisionSphere.obj
 0001:00031340       ?CalculateSignature@dgCollisionSphere@@MBEHXZ 10032340 f   physics_2009:dgCollisionSphere.obj
 0001:000313b0       ?CalculateInertia@dgCollisionPoint@@UBEXAAVdgVector@@0@Z 100323b0 f   physics_2009:dgCollisionSphere.obj
 0001:000313b0       ?CalculateInertia@dgCollisionNull@@MBEXAAVdgVector@@0@Z 100323b0 f   physics_2009:dgCollisionNull.obj
 0001:000313b0       ?CalculateInertia@dgCollisionScene@@EBEXAAVdgVector@@0@Z 100323b0 f   physics_2009:dgCollisionScene.obj
 0001:000313b0       ?CalculateInertia@dgCollisionMesh@@UBEXAAVdgVector@@0@Z 100323b0 f   physics_2009:dgCollisionMesh.obj
 0001:000313b0       ?CalculateInertia@dgCollisionConvexPolygon@dgCollisionMesh@@UBEXAAVdgVector@@0@Z 100323b0 f   physics_2009:dgCollisionMesh.obj
 0001:000313d0       ?GetCollisionInfo@dgCollisionSphere@@MBEXPAVdgCollisionInfo@@@Z 100323d0 f   physics_2009:dgCollisionSphere.obj
 0001:00031430       ??_GdgCollisionSphere@@UAEPAXI@Z 10032430 f i physics_2009:dgCollisionSphere.obj
 0001:00031430       ??_EdgCollisionSphere@@UAEPAXI@Z 10032430 f i physics_2009:dgCollisionSphere.obj
 0001:00031470       ?SupportVertexSimd@dgCollisionSphere@@MBE?AVdgVector@@ABV2@@Z 10032470 f   physics_2009:dgCollisionSphere.obj
 0001:00031470       ?SupportVertex@dgCollisionSphere@@MBE?AVdgVector@@ABV2@@Z 10032470 f   physics_2009:dgCollisionSphere.obj
 0001:000314b0       ?CalcAABB@dgCollisionSphere@@MBEXABVdgMatrix@@AAVdgVector@@1@Z 100324b0 f   physics_2009:dgCollisionSphere.obj
 0001:00031500       ?CalculatePlaneIntersection@dgCollisionSphere@@MBEHABVdgVector@@0QAV2@@Z 10032500 f   physics_2009:dgCollisionSphere.obj
 0001:00031550       ?Serialize@dgCollisionSphere@@MBEXP6AXPAXPBXI@Z0@Z 10032550 f   physics_2009:dgCollisionSphere.obj
 0001:000315b0       ?TesselateTriangle@dgCollisionSphere@@IBEXHABVdgVector@@00AAHPAV2@@Z 100325b0 f   physics_2009:dgCollisionSphere.obj
 0001:00031810       ?DebugCollision@dgCollisionSphere@@MBEXABVdgMatrix@@P6AXPAXHPBNH@Z1@Z 10032810 f   physics_2009:dgCollisionSphere.obj
 0001:00031ab0       ?SupportVertexSimd@dgCollisionEllipse@@MBE?AVdgVector@@ABV2@@Z 10032ab0 f   physics_2009:dgCollisionEllipse.obj
 0001:00031ab0       ?SupportVertexSimd@dgCollisionBox@@MBE?AVdgVector@@ABV2@@Z 10032ab0 f   physics_2009:dgCollisionBox.obj
 0001:00031ab0       ?SupportVertexSimd@dgCollisionConvexPolygon@dgCollisionMesh@@UBE?AVdgVector@@ABV3@@Z 10032ab0 f   physics_2009:dgCollisionMesh.obj
 0001:00031ab0       ?SupportVertexSimd@dgCollisionPoint@@UBE?AVdgVector@@ABV2@@Z 10032ab0 f   physics_2009:dgCollisionSphere.obj
 0001:00031ab0       ?SupportVertexSimd@dgCollisionCapsule@@EBE?AVdgVector@@ABV2@@Z 10032ab0 f   physics_2009:dgCollisionCapsule.obj
 0001:00031ab0       ?SupportVertexSimd@dgCollisionConvexModifier@@MBE?AVdgVector@@ABV2@@Z 10032ab0 f   physics_2009:dgCollisionConvexModifier.obj
 0001:00031ab0       ?SupportVertex@dgCollisionPoint@@UBE?AVdgVector@@ABV2@@Z 10032ab0 f   physics_2009:dgCollisionSphere.obj
 0001:00031ab0       ?SupportVertexSimd@dgCollisionNull@@MBE?AVdgVector@@ABV2@@Z 10032ab0 f   physics_2009:dgCollisionNull.obj
 0001:00031ab0       ?SupportVertex@dgCollisionNull@@MBE?AVdgVector@@ABV2@@Z 10032ab0 f   physics_2009:dgCollisionNull.obj
 0001:00031ab0       ?SupportVertexSimd@dgConvexCollision@@UBE?AVdgVector@@ABV2@@Z 10032ab0 f   physics_2009:dgConvexCollision.obj
 0001:00031ab0       ?SupportVertex@dgCollisionScene@@EBE?AVdgVector@@ABV2@@Z 10032ab0 f   physics_2009:dgCollisionScene.obj
 0001:00031ab0       ?SupportVertex@dgCollisionMesh@@EBE?AVdgVector@@ABV2@@Z 10032ab0 f   physics_2009:dgCollisionMesh.obj
 0001:00031ad0       ?RayCast@dgCollisionSphere@@MBENABVdgVector@@0AAVdgContactPoint@@P6AIPBVdgBody@@PBVdgCollision@@PAX@Z24@Z 10032ad0 f   physics_2009:dgCollisionSphere.obj
 0001:00031cb0       ?CalculateMassProperties@dgCollisionSphere@@MBENAAVdgVector@@00@Z 10032cb0 f   physics_2009:dgCollisionSphere.obj
 0001:00031d70       ?Init@dgCollisionSphere@@IAEXN@Z 10032d70 f   physics_2009:dgCollisionSphere.obj
 0001:00032180       ??0dgCollisionSphere@@QAE@INABVdgMatrix@@@Z 10033180 f   physics_2009:dgCollisionSphere.obj
 0001:000321c0       ??0dgCollisionSphere@@QAE@PAVdgWorld@@P6AXPAX1I@Z1@Z 100331c0 f   physics_2009:dgCollisionSphere.obj
 0001:00032210       ?MassProperties@dgConvexMassData@@QAENAAVdgVector@@00@Z 10033210 f i physics_2009:dgConvexCollision.obj
 0001:000322e0       ??1dgConvexCollision@@MAE@XZ 100332e0 f   physics_2009:dgConvexCollision.obj
 0001:00032320       ?SerializeLow@dgConvexCollision@@MBEXP6AXPAXPBXI@Z0@Z 10033320 f   physics_2009:dgConvexCollision.obj
 0001:00032360       ?GetUserData@dgConvexCollision@@MBEPAXXZ 10033360 f   physics_2009:dgConvexCollision.obj
 0001:00032370       ?SetUserData@dgConvexCollision@@MAEXPAX@Z 10033370 f   physics_2009:dgConvexCollision.obj
 0001:00032380       ?GetVolume@dgConvexCollision@@EBENXZ 10033380 f   physics_2009:dgConvexCollision.obj
 0001:00032390       ?GetBoxMinRadius@dgConvexCollision@@EBENXZ 10033390 f   physics_2009:dgConvexCollision.obj
 0001:000323a0       ?GetBoxMaxRadius@dgConvexCollision@@EBENXZ 100333a0 f   physics_2009:dgConvexCollision.obj
 0001:000323b0       ?CalculatePlaneIntersectionSimd@dgCollisionSphere@@MBEHABVdgVector@@0QAV2@@Z 100333b0 f   physics_2009:dgCollisionSphere.obj
 0001:000323b0       ?CalculatePlaneIntersectionSimd@dgCollisionCylinder@@EBEHABVdgVector@@0QAV2@@Z 100333b0 f   physics_2009:dgCollisionCylinder.obj
 0001:000323b0       ?CalculatePlaneIntersectionSimd@dgCollisionCapsule@@EBEHABVdgVector@@0QAV2@@Z 100333b0 f   physics_2009:dgCollisionCapsule.obj
 0001:000323b0       ?CalculatePlaneIntersectionSimd@dgCollisionConvexPolygon@dgCollisionMesh@@UBEHABVdgVector@@0QAV3@@Z 100333b0 f   physics_2009:dgCollisionMesh.obj
 0001:000323b0       ?CalculatePlaneIntersectionSimd@dgConvexCollision@@UBEHABVdgVector@@0QAV2@@Z 100333b0 f   physics_2009:dgConvexCollision.obj
 0001:000323b0       ?CalculatePlaneIntersectionSimd@dgCollisionCone@@EBEHABVdgVector@@0QAV2@@Z 100333b0 f   physics_2009:dgCollisionCone.obj
 0001:000323b0       ?CalculatePlaneIntersectionSimd@dgCollisionBox@@MBEHABVdgVector@@0QAV2@@Z 100333b0 f   physics_2009:dgCollisionBox.obj
 0001:000323b0       ?CalculatePlaneIntersectionSimd@dgCollisionEllipse@@EBEHABVdgVector@@0QAV2@@Z 100333b0 f   physics_2009:dgCollisionEllipse.obj
 0001:000323c0       ?IsTriggerVolume@dgConvexCollision@@UBE_NXZ 100333c0 f   physics_2009:dgConvexCollision.obj
 0001:000323d0       ?SetAsTriggerVolume@dgConvexCollision@@MAEX_N@Z 100333d0 f   physics_2009:dgConvexCollision.obj
 0001:000323f0       ?Push@?$dgUpHeap@HN@@QAEXAAHN@Z 100333f0 f i physics_2009:dgConvexCollision.obj
 0001:000323f0       ?Push@?$dgUpHeap@PAUdgPerimenterEdge@dgContactSolver@@N@@QAEXAAPAUdgPerimenterEdge@dgContactSolver@@N@Z 100333f0 f i physics_2009:dgMinkowskiConv.obj
 0001:00032460       ??0dgConvexCollision@@IAE@IABVdgMatrix@@W4dgCollisionID@@@Z 10033460 f   physics_2009:dgConvexCollision.obj
 0001:00032570       ??_GdgConvexCollision@@MAEPAXI@Z 10033570 f i physics_2009:dgConvexCollision.obj
 0001:00032570       ??_EdgConvexCollision@@MAEPAXI@Z 10033570 f i physics_2009:dgConvexCollision.obj
 0001:000325c0       ??0dgConvexCollision@@IAE@PAVdgWorld@@P6AXPAX1I@Z1@Z 100335c0 f   physics_2009:dgConvexCollision.obj
 0001:000326a0       ?GetDiscretedAngleStep@dgConvexCollision@@IBENN@Z 100336a0 f   physics_2009:dgConvexCollision.obj
 0001:000326f0       ?DebugCollision@dgConvexCollision@@MBEXABVdgMatrix@@P6AXPAXHPBNH@Z1@Z 100336f0 f   physics_2009:dgConvexCollision.obj
 0001:00032820       ?CalcAABB@dgConvexCollision@@UBEXABVdgMatrix@@AAVdgVector@@1@Z 10033820 f   physics_2009:dgConvexCollision.obj
 0001:00032a10       ?GetSupportEdge@dgConvexCollision@@IBEPAVdgConvexSimplexEdge@@ABVdgVector@@@Z 10033a10 f   physics_2009:dgConvexCollision.obj
 0001:00032a90       ?CalculateInertia@dgConvexCollision@@EBEXAAVdgVector@@0@Z 10033a90 f   physics_2009:dgConvexCollision.obj
 0001:00032b70       ?RayCastClosestFace@dgConvexCollision@@ABEHPAVdgVector@@ABV2@AAN@Z 10033b70 f   physics_2009:dgConvexCollision.obj
 0001:00033070       ?RayHitBox@dgConvexCollision@@ABE_NABVdgVector@@0@Z 10034070 f   physics_2009:dgConvexCollision.obj
 0001:000331d0       ?SupportVertex@dgConvexCollision@@UBE?AVdgVector@@ABV2@@Z 100341d0 f   physics_2009:dgConvexCollision.obj
 0001:000333a0       ?RayCast@dgConvexCollision@@UBENABVdgVector@@0AAVdgContactPoint@@P6AIPBVdgBody@@PBVdgCollision@@PAX@Z24@Z 100343a0 f   physics_2009:dgConvexCollision.obj
 0001:00034150       ?OOBBTest@dgConvexCollision@@UBE_NABVdgMatrix@@QBV1@PAX@Z 10035150 f   physics_2009:dgConvexCollision.obj
 0001:00034300       ?AddCg@dgConvexMassData@@QAEXHPBVdgVector@@@Z 10035300 f i physics_2009:dgConvexCollision.obj
 0001:00034440       ?AddInertia@dgConvexMassData@@QAEXHPBN@Z 10035440 f i physics_2009:dgConvexCollision.obj
 0001:00034700       ?SetVolumeAndCG@dgConvexCollision@@IAEXXZ 10035700 f   physics_2009:dgConvexCollision.obj
 0001:00034ab0       ?CalculateInertia@dgConvexCollision@@CAXPAXHPBNH@Z 10035ab0 f   physics_2009:dgConvexCollision.obj
 0001:00034ad0       ?CalculateMassProperties@dgConvexCollision@@MBENAAVdgVector@@00@Z 10035ad0 f   physics_2009:dgConvexCollision.obj
 0001:00034b30       ?CalculateVolumeIntegral@dgConvexCollision@@IBE?AVdgVector@@ABVdgPlane@@@Z 10035b30 f   physics_2009:dgConvexCollision.obj
 0001:00035050       ?SimplifyClipPolygon@dgConvexCollision@@ABEHHABVdgVector@@PAV2@@Z 10036050 f   physics_2009:dgConvexCollision.obj
 0001:00035220       ?RectifyConvexSlice@dgConvexCollision@@IBEHHABVdgVector@@QAV2@@Z 10036220 f   physics_2009:dgConvexCollision.obj
 0001:000355a0       ?CalculatePlaneIntersection@dgConvexCollision@@UBEHABVdgVector@@0QAV2@@Z 100365a0 f   physics_2009:dgConvexCollision.obj
 0001:00035a30       ?CalculateVolumeIntegral@dgConvexCollision@@EBE?AVdgVector@@ABVdgMatrix@@P6AIPAX10AAVdgPlane@@@Z1@Z 10036a30 f   physics_2009:dgConvexCollision.obj
 0001:00035b90       ?FindConstraintLink@dgBodyMasterList@@QBEPAVdgListNode@?$dgList@VdgBodyMasterListCell@@@@PBVdgBody@@0@Z 10036b90 f   physics_2009:dgBodyMasterList.obj
 0001:00035bc0       ?FindConstraintLinkNext@dgBodyMasterList@@QBEPAVdgListNode@?$dgList@VdgBodyMasterListCell@@@@PBV23@PBVdgBody@@@Z 10036bc0 f   physics_2009:dgBodyMasterList.obj
 0001:00035bf0       ?Addtop@?$dgList@VdgBodyMasterListCell@@@@QAEPAVdgListNode@1@XZ 10036bf0 f i physics_2009:dgBodyMasterList.obj
 0001:00035c60       ?RemoveAll@?$dgList@VdgBodyMasterListCell@@@@QAEXXZ 10036c60 f i physics_2009:dgBodyMasterList.obj
 0001:00035cc0       ?SortList@dgBodyMasterListRow@@QAEXXZ 10036cc0 f   physics_2009:dgBodyMasterList.obj
 0001:00035db0       ?AttachConstraint@dgBodyMasterList@@QAEXPAVdgConstraint@@PAVdgBody@@1@Z 10036db0 f   physics_2009:dgBodyMasterList.obj
 0001:00035e70       ?SortMasterList@dgBodyMasterList@@QAEXXZ 10036e70 f   physics_2009:dgBodyMasterList.obj
 0001:00036040       ?Remove@?$dgList@VdgBodyMasterListCell@@@@QAEXPAVdgListNode@1@@Z 10037040 f i physics_2009:dgBodyMasterList.obj
 0001:00036090       ?RemoveConstraint@dgBodyMasterList@@QAEXPAVdgConstraint@@@Z 10037090 f   physics_2009:dgBodyMasterList.obj
 0001:00036130       ?Append@?$dgList@VdgBodyMasterListRow@@@@QAEPAVdgListNode@1@XZ 10037130 f i physics_2009:dgBodyMasterList.obj
 0001:000361b0       ?RemoveAll@?$dgList@VdgBodyMasterListRow@@@@QAEXXZ 100371b0 f i physics_2009:dgBodyMasterList.obj
 0001:00036210       ?AddBody@dgBodyMasterList@@QAEXPAVdgBody@@@Z 10037210 f   physics_2009:dgBodyMasterList.obj
 0001:00036240       ?Remove@?$dgList@VdgBodyMasterListRow@@@@QAEXPAVdgListNode@1@@Z 10037240 f i physics_2009:dgBodyMasterList.obj
 0001:000362a0       ??0dgBodyMasterList@@QAE@XZ 100372a0 f   physics_2009:dgBodyMasterList.obj
 0001:000362b0       ??1dgBodyMasterList@@QAE@XZ 100372b0 f   physics_2009:dgBodyMasterList.obj
 0001:000362c0       ?RemoveBody@dgBodyMasterList@@QAEXPAVdgBody@@@Z 100372c0 f   physics_2009:dgBodyMasterList.obj
 0001:00036310       ??0dgCollisionNull@@QAE@I@Z 10037310 f   physics_2009:dgCollisionNull.obj
 0001:00036340       ??0dgCollisionNull@@QAE@PAVdgWorld@@P6AXPAX1I@Z1@Z 10037340 f   physics_2009:dgCollisionNull.obj
 0001:00036370       ?Serialize@dgCollisionNull@@EBEXP6AXPAXPBXI@Z0@Z 10037370 f   physics_2009:dgCollisionNull.obj
 0001:00036380       ?RayCastSimd@dgCollisionNull@@MBENABVdgVector@@0AAVdgContactPoint@@P6AIPBVdgBody@@PBVdgCollision@@PAX@Z24@Z 10037380 f   physics_2009:dgCollisionNull.obj
 0001:00036380       ?RayCast@dgCollisionNull@@MBENABVdgVector@@0AAVdgContactPoint@@P6AIPBVdgBody@@PBVdgCollision@@PAX@Z24@Z 10037380 f   physics_2009:dgCollisionNull.obj
 0001:00036390       ??_EdgCollisionNull@@UAEPAXI@Z 10037390 f i physics_2009:dgCollisionNull.obj
 0001:00036390       ??_GdgCollisionNull@@UAEPAXI@Z 10037390 f i physics_2009:dgCollisionNull.obj
 0001:000363c0       ?CalcAABB@dgCollisionNull@@MBEXABVdgMatrix@@AAVdgVector@@1@Z 100373c0 f   physics_2009:dgCollisionNull.obj
 0001:00036400       ?CalculateVolumeIntegral@dgCollisionNull@@MBE?AVdgVector@@ABVdgMatrix@@P6AIPAX10AAVdgPlane@@@Z1@Z 10037400 f   physics_2009:dgCollisionNull.obj
 0001:00036400       ?CalculateVolumeIntegral@dgCollisionMesh@@EBE?AVdgVector@@ABVdgMatrix@@P6AIPAX10AAVdgPlane@@@Z1@Z 10037400 f   physics_2009:dgCollisionMesh.obj
 0001:00036400       ?CalculateVolumeIntegral@dgCollisionScene@@EBE?AVdgVector@@ABVdgMatrix@@P6AIPAX10AAVdgPlane@@@Z1@Z 10037400 f   physics_2009:dgCollisionScene.obj
 0001:00036420       ?JointAccelerationsSimd@dgContact@@EAEXABVdgJointAccelerationDecriptor@@@Z 10037420 f   physics_2009:dgContact.obj
 0001:00036420       ?GetInfo@dgConstraint@@UBEXPAVdgConstraintInfo@@@Z 10037420 f   physics_2009:dgConstraint.obj
 0001:00036420       ?ModifierSetMatrix@dgCollision@@UAEXABVdgMatrix@@@Z 10037420 f   physics_2009:dgWorld.obj
 0001:00036420       ?JointAccelerationsSimd@dgBilateralConstraint@@MAEXABVdgJointAccelerationDecriptor@@@Z 10037420 f   physics_2009:dgBilateralConstraint.obj
 0001:00036420       ?SetUserData@dgCollision@@UAEXPAX@Z 10037420 f   physics_2009:dgCollision.obj
 0001:00036420       ?GetCollisionInfo@dgCollisionMesh@@EBEXPAVdgCollisionInfo@@@Z 10037420 f   physics_2009:dgCollisionMesh.obj
 0001:00036420       ?SetAsTriggerVolume@dgCollision@@UAEX_N@Z 10037420 f   physics_2009:dgCollisionMesh.obj
 0001:00036420       ?JointVelocityCorrection@dgContact@@EAEXABVdgJointAccelerationDecriptor@@@Z 10037420 f   physics_2009:dgContact.obj
 0001:00036420       ?Remove@dgBilateralConstraint@@MAEXPAVdgWorld@@@Z 10037420 f   NewtonClass.obj
 0001:00036420       ?JointVelocityCorrection@dgBilateralConstraint@@MAEXABVdgJointAccelerationDecriptor@@@Z 10037420 f   physics_2009:dgBilateralConstraint.obj
 0001:00036420       ?SetDestructorCallback@dgContact@@EAEXP6AXAAVdgConstraint@@@Z@Z 10037420 f   physics_2009:dgContact.obj
 0001:00036430       ??0dgCollidingPairCollector@@QAE@XZ 10037430 f   physics_2009:dgContact.obj
 0001:00036450       ?Init@dgCollidingPairCollector@@QAEXPAVdgWorld@@@Z 10037450 f   physics_2009:dgContact.obj
 0001:00036480       ?SetCaches@dgCollidingPairCollector@@QAEXQAUdgThreadPairCache@1@@Z 10037480 f   physics_2009:dgContact.obj
 0001:00036500       ?FlushChache@dgCollidingPairCollector@@QAEXQAUdgThreadPairCache@1@@Z 10037500 f   physics_2009:dgContact.obj
 0001:000365e0       ?GetInfo@dgContact@@EBEXPAVdgConstraintInfo@@@Z 100375e0 f   physics_2009:dgContact.obj
 0001:00036630       ?CalculatePointDerivative@dgContact@@ABEXHAAVdgContraintDescritor@@ABVdgVector@@ABVdgPointParam@dgConstraint@@@Z 10037630 f   physics_2009:dgContact.obj
 0001:000366f0       ?JointAccelerations@dgContact@@EAEXABVdgJointAccelerationDecriptor@@@Z 100376f0 f   physics_2009:dgContact.obj
 0001:00036890       ?AddPair@dgCollidingPairCollector@@QAEXPAVdgBody@@0H@Z 10037890 f   physics_2009:dgContact.obj
 0001:00036b50       ?RemoveAll@?$dgList@VdgContactMaterial@@@@QAEXXZ 10037b50 f i physics_2009:dgContact.obj
 0001:00036bc0       ??0dgContactMaterial@@QAE@XZ 10037bc0 f   physics_2009:dgContact.obj
 0001:00036c30       ?JacobianContactDerivative@dgContact@@AAEXAAVdgContraintDescritor@@ABVdgContactMaterial@@HAAH@Z 10037c30 f   physics_2009:dgContact.obj
 0001:00037000       ??0dgContact@@AAE@PAVdgWorld@@@Z 10038000 f   physics_2009:dgContact.obj
 0001:000370c0       ?Remove@?$dgList@PAVdgContact@@@@QAEXPAVdgListNode@1@@Z 100380c0 f i physics_2009:dgContact.obj
 0001:00037110       ?JacobianDerivative@dgContact@@EAEIAAVdgContraintDescritor@@@Z 10038110 f   physics_2009:dgContact.obj
 0001:00037160       ??_EdgContact@@EAEPAXI@Z   10038160 f i physics_2009:dgContact.obj
 0001:00037160       ??_GdgContact@@EAEPAXI@Z   10038160 f i physics_2009:dgContact.obj
 0001:000371c0       ??0dgCollisionConvexModifier@@QAE@PAVdgConvexCollision@@PAVdgWorld@@@Z 100381c0 f   physics_2009:dgCollisionConvexModifier.obj
 0001:00037260       ?ModifierGetMatrix@dgCollisionConvexModifier@@UBE?AVdgMatrix@@XZ 10038260 f   physics_2009:dgCollisionConvexModifier.obj
 0001:00037280       ?GetBoxMinRadius@dgCollisionConvexModifier@@EBENXZ 10038280 f   physics_2009:dgCollisionConvexModifier.obj
 0001:00037290       ?GetBoxMaxRadius@dgCollisionConvexModifier@@EBENXZ 10038290 f   physics_2009:dgCollisionConvexModifier.obj
 0001:000372a0       ?DebugCollision@dgCollisionConvexModifier@@MBEXABVdgMatrix@@P6AXPAXHPBNH@Z1@Z 100382a0 f   physics_2009:dgCollisionConvexModifier.obj
 0001:00037310       ?GetVolume@dgCollisionConvexModifier@@MBENXZ 10038310 f   physics_2009:dgCollisionConvexModifier.obj
 0001:00037330       ?GetCollisionInfo@dgCollisionConvexModifier@@EBEXPAVdgCollisionInfo@@@Z 10038330 f   physics_2009:dgCollisionConvexModifier.obj
 0001:00037370       ?Serialize@dgCollisionConvexModifier@@EBEXP6AXPAXPBXI@Z0@Z 10038370 f   physics_2009:dgCollisionConvexModifier.obj
 0001:000373c0       ??_EdgCollisionConvexModifier@@UAEPAXI@Z 100383c0 f i physics_2009:dgCollisionConvexModifier.obj
 0001:000373c0       ??_GdgCollisionConvexModifier@@UAEPAXI@Z 100383c0 f i physics_2009:dgCollisionConvexModifier.obj
 0001:00037410       ?ModifierSetMatrix@dgCollisionConvexModifier@@UAEXABVdgMatrix@@@Z 10038410 f   physics_2009:dgCollisionConvexModifier.obj
 0001:00037680       ??0dgCollisionConvexModifier@@QAE@PAVdgWorld@@P6AXPAX1I@Z1@Z 10038680 f   physics_2009:dgCollisionConvexModifier.obj
 0001:00037720       ?CalcAABB@dgCollisionConvexModifier@@MBEXABVdgMatrix@@AAVdgVector@@1@Z 10038720 f   physics_2009:dgCollisionConvexModifier.obj
 0001:000379b0       ?SupportVertex@dgCollisionConvexModifier@@MBE?AVdgVector@@ABV2@@Z 100389b0 f   physics_2009:dgCollisionConvexModifier.obj
 0001:00037b20       ?CalculatePlaneIntersection@dgCollisionConvexModifier@@EBEHABVdgVector@@0QAV2@@Z 10038b20 f   physics_2009:dgCollisionConvexModifier.obj
 0001:00037f70       ?RayCast@dgCollisionConvexModifier@@MBENABVdgVector@@0AAVdgContactPoint@@P6AIPBVdgBody@@PBVdgCollision@@PAX@Z24@Z 10038f70 f   physics_2009:dgCollisionConvexModifier.obj
 0001:000381c0       ?RayCastSimd@dgCollisionConvexModifier@@MBENABVdgVector@@0AAVdgContactPoint@@P6AIPBVdgBody@@PBVdgCollision@@PAX@Z24@Z 100391c0 f   physics_2009:dgCollisionConvexModifier.obj
 0001:00038290       ?CalculateVolumeIntegral@dgCollisionConvexModifier@@MBE?AVdgVector@@ABVdgMatrix@@P6AIPAX10AAVdgPlane@@@Z1@Z 10039290 f   physics_2009:dgCollisionConvexModifier.obj
 0001:00038630       ??1dgCompoundCollision@@UAE@XZ 10039630 f   physics_2009:dgCompoundCollision.obj
 0001:00038680       ?DebugCollision@dgCompoundCollision@@MBEXABVdgMatrix@@P6AXPAXHPBNH@Z1@Z 10039680 f   physics_2009:dgCompoundCollision.obj
 0001:000386d0       ?GetVolume@dgCompoundCollision@@MBENXZ 100396d0 f   physics_2009:dgCompoundCollision.obj
 0001:00038720       ?GetBoxMinRadius@dgCompoundCollision@@MBENXZ 10039720 f   physics_2009:dgCompoundCollision.obj
 0001:00038730       ?GetBoxMaxRadius@dgCompoundCollision@@MBENXZ 10039730 f   physics_2009:dgCompoundCollision.obj
 0001:00038740       ?GetCollisionInfo@dgCompoundCollision@@EBEXPAVdgCollisionInfo@@@Z 10039740 f   physics_2009:dgCompoundCollision.obj
 0001:00038790       ?Serialize@dgCompoundCollision@@EBEXP6AXPAXPBXI@Z0@Z 10039790 f   physics_2009:dgCompoundCollision.obj
 0001:00038810       ?OOBBTest@dgCollisionScene@@EBE_NABVdgMatrix@@QBVdgConvexCollision@@PAX@Z 10039810 f   physics_2009:dgCollisionScene.obj
 0001:00038810       ?OOBBTest@dgCollisionConvexModifier@@MBE_NABVdgMatrix@@QBVdgConvexCollision@@PAX@Z 10039810 f   physics_2009:dgCollisionConvexModifier.obj
 0001:00038810       ?OOBBTest@dgCollisionMesh@@EBE_NABVdgMatrix@@QBVdgConvexCollision@@PAX@Z 10039810 f   physics_2009:dgCollisionMesh.obj
 0001:00038810       ?OOBBTest@dgCollisionConvexPolygon@dgCollisionMesh@@UBE_NABVdgMatrix@@QBVdgConvexCollision@@PAX@Z 10039810 f   physics_2009:dgCollisionMesh.obj
 0001:00038810       ?OOBBTest@dgCompoundCollision@@MBE_NABVdgMatrix@@QBVdgConvexCollision@@PAX@Z 10039810 f   physics_2009:dgCompoundCollision.obj
 0001:00038820       ??_EdgCompoundCollision@@UAEPAXI@Z 10039820 f i physics_2009:dgCompoundCollision.obj
 0001:00038820       ??_GdgCompoundCollision@@UAEPAXI@Z 10039820 f i physics_2009:dgCompoundCollision.obj
 0001:00038840       ?CalcAABB@dgCompoundCollision@@MBEXABVdgMatrix@@AAVdgVector@@1@Z 10039840 f   physics_2009:dgCompoundCollision.obj
 0001:000389f0       ?Init@dgCompoundCollision@@IAEXHQBQAVdgConvexCollision@@PAVdgWorld@@@Z 100399f0 f   physics_2009:dgCompoundCollision.obj
 0001:00038b30       ?RayCastSimd@dgCompoundCollision@@MBENABVdgVector@@0AAVdgContactPoint@@P6AIPBVdgBody@@PBVdgCollision@@PAX@Z24@Z 10039b30 f   physics_2009:dgCompoundCollision.obj
 0001:00038cf0       ?CalculateVolumeIntegral@dgCompoundCollision@@MBE?AVdgVector@@ABVdgMatrix@@P6AIPAX10AAVdgPlane@@@Z1@Z 10039cf0 f   physics_2009:dgCompoundCollision.obj
 0001:00038dc0       ?CalculateInertia@dgCompoundCollision@@MBEXAAVdgVector@@0@Z 10039dc0 f   physics_2009:dgCompoundCollision.obj
 0001:00038f30       ?SupportVertex@dgCompoundCollision@@MBE?AVdgVector@@ABV2@@Z 10039f30 f   physics_2009:dgCompoundCollision.obj
 0001:00039090       ??0dgCompoundCollision@@QAE@HQBQAVdgConvexCollision@@PAVdgWorld@@@Z 1003a090 f   physics_2009:dgCompoundCollision.obj
 0001:000390d0       ??0dgCompoundCollision@@QAE@PAVdgWorld@@P6AXPAX1I@Z1@Z 1003a0d0 f   physics_2009:dgCompoundCollision.obj
 0001:00039180       ?RayCast@dgCompoundCollision@@MBENABVdgVector@@0AAVdgContactPoint@@P6AIPBVdgBody@@PBVdgCollision@@PAX@Z24@Z 1003a180 f   physics_2009:dgCompoundCollision.obj
 0001:000393a0       ??0dgCollisionUserMesh@@QAE@ABVdgVector@@0ABVdgUserMeshCreation@@@Z 1003a3a0 f   physics_2009:dgCollisionUserMesh.obj
 0001:00039410       ?GetCollisionInfo@dgCollisionUserMesh@@EBEXPAVdgCollisionInfo@@@Z 1003a410 f   physics_2009:dgCollisionUserMesh.obj
 0001:00039450       ?GetCollidingFaces@dgCollisionUserMesh@@EBEXQAVdgPolygonMeshDesc@@@Z 1003a450 f   physics_2009:dgCollisionUserMesh.obj
 0001:00039480       ??_GdgCollisionUserMesh@@UAEPAXI@Z 1003a480 f i physics_2009:dgCollisionUserMesh.obj
 0001:00039480       ??_EdgCollisionUserMesh@@UAEPAXI@Z 1003a480 f i physics_2009:dgCollisionUserMesh.obj
 0001:000394c0       ?GetVertexListIndexList@dgCollisionUserMesh@@UBEXABVdgVector@@0AAVdgGetVertexListIndexList@dgCollisionMesh@@@Z 1003a4c0 f   physics_2009:dgCollisionUserMesh.obj
 0001:00039510       ?RayCast@dgCollisionUserMesh@@EBENABVdgVector@@0AAVdgContactPoint@@P6AIPBVdgBody@@PBVdgCollision@@PAX@Z24@Z 1003a510 f   physics_2009:dgCollisionUserMesh.obj
 0001:00039630       ??1dgCollisionHeightField@@UAE@XZ 1003a630 f   physics_2009:dgCollisionHeightField.obj
 0001:00039690       ?Serialize@dgCollisionHeightField@@EBEXP6AXPAXPBXI@Z0@Z 1003a690 f   physics_2009:dgCollisionHeightField.obj
 0001:00039740       ?GetCollisionInfo@dgCollisionHeightField@@EBEXPAVdgCollisionInfo@@@Z 1003a740 f   physics_2009:dgCollisionHeightField.obj
 0001:000397d0       ?CalculatePlaneIntersectionSimd@dgCollisionConvexModifier@@EBEHABVdgVector@@0QAV2@@Z 1003a7d0 f   physics_2009:dgCollisionConvexModifier.obj
 0001:000397d0       ?GetCollidingFacesSimd@dgCollisionUserMesh@@EBEXQAVdgPolygonMeshDesc@@@Z 1003a7d0 f   physics_2009:dgCollisionUserMesh.obj
 0001:000397d0       ?GetCollidingFacesSimd@dgCollisionHeightField@@EBEXQAVdgPolygonMeshDesc@@@Z 1003a7d0 f   physics_2009:dgCollisionHeightField.obj
 0001:000397e0       ?GetVertexListIndexList@dgCollisionHeightField@@EBEXABVdgVector@@0AAVdgGetVertexListIndexList@dgCollisionMesh@@@Z 1003a7e0 f   physics_2009:dgCollisionHeightField.obj
 0001:000397f0       ??_GdgCollisionHeightField@@UAEPAXI@Z 1003a7f0 f i physics_2009:dgCollisionHeightField.obj
 0001:000397f0       ??_EdgCollisionHeightField@@UAEPAXI@Z 1003a7f0 f i physics_2009:dgCollisionHeightField.obj
 0001:00039810       ?CalculateMinExtend2d@dgCollisionHeightField@@ABEXABVdgVector@@0AAV2@1@Z 1003a810 f   physics_2009:dgCollisionHeightField.obj
 0001:000399c0       ?CalculateMinExtend3d@dgCollisionHeightField@@ABEXABVdgVector@@0AAV2@1@Z 1003a9c0 f   physics_2009:dgCollisionHeightField.obj
 0001:00039b20       ?RayCastCell@dgCollisionHeightField@@ABENABVFastRayTest@@HHAAVdgVector@@@Z 1003ab20 f   physics_2009:dgCollisionHeightField.obj
 0001:00039f50       ?RayCast@dgCollisionHeightField@@EBENABVdgVector@@0AAVdgContactPoint@@P6AIPBVdgBody@@PBVdgCollision@@PAX@Z24@Z 1003af50 f   physics_2009:dgCollisionHeightField.obj
 0001:0003a2e0       ?DebugCollision@dgCollisionHeightField@@EBEXABVdgMatrix@@P6AXPAXHPBNH@Z1@Z 1003b2e0 f   physics_2009:dgCollisionHeightField.obj
 0001:0003a840       ??0dgCollisionHeightField@@QAE@PAVdgWorld@@HHHPAGPADNN@Z 1003b840 f   physics_2009:dgCollisionHeightField.obj
 0001:0003aa70       ??0dgCollisionHeightField@@QAE@PAVdgWorld@@P6AXPAX1I@Z1@Z 1003ba70 f   physics_2009:dgCollisionHeightField.obj
 0001:0003ac10       ?RayCastCellSimd@dgCollisionHeightField@@ABENABVFastRayTest@@HHAAVdgVector@@@Z 1003bc10 f   physics_2009:dgCollisionHeightField.obj
 0001:0003b040       ?RayCastSimd@dgCollisionHeightField@@EBENABVdgVector@@0AAVdgContactPoint@@P6AIPBVdgBody@@PBVdgCollision@@PAX@Z24@Z 1003c040 f   physics_2009:dgCollisionHeightField.obj
 0001:0003b480       ?GetCollidingFaces@dgCollisionHeightField@@EBEXQAVdgPolygonMeshDesc@@@Z 1003c480 f   physics_2009:dgCollisionHeightField.obj
 0001:0003c960       ?CalculateConvexToNonConvexContactsSimd@dgWorld@@ABEHAAVdgCollisionParamProxi@@@Z 1003d960 f   physics_2009:dgMinkowskiConv.obj
 0001:0003c960       ?CalculateConvexToConvexContactsSimd@dgWorld@@ABEHAAVdgCollisionParamProxi@@@Z 1003d960 f   physics_2009:dgMinkowskiConv.obj
 0001:0003c970       ?Pop@?$dgUpHeap@HN@@QAEXXZ 1003d970 f i physics_2009:dgConvexCollision.obj
 0001:0003c970       ?Pop@?$dgUpHeap@PAUdgPerimenterEdge@dgContactSolver@@N@@QAEXXZ 1003d970 f i physics_2009:dgMinkowskiConv.obj
 0001:0003ca10       ?Remove@?$dgUpHeap@PAUdgPerimenterEdge@dgContactSolver@@N@@QAEXH@Z 1003da10 f i physics_2009:dgMinkowskiConv.obj
 0001:0003cab0       ?CheckTetraHedronVolume@dgContactSolver@@ABE_NXZ 1003dab0 f i physics_2009:dgMinkowskiConv.obj
 0001:0003cb80       ?CheckTetraHedronVolumeLarge@dgContactSolver@@ABE_NXZ 1003db80 f i physics_2009:dgMinkowskiConv.obj
 0001:0003cc20       ?ReduceLine@dgContactSolver@@AAE?AVdgVector@@ABV2@@Z 1003dc20 f i physics_2009:dgMinkowskiConv.obj
 0001:0003cd40       ?ReduceLineLarge@dgContactSolver@@AAE?AVdgBigVector@@ABV2@@Z 1003dd40 f i physics_2009:dgMinkowskiConv.obj
 0001:0003cec0       ?ReduceTriangle@dgContactSolver@@AAE?AVdgVector@@ABV2@@Z 1003dec0 f i physics_2009:dgMinkowskiConv.obj
 0001:0003d3e0       ?ReduceTriangleLarge@dgContactSolver@@AAE?AVdgBigVector@@ABV2@@Z 1003e3e0 f i physics_2009:dgMinkowskiConv.obj
 0001:0003d900       ?ReduceTetrahedrum@dgContactSolver@@AAE?AVdgVector@@ABV2@@Z 1003e900 f i physics_2009:dgMinkowskiConv.obj
 0001:0003dbd0       ?ReduceTetrahedrumLarge@dgContactSolver@@AAE?AVdgBigVector@@ABV2@@Z 1003ebd0 f i physics_2009:dgMinkowskiConv.obj
 0001:0003de90       ?CalcFacePlane@dgContactSolver@@AAE_NQAVdgMinkFace@1@@Z 1003ee90 f i physics_2009:dgMinkowskiConv.obj
 0001:0003dfc0       ?CalcFacePlaneLarge@dgContactSolver@@AAE_NQAVdgMinkFace@1@@Z 1003efc0 f i physics_2009:dgMinkowskiConv.obj
 0001:0003e0c0       ?CalculateVelocities@dgContactSolver@@QAEXN@Z 1003f0c0 f i physics_2009:dgMinkowskiConv.obj
 0001:0003e190       ?InitConvexCollision@dgWorld@@CAXXZ 1003f190 f   physics_2009:dgMinkowskiConv.obj
 0001:0003e610       ?SphereSphereCollision@dgWorld@@ABEHABVdgVector@@N0NAAVdgCollisionParamProxi@@@Z 1003f610 f   physics_2009:dgMinkowskiConv.obj
 0001:0003e7f0       ?CalculateSphereToSphereContacts@dgWorld@@ABEHAAVdgCollisionParamProxi@@@Z 1003f7f0 f   physics_2009:dgMinkowskiConv.obj
 0001:0003e830       ?CalculateCapsuleToSphereContacts@dgWorld@@ABEHAAVdgCollisionParamProxi@@@Z 1003f830 f   physics_2009:dgMinkowskiConv.obj
 0001:0003e990       ?CalculateCapsuleToCapsuleContacts@dgWorld@@ABEHAAVdgCollisionParamProxi@@@Z 1003f990 f   physics_2009:dgMinkowskiConv.obj
 0001:0003f5e0       ?FilterPolygonEdgeContacts@dgWorld@@ABEHHQAVdgContactPoint@@@Z 100405e0 f   physics_2009:dgMinkowskiConv.obj
 0001:0003f800       ?CalculatePolySoupToSphereContactsDescrete@dgWorld@@ABEHAAVdgCollisionParamProxi@@@Z 10040800 f   physics_2009:dgMinkowskiConv.obj
 0001:0003fd20       ?CalculatePolySoupToElipseContactsDescrete@dgWorld@@ABEHAAVdgCollisionParamProxi@@@Z 10040d20 f   physics_2009:dgMinkowskiConv.obj
 0001:00040320       ?CalcSupportVertex@dgContactSolver@@AAEXABVdgVector@@H@Z 10041320 f i physics_2009:dgMinkowskiConv.obj
 0001:00040480       ?CalcSupportVertexLarge@dgContactSolver@@AAEXABVdgVector@@H@Z 10041480 f i physics_2009:dgMinkowskiConv.obj
 0001:000405f0       ?CalculateConvexShapeIntersectionLine@dgContactSolver@@ABEHABVdgMatrix@@ABVdgVector@@INHQAV3@H2QAVdgContactPoint@@@Z 100415f0 f i physics_2009:dgMinkowskiConv.obj
 0001:000409f0       ?ReduceContacts@dgContactSolver@@ABEPAUdgPerimenterEdge@1@PAU21@H@Z 100419f0 f i physics_2009:dgMinkowskiConv.obj
 0001:00040b80       ?CalculateConvexShapeIntersection@dgContactSolver@@ABEHABVdgMatrix@@ABVdgVector@@INHQAV3@H2QAVdgContactPoint@@H@Z 10041b80 f i physics_2009:dgMinkowskiConv.obj
 0001:000411b0       ?UpdateSeparatingPlaneFallbackSolution@dgContactSolver@@AAE?AW4dgMinkReturnCode@1@AAPAVdgMinkFace@1@ABVdgVector@@@Z 100421b0 f i physics_2009:dgMinkowskiConv.obj
 0001:00042540       ?UpdateSeparatingPlaneFallbackSolutionLarge@dgContactSolver@@AAE?AW4dgMinkReturnCode@1@AAPAVdgMinkFace@1@ABVdgBigVector@@@Z 10043540 f i physics_2009:dgMinkowskiConv.obj
 0001:00043780       ?UpdateSeparatingPlane@dgContactSolver@@AAE?AW4dgMinkReturnCode@1@AAPAVdgMinkFace@1@ABVdgVector@@@Z 10044780 f i physics_2009:dgMinkowskiConv.obj
 0001:00043d60       ?UpdateSeparatingPlaneLarge@dgContactSolver@@AAE?AW4dgMinkReturnCode@1@AAPAVdgMinkFace@1@ABVdgBigVector@@@Z 10044d60 f i physics_2009:dgMinkowskiConv.obj
 0001:00044350       ?CalcSeparatingPlane@dgContactSolver@@AAE?AW4dgMinkReturnCode@1@AAPAVdgMinkFace@1@ABVdgVector@@@Z 10045350 f i physics_2009:dgMinkowskiConv.obj
 0001:00044960       ?CalcSeparatingPlaneLarge@dgContactSolver@@AAE?AW4dgMinkReturnCode@1@AAPAVdgMinkFace@1@ABVdgBigVector@@@Z 10045960 f i physics_2009:dgMinkowskiConv.obj
 0001:00044ee0       ??0dgContactSolver@@QAE@AAVdgCollisionParamProxi@@PAVdgCollision@@@Z 10045ee0 f i physics_2009:dgMinkowskiConv.obj
 0001:00044f60       ??0dgContactSolver@@QAE@AAVdgCollisionParamProxi@@@Z 10045f60 f i physics_2009:dgMinkowskiConv.obj
 0001:00044fe0       ?CalculatePolySoupToSphereContactsContinue@dgWorld@@ABEHAAVdgCollisionParamProxi@@@Z 10045fe0 f   physics_2009:dgMinkowskiConv.obj
 0001:000454c0       ?CalculateClosestPoints@dgContactSolver@@AAEHXZ 100464c0 f i physics_2009:dgMinkowskiConv.obj
 0001:00046100       ?CalculateContactAlternateMethod@dgContactSolver@@AAEHQAVdgMinkFace@1@HQAVdgContactPoint@@H@Z 10047100 f i physics_2009:dgMinkowskiConv.obj
 0001:00047230       ?CalculateContacts@dgContactSolver@@AAEHQAVdgMinkFace@1@HQAVdgContactPoint@@H@Z 10048230 f i physics_2009:dgMinkowskiConv.obj
 0001:00048470       ?CalculateContactsContinues@dgContactSolver@@AAEHHQAVdgContactPoint@@HPBVdgVector@@1N@Z 10049470 f i physics_2009:dgMinkowskiConv.obj
 0001:000486d0       ?CalculateClipPlane@dgContactSolver@@AAEPAVdgMinkFace@1@XZ 100496d0 f i physics_2009:dgMinkowskiConv.obj
 0001:00049140       ?CalculateClipPlaneLarge@dgContactSolver@@AAEPAVdgMinkFace@1@XZ 1004a140 f i physics_2009:dgMinkowskiConv.obj
 0001:00049be0       ?HullHullContacts@dgContactSolver@@QAEHH@Z 1004abe0 f i physics_2009:dgMinkowskiConv.obj
 0001:00049f20       ?HullHullContactsLarge@dgContactSolver@@QAEHH@Z 1004af20 f i physics_2009:dgMinkowskiConv.obj
 0001:0004a2b0       ?HullHullContinueContacts@dgContactSolver@@QAEHAANQAVdgContactPoint@@HHH@Z 1004b2b0 f i physics_2009:dgMinkowskiConv.obj
 0001:0004ab70       ?ClosestPoint@dgWorld@@ABEHAAVdgCollisionParamProxi@@@Z 1004bb70 f   physics_2009:dgMinkowskiConv.obj
 0001:0004ad40       ?CalculateHullToHullContacts@dgWorld@@ABEHAAVdgCollisionParamProxi@@@Z 1004bd40 f   physics_2009:dgMinkowskiConv.obj
 0001:0004af30       ?CalculatePolySoupToHullContactsDescrete@dgWorld@@ABEHAAVdgCollisionParamProxi@@@Z 1004bf30 f   physics_2009:dgMinkowskiConv.obj
 0001:0004b190       ?CalculateConvexToNonConvexContactsContinue@dgWorld@@ABEHAAVdgCollisionParamProxi@@@Z 1004c190 f   physics_2009:dgMinkowskiConv.obj
 0001:0004b4f0       ?CalculateConvexToNonConvexContacts@dgWorld@@ABEHAAVdgCollisionParamProxi@@@Z 1004c4f0 f   physics_2009:dgMinkowskiConv.obj
 0001:0004bdb0       ?CalculateBoxToSphereContacts@dgWorld@@ABEHAAVdgCollisionParamProxi@@@Z 1004cdb0 f   physics_2009:dgMinkowskiConv.obj
 0001:0004d440       ?CalculateConvexToConvexContacts@dgWorld@@ABEHAAVdgCollisionParamProxi@@@Z 1004e440 f   physics_2009:dgMinkowskiConv.obj
 0001:0004dbc0       ?CalculateSignature@dgCollisionBox@@MBEHXZ 1004ebc0 f   physics_2009:dgCollisionBox.obj
 0001:0004dc50       ?GetCollisionInfo@dgCollisionBox@@MBEXPAVdgCollisionInfo@@@Z 1004ec50 f   physics_2009:dgCollisionBox.obj
 0001:0004dcb0       ?PlaneSplite@dgCollisionBox@@MBEXABVdgPlane@@PAPAVdgCollisionConvexHull@@1@Z 1004ecb0 f   physics_2009:dgCollisionBox.obj
 0001:0004dcb0       ?PlaneSplite@dgCollisionConvexHull@@EBEXABVdgPlane@@PAPAV1@1@Z 1004ecb0 f   physics_2009:dgCollisionConvexHull.obj
 0001:0004dcc0       ??_EdgCollisionBox@@UAEPAXI@Z 1004ecc0 f i physics_2009:dgCollisionBox.obj
 0001:0004dcc0       ??_GdgCollisionBox@@UAEPAXI@Z 1004ecc0 f i physics_2009:dgCollisionBox.obj
 0001:0004dd00       ?CalcAABB@dgCollisionBox@@MBEXABVdgMatrix@@AAVdgVector@@1@Z 1004ed00 f   physics_2009:dgCollisionBox.obj
 0001:0004de50       ?CalculatePlaneIntersection@dgCollisionBox@@MBEHABVdgVector@@0QAV2@@Z 1004ee50 f   physics_2009:dgCollisionBox.obj
 0001:0004e100       ?Serialize@dgCollisionBox@@MBEXP6AXPAXPBXI@Z0@Z 1004f100 f   physics_2009:dgCollisionBox.obj
 0001:0004e170       ?Init@dgCollisionBox@@IAEXNNN@Z 1004f170 f   physics_2009:dgCollisionBox.obj
 0001:0004e4c0       ?SupportVertex@dgCollisionBox@@MBE?AVdgVector@@ABV2@@Z 1004f4c0 f   physics_2009:dgCollisionBox.obj
 0001:0004e520       ?RayCast@dgCollisionBox@@MBENABVdgVector@@0AAVdgContactPoint@@P6AIPBVdgBody@@PBVdgCollision@@PAX@Z24@Z 1004f520 f   physics_2009:dgCollisionBox.obj
 0001:0004e6a0       ?CalculateMassProperties@dgCollisionBox@@MBENAAVdgVector@@00@Z 1004f6a0 f   physics_2009:dgCollisionBox.obj
 0001:0004e970       ??0dgCollisionBox@@QAE@INNNABVdgMatrix@@@Z 1004f970 f   physics_2009:dgCollisionBox.obj
 0001:0004e9c0       ??0dgCollisionBox@@QAE@PAVdgWorld@@P6AXPAX1I@Z1@Z 1004f9c0 f   physics_2009:dgCollisionBox.obj
 0001:0004ea20       ??1dgCollision@@MAE@XZ     1004fa20 f   physics_2009:dgCollision.obj
 0001:0004ea30       ?RayCast@dgCollisionConvexPolygon@dgCollisionMesh@@UBENABVdgVector@@0AAVdgContactPoint@@P6AIPBVdgBody@@PBVdgCollision@@PAX@Z24@Z 1004fa30 f i physics_2009:dgCollisionMesh.obj
 0001:0004ea30       ?RayCastSimd@dgCollision@@UBENABVdgVector@@0AAVdgContactPoint@@P6AIPBVdgBody@@PBV1@PAX@Z24@Z 1004fa30 f i physics_2009:dgCollision.obj
 0001:0004ea40       ?Quantize@dgCollision@@SAIN@Z 1004fa40 f   physics_2009:dgCollision.obj
 0001:0004ea70       ?MakeCRC@dgCollision@@SAIPAXH@Z 1004fa70 f   physics_2009:dgCollision.obj
 0001:0004ea90       ?GetCollisionInfo@dgCollision@@UBEXPAVdgCollisionInfo@@@Z 1004fa90 f   physics_2009:dgCollision.obj
 0001:0004eae0       ?SerializeLow@dgCollision@@UBEXP6AXPAXPBXI@Z0@Z 1004fae0 f   physics_2009:dgCollision.obj
 0001:0004eb40       ??_EdgCollision@@MAEPAXI@Z 1004fb40 f i physics_2009:dgCollision.obj
 0001:0004eb40       ??_GdgCollision@@MAEPAXI@Z 1004fb40 f i physics_2009:dgCollision.obj
 0001:0004eb60       ??0dgCollision@@IAE@IABVdgMatrix@@W4dgCollisionID@@@Z 1004fb60 f   physics_2009:dgCollision.obj
 0001:0004ebc0       ??0dgCollision@@IAE@PAVdgWorld@@P6AXPAX1I@Z1@Z 1004fbc0 f   physics_2009:dgCollision.obj
 0001:0004ec30       ?CalculateSignature@dgCollisionEllipse@@EBEHXZ 1004fc30 f   physics_2009:dgCollisionEllipse.obj
 0001:0004ecc0       ?CalculateMassProperties@dgCollisionEllipse@@EBENAAVdgVector@@00@Z 1004fcc0 f   physics_2009:dgCollisionEllipse.obj
 0001:0004ecd0       ?GetCollisionInfo@dgCollisionEllipse@@EBEXPAVdgCollisionInfo@@@Z 1004fcd0 f   physics_2009:dgCollisionEllipse.obj
 0001:0004ed20       ?Serialize@dgCollisionEllipse@@EBEXP6AXPAXPBXI@Z0@Z 1004fd20 f   physics_2009:dgCollisionEllipse.obj
 0001:0004ed50       ??_EdgCollisionEllipse@@UAEPAXI@Z 1004fd50 f i physics_2009:dgCollisionEllipse.obj
 0001:0004ed50       ??_GdgCollisionEllipse@@UAEPAXI@Z 1004fd50 f i physics_2009:dgCollisionEllipse.obj
 0001:0004ed80       ?CalcAABB@dgCollisionEllipse@@MBEXABVdgMatrix@@AAVdgVector@@1@Z 1004fd80 f   physics_2009:dgCollisionEllipse.obj
 0001:0004ee50       ??0dgCollisionEllipse@@QAE@INNNABVdgMatrix@@@Z 1004fe50 f   physics_2009:dgCollisionEllipse.obj
 0001:0004eee0       ??0dgCollisionEllipse@@QAE@PAVdgWorld@@P6AXPAX1I@Z1@Z 1004fee0 f   physics_2009:dgCollisionEllipse.obj
 0001:0004ef60       ?SupportVertex@dgCollisionEllipse@@MBE?AVdgVector@@ABV2@@Z 1004ff60 f   physics_2009:dgCollisionEllipse.obj
 0001:0004f030       ?CalculatePlaneIntersection@dgCollisionEllipse@@EBEHABVdgVector@@0QAV2@@Z 10050030 f   physics_2009:dgCollisionEllipse.obj
 0001:0004f0c0       ?DebugCollision@dgCollisionEllipse@@MBEXABVdgMatrix@@P6AXPAXHPBNH@Z1@Z 100500c0 f   physics_2009:dgCollisionEllipse.obj
 0001:0004f310       ?RayCast@dgCollisionEllipse@@MBENABVdgVector@@0AAVdgContactPoint@@P6AIPBVdgBody@@PBVdgCollision@@PAX@Z24@Z 10050310 f   physics_2009:dgCollisionEllipse.obj
 0001:0004f3c0       ?RayCastSimd@dgCollisionEllipse@@MBENABVdgVector@@0AAVdgContactPoint@@P6AIPBVdgBody@@PBVdgCollision@@PAX@Z24@Z 100503c0 f   physics_2009:dgCollisionEllipse.obj
 0001:0004f470       ?CalculateSignature@dgCollisionCapsule@@EBEHXZ 10050470 f   physics_2009:dgCollisionCapsule.obj
 0001:0004f4f0       ?GetCollisionInfo@dgCollisionCapsule@@EBEXPAVdgCollisionInfo@@@Z 100504f0 f   physics_2009:dgCollisionCapsule.obj
 0001:0004f550       ??_EdgCollisionCapsule@@UAEPAXI@Z 10050550 f i physics_2009:dgCollisionCapsule.obj
 0001:0004f550       ??_GdgCollisionCapsule@@UAEPAXI@Z 10050550 f i physics_2009:dgCollisionCapsule.obj
 0001:0004f590       ?SupportVertex@dgCollisionCapsule@@EBE?AVdgVector@@ABV2@@Z 10050590 f   physics_2009:dgCollisionCapsule.obj
 0001:0004f5f0       ?Serialize@dgCollisionCapsule@@EBEXP6AXPAXPBXI@Z0@Z 100505f0 f   physics_2009:dgCollisionCapsule.obj
 0001:0004f650       ?Init@dgCollisionCapsule@@AAEXNN@Z 10050650 f   physics_2009:dgCollisionCapsule.obj
 0001:0004fab0       ?TesselateTriangle@dgCollisionCapsule@@ABEXHNABVdgVector@@00AAHPAV2@@Z 10050ab0 f   physics_2009:dgCollisionCapsule.obj
 0001:0004fdb0       ?DebugCollision@dgCollisionCapsule@@EBEXABVdgMatrix@@P6AXPAXHPBNH@Z1@Z 10050db0 f   physics_2009:dgCollisionCapsule.obj
 0001:00050280       ?RayCast@dgCollisionCapsule@@EBENABVdgVector@@0AAVdgContactPoint@@P6AIPBVdgBody@@PBVdgCollision@@PAX@Z24@Z 10051280 f   physics_2009:dgCollisionCapsule.obj
 0001:00050b70       ?CalculateMassProperties@dgCollisionCapsule@@EBENAAVdgVector@@00@Z 10051b70 f   physics_2009:dgCollisionCapsule.obj
 0001:00050e50       ?CalculatePlaneIntersection@dgCollisionCapsule@@EBEHABVdgVector@@0QAV2@@Z 10051e50 f   physics_2009:dgCollisionCapsule.obj
 0001:00051650       ??0dgCollisionCapsule@@QAE@INNABVdgMatrix@@@Z 10052650 f   physics_2009:dgCollisionCapsule.obj
 0001:00051690       ??0dgCollisionCapsule@@QAE@PAVdgWorld@@P6AXPAX1I@Z1@Z 10052690 f   physics_2009:dgCollisionCapsule.obj
 0001:000516f0       ?CalculateSignature@dgCollisionCone@@EBEHXZ 100526f0 f   physics_2009:dgCollisionCone.obj
 0001:00051770       ?DebugCollision@dgCollisionCone@@EBEXABVdgMatrix@@P6AXPAXHPBNH@Z1@Z 10052770 f   physics_2009:dgCollisionCone.obj
 0001:00051980       ?GetCollisionInfo@dgCollisionCone@@EBEXPAVdgCollisionInfo@@@Z 10052980 f   physics_2009:dgCollisionCone.obj
 0001:000519d0       ??_EdgCollisionCone@@UAEPAXI@Z 100529d0 f i physics_2009:dgCollisionCone.obj
 0001:000519d0       ??_GdgCollisionCone@@UAEPAXI@Z 100529d0 f i physics_2009:dgCollisionCone.obj
 0001:00051a10       ?Init@dgCollisionCone@@AAEXNN@Z 10052a10 f   physics_2009:dgCollisionCone.obj
 0001:00051c90       ?SupportVertex@dgCollisionCone@@EBE?AVdgVector@@ABV2@@Z 10052c90 f   physics_2009:dgCollisionCone.obj
 0001:00051d40       ?CalculateMassProperties@dgCollisionCone@@EBENAAVdgVector@@00@Z 10052d40 f   physics_2009:dgCollisionCone.obj
 0001:00052030       ?CalculatePlaneIntersection@dgCollisionCylinder@@EBEHABVdgVector@@0QAV2@@Z 10053030 f   physics_2009:dgCollisionCylinder.obj
 0001:00052030       ?CalculatePlaneIntersection@dgCollisionCone@@EBEHABVdgVector@@0QAV2@@Z 10053030 f   physics_2009:dgCollisionCone.obj
 0001:00052210       ?Serialize@dgCollisionCone@@EBEXP6AXPAXPBXI@Z0@Z 10053210 f   physics_2009:dgCollisionCone.obj
 0001:00052260       ??0dgCollisionCone@@QAE@INNABVdgMatrix@@@Z 10053260 f   physics_2009:dgCollisionCone.obj
 0001:000522a0       ??0dgCollisionCone@@QAE@PAVdgWorld@@P6AXPAX1I@Z1@Z 100532a0 f   physics_2009:dgCollisionCone.obj
 0001:00052300       ?CalculateSignature@dgCollisionCylinder@@EBEHXZ 10053300 f   physics_2009:dgCollisionCylinder.obj
 0001:00052380       ?SetCollisionBBox@dgCollisionEllipse@@EAEXABVdgVector@@0@Z 10053380 f   physics_2009:dgCollisionEllipse.obj
 0001:00052380       ?SetCollisionBBox@dgCollisionCone@@EAEXABVdgVector@@0@Z 10053380 f   physics_2009:dgCollisionCone.obj
 0001:00052380       ?SetCollisionBBox@dgCollisionSphere@@MAEXABVdgVector@@0@Z 10053380 f   physics_2009:dgCollisionSphere.obj
 0001:00052380       ?SetCollisionBBox@dgCollisionChamferCylinder@@MAEXABVdgVector@@0@Z 10053380 f   physics_2009:dgCollisionChamferCylinder.obj
 0001:00052380       ?Serialize@dgCollisionUserMesh@@EBEXP6AXPAXPBXI@Z0@Z 10053380 f   physics_2009:dgCollisionUserMesh.obj
 0001:00052380       ?Serialize@dgCollisionConvexPolygon@dgCollisionMesh@@UBEXP6AXPAXPBXI@Z0@Z 10053380 f   physics_2009:dgCollisionMesh.obj
 0001:00052380       ?SetStiffness@dgConstraint@@UAEXN@Z 10053380 f   physics_2009:dgBilateralConstraint.obj
 0001:00052380       ?SetCollisionBBox@dgCollisionBox@@MAEXABVdgVector@@0@Z 10053380 f   physics_2009:dgCollisionBox.obj
 0001:00052380       ?SetCollisionBBox@dgCompoundCollision@@EAEXABVdgVector@@0@Z 10053380 f   physics_2009:dgCompoundCollision.obj
 0001:00052380       ?SetCollisionBBox@dgCollisionCapsule@@EAEXABVdgVector@@0@Z 10053380 f   physics_2009:dgCollisionCapsule.obj
 0001:00052380       ?GetAABB@dgPolygonSoupDatabase@@UBEXAAVdgVector@@0@Z 10053380 f   corelib_2009:dgAABBPolygonSoup.obj
 0001:00052380       ?SetCollisionBBox@dgCollisionConvexHull@@EAEXABVdgVector@@0@Z 10053380 f   physics_2009:dgCollisionConvexHull.obj
 0001:00052380       ?SetCollisionBBox@dgCollisionNull@@EAEXABVdgVector@@0@Z 10053380 f   physics_2009:dgCollisionNull.obj
 0001:00052380       ?SetCollisionBBox@dgCollisionCylinder@@EAEXABVdgVector@@0@Z 10053380 f   physics_2009:dgCollisionCylinder.obj
 0001:00052380       ?Serialize@dgCollisionMesh@@EBEXP6AXPAXPBXI@Z0@Z 10053380 f   physics_2009:dgCollisionMesh.obj
 0001:00052380       ?SetCollisionBBox@dgCollisionConvexPolygon@dgCollisionMesh@@UAEXABVdgVector@@0@Z 10053380 f   physics_2009:dgCollisionMesh.obj
 0001:00052380       ?SetCollisionBBox@dgCollisionConvexModifier@@EAEXABVdgVector@@0@Z 10053380 f   physics_2009:dgCollisionConvexModifier.obj
 0001:00052390       ?DebugCollision@dgCollisionCylinder@@EBEXABVdgMatrix@@P6AXPAXHPBNH@Z1@Z 10053390 f   physics_2009:dgCollisionCylinder.obj
 0001:00052600       ?RayCastSimd@dgConvexCollision@@UBENABVdgVector@@0AAVdgContactPoint@@P6AIPBVdgBody@@PBVdgCollision@@PAX@Z24@Z 10053600 f   physics_2009:dgConvexCollision.obj
 0001:00052600       ?RayCastSimd@dgCollisionBox@@MBENABVdgVector@@0AAVdgContactPoint@@P6AIPBVdgBody@@PBVdgCollision@@PAX@Z24@Z 10053600 f   physics_2009:dgCollisionBox.obj
 0001:00052600       ?RayCastSimd@dgCollisionCylinder@@EBENABVdgVector@@0AAVdgContactPoint@@P6AIPBVdgBody@@PBVdgCollision@@PAX@Z24@Z 10053600 f   physics_2009:dgCollisionCylinder.obj
 0001:00052600       ?RayCastSimd@dgCollisionCapsule@@EBENABVdgVector@@0AAVdgContactPoint@@P6AIPBVdgBody@@PBVdgCollision@@PAX@Z24@Z 10053600 f   physics_2009:dgCollisionCapsule.obj
 0001:00052600       ?RayCastSimd@dgCollisionUserMesh@@EBENABVdgVector@@0AAVdgContactPoint@@P6AIPBVdgBody@@PBVdgCollision@@PAX@Z24@Z 10053600 f   physics_2009:dgCollisionUserMesh.obj
 0001:00052600       ?RayCastSimd@dgCollisionSphere@@MBENABVdgVector@@0AAVdgContactPoint@@P6AIPBVdgBody@@PBVdgCollision@@PAX@Z24@Z 10053600 f   physics_2009:dgCollisionSphere.obj
 0001:00052610       ?GetCollisionInfo@dgCollisionCylinder@@EBEXPAVdgCollisionInfo@@@Z 10053610 f   physics_2009:dgCollisionCylinder.obj
 0001:00052670       ??_EdgCollisionCylinder@@UAEPAXI@Z 10053670 f i physics_2009:dgCollisionCylinder.obj
 0001:00052670       ??_GdgCollisionCylinder@@UAEPAXI@Z 10053670 f i physics_2009:dgCollisionCylinder.obj
 0001:000526b0       ?Serialize@dgCollisionCylinder@@EBEXP6AXPAXPBXI@Z0@Z 100536b0 f   physics_2009:dgCollisionCylinder.obj
 0001:00052720       ?Init@dgCollisionCylinder@@AAEXNN@Z 10053720 f   physics_2009:dgCollisionCylinder.obj
 0001:00052990       ?SupportVertex@dgCollisionCylinder@@EBE?AVdgVector@@ABV2@@Z 10053990 f   physics_2009:dgCollisionCylinder.obj
 0001:00052a20       ?CalculateMassProperties@dgCollisionCylinder@@EBENAAVdgVector@@00@Z 10053a20 f   physics_2009:dgCollisionCylinder.obj
 0001:00052ce0       ?RayCast@dgCollisionCylinder@@EBENABVdgVector@@0AAVdgContactPoint@@P6AIPBVdgBody@@PBVdgCollision@@PAX@Z24@Z 10053ce0 f   physics_2009:dgCollisionCylinder.obj
 0001:00053160       ??0dgCollisionCylinder@@QAE@INNABVdgMatrix@@@Z 10054160 f   physics_2009:dgCollisionCylinder.obj
 0001:000531a0       ??0dgCollisionCylinder@@QAE@PAVdgWorld@@P6AXPAX1I@Z1@Z 100541a0 f   physics_2009:dgCollisionCylinder.obj
 0001:00053200       ?CalculateSignature@dgCollisionChamferCylinder@@MBEHXZ 10054200 f   physics_2009:dgCollisionChamferCylinder.obj
 0001:00053280       ?SupportVertexSimd@dgCollisionChamferCylinder@@MBE?AVdgVector@@ABV2@@Z 10054280 f   physics_2009:dgCollisionChamferCylinder.obj
 0001:00053280       ?SupportVertexSimd@dgCollisionCone@@EBE?AVdgVector@@ABV2@@Z 10054280 f   physics_2009:dgCollisionCone.obj
 0001:00053280       ?SupportVertexSimd@dgCollisionCylinder@@EBE?AVdgVector@@ABV2@@Z 10054280 f   physics_2009:dgCollisionCylinder.obj
 0001:000532a0       ?GetCollisionInfo@dgCollisionChamferCylinder@@MBEXPAVdgCollisionInfo@@@Z 100542a0 f   physics_2009:dgCollisionChamferCylinder.obj
 0001:000532f0       ??_EdgCollisionChamferCylinder@@UAEPAXI@Z 100542f0 f i physics_2009:dgCollisionChamferCylinder.obj
 0001:000532f0       ??_GdgCollisionChamferCylinder@@UAEPAXI@Z 100542f0 f i physics_2009:dgCollisionChamferCylinder.obj
 0001:00053330       ?Serialize@dgCollisionChamferCylinder@@MBEXP6AXPAXPBXI@Z0@Z 10054330 f   physics_2009:dgCollisionChamferCylinder.obj
 0001:00053390       ?Init@dgCollisionChamferCylinder@@IAEXNN@Z 10054390 f   physics_2009:dgCollisionChamferCylinder.obj
 0001:000537d0       ?DebugCollision@dgCollisionChamferCylinder@@MBEXABVdgMatrix@@P6AXPAXHPBNH@Z1@Z 100547d0 f   physics_2009:dgCollisionChamferCylinder.obj
 0001:00053e80       ?SupportVertex@dgCollisionChamferCylinder@@MBE?AVdgVector@@ABV2@@Z 10054e80 f   physics_2009:dgCollisionChamferCylinder.obj
 0001:00053f60       ?RayCast@dgCollisionChamferCylinder@@MBENABVdgVector@@0AAVdgContactPoint@@P6AIPBVdgBody@@PBVdgCollision@@PAX@Z24@Z 10054f60 f   physics_2009:dgCollisionChamferCylinder.obj
 0001:000540d0       ?RayCastSimd@dgCollisionChamferCylinder@@MBENABVdgVector@@0AAVdgContactPoint@@P6AIPBVdgBody@@PBVdgCollision@@PAX@Z24@Z 100550d0 f   physics_2009:dgCollisionChamferCylinder.obj
 0001:00054240       ?CalculatePlaneIntersection@dgCollisionChamferCylinder@@MBEHABVdgVector@@0QAV2@@Z 10055240 f   physics_2009:dgCollisionChamferCylinder.obj
 0001:000549f0       ??0dgCollisionChamferCylinder@@QAE@INNABVdgMatrix@@@Z 100559f0 f   physics_2009:dgCollisionChamferCylinder.obj
 0001:00054a30       ??0dgCollisionChamferCylinder@@QAE@PAVdgWorld@@P6AXPAX1I@Z1@Z 10055a30 f   physics_2009:dgCollisionChamferCylinder.obj
 0001:00054a90       ?CalculatePlaneIntersectionSimd@dgCollisionChamferCylinder@@MBEHABVdgVector@@0QAV2@@Z 10055a90 f   physics_2009:dgCollisionChamferCylinder.obj
 0001:00054aa0       ?Malloc@dgMemoryAllocator@@QAEPAXH@Z 10055aa0 f i corelib_2009:dgMemory.obj
 0001:00054be0       ?Free@dgMemoryAllocator@@QAEXPAX@Z 10055be0 f i corelib_2009:dgMemory.obj
 0001:00054ce0       ?__free__@dgMemoryAllocator@@CAXPAXI@Z 10055ce0 f i corelib_2009:dgMemory.obj
 0001:00054ce0       ?DefaultFreeMemory@Newton@@SAXPAXH@Z 10055ce0 f i NewtonClass.obj
 0001:00054cf0       ?dgSetMemoryDrivers@@YAXP6APAXI@ZP6AXPAXI@Z@Z 10055cf0 f   corelib_2009:dgMemory.obj
 0001:00054d10       ?dgGetMemoryUsed@@YAHXZ    10055d10 f   corelib_2009:dgMemory.obj
 0001:00054d20       ?dgMallocStack@@YAPAXI@Z   10055d20 f   corelib_2009:dgMemory.obj
 0001:00054d50       ?dgFreeStack@@YAXPAX@Z     10055d50 f   corelib_2009:dgMemory.obj
 0001:00054d70       ?dgMalloc@@YAPAXI@Z        10055d70 f   corelib_2009:dgMemory.obj
 0001:00054d90       ?dgFree@@YAXPAX@Z          10055d90 f   corelib_2009:dgMemory.obj
 0001:00054db0       ?dgCRC@@YAIPBXHI@Z         10055db0 f   corelib_2009:dgCRC.obj
 0001:00054df0       ?TransformTriplex@dgMatrix@@QBEXQAXHQBXHH@Z 10055df0 f   corelib_2009:dgMatrix.obj
 0001:00055030       ?dgGetIdentityMatrix@@YAABVdgMatrix@@XZ 10056030 f   corelib_2009:dgMatrix.obj
 0001:00055130       ??0dgMatrix@@QAE@ABVdgQuaternion@@ABVdgVector@@@Z 10056130 f   corelib_2009:dgMatrix.obj
 0001:00055250       ??DdgMatrix@@QBE?AV0@ABV0@@Z 10056250 f   corelib_2009:dgMatrix.obj
 0001:000554c0       ?Symetric3by3Inverse@dgMatrix@@QBE?AV1@XZ 100564c0 f   corelib_2009:dgMatrix.obj
 0001:00055600       ?CalcPitchYawRoll@dgMatrix@@QBE?AVdgVector@@XZ 10056600 f   corelib_2009:dgMatrix.obj
 0001:000556f0       ?dgAbsf@@YANN@Z            100566f0 f   corelib_2009:dgTypes.obj
 0001:00055700       ?dgSqrt@@YANN@Z            10056700 f   corelib_2009:dgTypes.obj
 0001:00055710       ?dgSin@@YANN@Z             10056710 f   corelib_2009:dgTypes.obj
 0001:00055720       ?dgCos@@YANN@Z             10056720 f   corelib_2009:dgTypes.obj
 0001:00055730       ?dgAsin@@YANN@Z            10056730 f   corelib_2009:dgTypes.obj
 0001:00055750       ?dgAcos@@YANN@Z            10056750 f   corelib_2009:dgTypes.obj
 0001:00055770       ?dgAtan2@@YANNN@Z          10056770 f   corelib_2009:dgTypes.obj
 0001:00055790       ?dgFloor@@YANN@Z           10056790 f   corelib_2009:dgTypes.obj
 0001:000557d0       ?dgFastInt@@YAHN@Z         100567d0 f   corelib_2009:dgTypes.obj
 0001:00055800       ?GetMinMax@@YAXAAVdgVector@@0QBNHH@Z 10056800 f   corelib_2009:dgTypes.obj
 0001:00056a80       ?dgVertexListToIndexList@@YAHQANHHHHQAHN@Z 10057a80 f   corelib_2009:dgTypes.obj
 0001:00056c10       ?Minimum@dgRedBackNode@@QBEPAV1@XZ 10057c10 f   corelib_2009:dgTree.obj
 0001:00056c30       ?Next@dgRedBackNode@@QBEPAV1@XZ 10057c30 f   corelib_2009:dgTree.obj
 0001:00056c60       ?InsertFixup@dgRedBackNode@@QAEXPAPAV1@@Z 10057c60 f   corelib_2009:dgTree.obj
 0001:00056e30       ?RemoveFixup@dgRedBackNode@@QAEXPAV1@PAPAV1@@Z 10057e30 f   corelib_2009:dgTree.obj
 0001:000570e0       ?Unlink@dgRedBackNode@@QAEXPAPAV1@@Z 100580e0 f   corelib_2009:dgTree.obj
 0001:000571e0       ?RemoveAllLow@dgRedBackNode@@QAEXXZ 100581e0 f   corelib_2009:dgTree.obj
 0001:00057210       ?RemoveAll@dgRedBackNode@@QAEXXZ 10058210 f   corelib_2009:dgTree.obj
 0001:00057250       ?Remove@dgRedBackNode@@QAEXPAPAV1@@Z 10058250 f   corelib_2009:dgTree.obj
 0001:00057270       ??0dgThreads@@QAE@XZ       10058270 f   corelib_2009:dgThreads.obj
 0001:00057340       ?GetThreadCount@dgThreads@@QBEHXZ 10058340 f   corelib_2009:dgThreads.obj
 0001:00057350       ?DestroydgThreads@dgThreads@@QAEXXZ 10058350 f   corelib_2009:dgThreads.obj
 0001:00057420       ?SubmitJob@dgThreads@@QAEHPAVdgWorkerThread@@@Z 10058420 f   corelib_2009:dgThreads.obj
 0001:000574b0       ?GetWork@dgThreads@@AAEHPAPAVdgWorkerThread@@@Z 100584b0 f   corelib_2009:dgThreads.obj
 0001:00057530       ?DoWork@dgThreads@@AAEXXZ  10058530 f   corelib_2009:dgThreads.obj
 0001:00057580       ?SynchronizationBarrier@dgThreads@@QAEXXZ 10058580 f   corelib_2009:dgThreads.obj
 0001:000575a0       ?CalculateChunkSizes@dgThreads@@QBEXHQAH@Z 100585a0 f   corelib_2009:dgThreads.obj
 0001:000575f0       ?dgGetLock@dgThreads@@QAEXXZ 100585f0 f   corelib_2009:dgThreads.obj
 0001:00057630       ?dgReleaseLock@dgThreads@@QAEXXZ 10058630 f   corelib_2009:dgThreads.obj
 0001:00057640       ?dgGetIndirectLock@dgThreads@@QAEXPAH@Z 10058640 f   corelib_2009:dgThreads.obj
 0001:00057680       ?dgReleaseIndirectLock@dgThreads@@QAEXPAH@Z 10058680 f   corelib_2009:dgThreads.obj
 0001:00057690       ??1dgThreads@@QAE@XZ       10058690 f   corelib_2009:dgThreads.obj
 0001:000576a0       ?ThreadExecute@dgThreads@@CGIPAX@Z 100586a0 f   corelib_2009:dgThreads.obj
 0001:000576c0       ?CreateThreaded@dgThreads@@QAEXH@Z 100586c0 f   corelib_2009:dgThreads.obj
 0001:00057770       ??0VERTEX_METRIC_STRUCT@InternalPolyhedra@@QAE@ABVdgBigPlane@@@Z 10058770 f i corelib_2009:dgPolyhedra.obj
 0001:000577e0       ?Accumulate@VERTEX_METRIC_STRUCT@InternalPolyhedra@@QAEXAAVdgBigPlane@@@Z 100587e0 f i corelib_2009:dgPolyhedra.obj
 0001:00057870       ?Pop@?$dgDownHeap@PAVdgListNode@?$dgList@UEDGE_HANDLE@InternalPolyhedra@@@@N@@QAEXXZ 10058870 f i corelib_2009:dgPolyhedra.obj
 0001:00057870       ?Pop@?$dgDownHeap@PAVdgMinkFace@dgContactSolver@@N@@QAEXXZ 10058870 f i physics_2009:dgMinkowskiConv.obj
 0001:00057870       ?Pop@?$dgDownHeap@PAVdgEdge@@N@@QAEXXZ 10058870 f i corelib_2009:dgPolyhedra.obj
 0001:00057910       ?Push@?$dgDownHeap@PAVdgMinkFace@dgContactSolver@@N@@QAEXAAPAVdgMinkFace@dgContactSolver@@N@Z 10058910 f i physics_2009:dgMinkowskiConv.obj
 0001:00057910       ?Push@?$dgDownHeap@PAVdgListNode@?$dgList@UEDGE_HANDLE@InternalPolyhedra@@@@N@@QAEXAAPAVdgListNode@?$dgList@UEDGE_HANDLE@InternalPolyhedra@@@@N@Z 10058910 f i corelib_2009:dgPolyhedra.obj
 0001:00057910       ?Push@?$dgDownHeap@PAVdgEdge@@N@@QAEXAAPAVdgEdge@@N@Z 10058910 f i corelib_2009:dgPolyhedra.obj
 0001:000580b0       ?DeleteEdge@dgPolyhedra@@QAEXPAVdgEdge@@@Z 100590b0 f   corelib_2009:dgPolyhedra.obj
 0001:00058130       ?FaceNormal@dgPolyhedra@@QBE?AVdgVector@@PAVdgEdge@@QBNH@Z 10059130 f   corelib_2009:dgPolyhedra.obj
 0001:00058180       ?Append@?$dgList@PAVdgContact@@@@QAEPAVdgListNode@1@ABQAVdgContact@@@Z 10059180 f i physics_2009:dgContact.obj
 0001:00058180       ?Append@?$dgList@PAVdgEdge@@@@QAEPAVdgListNode@1@ABQAVdgEdge@@@Z 10059180 f i corelib_2009:dgPolyhedra.obj
 0001:00058210       ?Find@?$dgTree@VdgEdge@@_J@@QBEPAVdgTreeNode@1@_J@Z 10059210 f i corelib_2009:dgPolyhedra.obj
 0001:00058250       ?Addtop@?$dgList@UEDGE_HANDLE@InternalPolyhedra@@@@QAEPAVdgListNode@1@ABUEDGE_HANDLE@InternalPolyhedra@@@Z 10059250 f i corelib_2009:dgPolyhedra.obj
 0001:00058300       ?Insert@?$dgTree@VdgEdge@@_J@@QAEPAVdgTreeNode@1@PAV21@_J@Z 10059300 f i corelib_2009:dgPolyhedra.obj
 0001:000583c0       ?RemoveAll@?$dgList@UEDGE_HANDLE@InternalPolyhedra@@@@QAEXXZ 100593c0 f i corelib_2009:dgPolyhedra.obj
 0001:00058d60       ??0dgPolyhedra@@QAE@XZ     10059d60 f   corelib_2009:dgPolyhedra.obj
 0001:00058d80       ??1dgPolyhedra@@UAE@XZ     10059d80 f   corelib_2009:dgPolyhedra.obj
 0001:00058db0       ?DeleteFace@dgPolyhedra@@QAEXPAVdgEdge@@@Z 10059db0 f   corelib_2009:dgPolyhedra.obj
 0001:00058e20       ?DeleteDegenerateFaces@dgPolyhedra@@QAEXQBNHN@Z 10059e20 f   corelib_2009:dgPolyhedra.obj
 0001:00058f50       ?SwapInfo@dgPolyhedra@@QAEXAAV1@@Z 10059f50 f   corelib_2009:dgPolyhedra.obj
 0001:00059630       ?Update@dgPolyhedraDescriptor@@QAEXABVdgPolyhedra@@@Z 1005a630 f   corelib_2009:dgPolyhedra.obj
 0001:00059770       ??_EdgPolyhedra@@UAEPAXI@Z 1005a770 f i corelib_2009:dgPolyhedra.obj
 0001:00059770       ??_GdgPolyhedra@@UAEPAXI@Z 1005a770 f i corelib_2009:dgPolyhedra.obj
 0001:000597b0       ?CollapseEdge@dgPolyhedra@@AAEPAVdgEdge@@PAV2@@Z 1005a7b0 f   corelib_2009:dgPolyhedra.obj
 0001:00059bb0       ?ChangeEdgeIncidentVertex@dgPolyhedra@@QAEXPAVdgEdge@@H@Z 1005abb0 f   corelib_2009:dgPolyhedra.obj
 0001:00059c80       ?Insert@?$dgTree@VdgEdge@@_J@@QAEPAVdgTreeNode@1@ABVdgEdge@@_JAA_N@Z 1005ac80 f i corelib_2009:dgPolyhedra.obj
 0001:00059ec0       ?EndFace@dgPolyhedra@@QAEXXZ 1005aec0 f   corelib_2009:dgPolyhedra.obj
 0001:00059ee0       ?AddFace@dgPolyhedra@@QAEPAVdgEdge@@HQBHQB_J@Z 1005aee0 f   corelib_2009:dgPolyhedra.obj
 0001:0005a180       ?Optimize@dgPolyhedra@@QAEXQBNHN@Z 1005b180 f   corelib_2009:dgPolyhedra.obj
 0001:0005a8d0       ??0dgPolyhedra@@QAE@ABV0@@Z 1005b8d0 f   corelib_2009:dgPolyhedra.obj
 0001:0005aa10       ?AddFace@dgPolyhedra@@QAEPAVdgEdge@@HQBH@Z 1005ba10 f   corelib_2009:dgPolyhedra.obj
 0001:0005aa60       ?AddFace@dgPolyhedra@@QAEPAVdgEdge@@HHH@Z 1005ba60 f   corelib_2009:dgPolyhedra.obj
 0001:0005aab0       ?AddHalfEdge@dgPolyhedra@@QAEPAVdgEdge@@HH@Z 1005bab0 f   corelib_2009:dgPolyhedra.obj
 0001:0005ab40       ?SpliteEdge@dgPolyhedra@@QAEXHPAVdgEdge@@@Z 1005bb40 f   corelib_2009:dgPolyhedra.obj
 0001:0005ac30       ?SpliteEdgeAndTriangulate@dgPolyhedra@@QAEXHPAVdgEdge@@@Z 1005bc30 f   corelib_2009:dgPolyhedra.obj
 0001:0005ad10       ?GetConectedSurface@dgPolyhedra@@QBE_NAAV1@@Z 1005bd10 f   corelib_2009:dgPolyhedra.obj
 0001:0005bc90       ?TriangulateFace@dgPolyhedra@@QAE_NPAVdgEdge@@QBNHAAVdgVector@@@Z 1005cc90 f   corelib_2009:dgPolyhedra.obj
 0001:0005bd10       ?Triangulate@dgPolyhedra@@QAEXQBNHPAV1@@Z 1005cd10 f   corelib_2009:dgPolyhedra.obj
 0001:0005bef0       ?ConvexPartition@dgPolyhedra@@QAEXQBNHPAV1@@Z 1005cef0 f   corelib_2009:dgPolyhedra.obj
 0001:0005bf70       ??0dgStackBase@@IAE@H@Z    1005cf70 f   corelib_2009:dgStack.obj
 0001:0005bf90       ??1dgStackBase@@IAE@XZ     1005cf90 f   corelib_2009:dgStack.obj
 0001:0005bfa0       ?ForAllSectors@dgPolygonSoupDatabase@@MBEXABVdgVector@@0P6A?AW4dgIntersectStatus@@PAXQBNHQBHH@ZQAX@Z 1005cfa0 f i corelib_2009:dgAABBPolygonSoup.obj
 0001:0005bfa0       ?ForAllSectorsSimd@dgPolygonSoupDatabase@@MBEXABVdgVector@@0P6A?AW4dgIntersectStatus@@PAXQBNHQBHH@ZQAX@Z 1005cfa0 f i corelib_2009:dgAABBPolygonSoup.obj
 0001:0005bfb0       ?ForAllSectorsRayHit@dgPolygonSoupDatabase@@MBEXABVFastRayTest@@P6ANPAXQBNHQBHH@ZQAX@Z 1005cfb0 f i corelib_2009:dgAABBPolygonSoup.obj
 0001:0005bfb0       ?CalcAABBSimD@dgCollisionBox@@MBEXABVdgMatrix@@AAVdgVector@@1@Z 1005cfb0 f i physics_2009:dgCollisionBox.obj
 0001:0005bfb0       ?ForAllSectorsRayHitSimd@dgAABBPolygonSoup@@MBEXABVFastRayTest@@P6ANPAXQBNHQBHH@ZQAX@Z 1005cfb0 f i corelib_2009:dgAABBPolygonSoup.obj
 0001:0005bfb0       ?CalcAABBSimD@dgCompoundCollision@@MBEXABVdgMatrix@@AAVdgVector@@1@Z 1005cfb0 f i physics_2009:dgCompoundCollision.obj
 0001:0005bfb0       ?CalcAABBSimD@dgCollisionConvexModifier@@MBEXABVdgMatrix@@AAVdgVector@@1@Z 1005cfb0 f i physics_2009:dgCollisionConvexModifier.obj
 0001:0005bfb0       ?ForAllSectorsRayHitSimd@dgPolygonSoupDatabase@@MBEXABVFastRayTest@@P6ANPAXQBNHQBHH@ZQAX@Z 1005cfb0 f i corelib_2009:dgAABBPolygonSoup.obj
 0001:0005bfb0       ?SpliteAcrossPlane@dgConvexCollision@@IBEXABVdgPlane@@PAPAVdgCollisionConvexHull@@1@Z 1005cfb0 f i physics_2009:dgConvexCollision.obj
 0001:0005bfb0       ?UpdateCollisionMatrixSimD@dgBody@@AAEXNH@Z 1005cfb0 f i physics_2009:dgBody.obj
 0001:0005bfb0       ?DebugCollision@dgCollisionMesh@@EBEXABVdgMatrix@@P6AXPAXHPBNH@Z1@Z 1005cfb0 f i physics_2009:dgCollisionMesh.obj
 0001:0005bfb0       ?CalcAABBSimD@dgConvexCollision@@UBEXABVdgMatrix@@AAVdgVector@@1@Z 1005cfb0 f i physics_2009:dgConvexCollision.obj
 0001:0005bfb0       ?DebugCollision@dgCollisionNull@@MBEXABVdgMatrix@@P6AXPAXHPBNH@Z1@Z 1005cfb0 f i physics_2009:dgCollisionNull.obj
 0001:0005bfb0       ?DebugCollision@dgCollisionUserMesh@@EBEXABVdgMatrix@@P6AXPAXHPBNH@Z1@Z 1005cfb0 f i physics_2009:dgCollisionUserMesh.obj
 0001:0005bfc0       ?ForAllSectorsSimd@dgAABBTree@@QBEXQBHQBNABVdgVector@@2P6A?AW4dgIntersectStatus@@PAX1H0H@Z3@Z 1005cfc0 f i corelib_2009:dgAABBPolygonSoup.obj
 0001:0005c120       ?ForAllSectors@dgAABBTree@@QBEXQBHQBNABVdgVector@@2P6A?AW4dgIntersectStatus@@PAX1H0H@Z3@Z 1005d120 f i corelib_2009:dgAABBPolygonSoup.obj
 0001:0005c440       ?CompareBox@dgAABBTree@@CAHQBV1@0PAX@Z 1005d440 f i corelib_2009:dgAABBPolygonSoup.obj
 0001:0005c4a0       ??0dgAABBPolygonSoup@@IAE@XZ 1005d4a0 f   corelib_2009:dgAABBPolygonSoup.obj
 0001:0005c4c0       ??1dgAABBPolygonSoup@@MAE@XZ 1005d4c0 f   corelib_2009:dgAABBPolygonSoup.obj
 0001:0005c500       ?ForAllSectorsSimd@dgAABBPolygonSoup@@MBEXABVdgVector@@0P6A?AW4dgIntersectStatus@@PAXQBNHQBHH@ZQAX@Z 1005d500 f   corelib_2009:dgAABBPolygonSoup.obj
 0001:0005c530       ?ForAllSectors@dgAABBPolygonSoup@@MBEXABVdgVector@@0P6A?AW4dgIntersectStatus@@PAXQBNHQBHH@ZQAX@Z 1005d530 f   corelib_2009:dgAABBPolygonSoup.obj
 0001:0005c560       ?Serialize@dgAABBPolygonSoup@@UBEXP6AXPAXPBXI@Z0@Z 1005d560 f   corelib_2009:dgAABBPolygonSoup.obj
 0001:0005c5e0       ?Deserialize@dgAABBPolygonSoup@@UAEXP6AXPAX0I@Z0@Z 1005d5e0 f   corelib_2009:dgAABBPolygonSoup.obj
 0001:0005c6b0       ??$dgSort@VdgAABBTree@@@@YAXQAVdgAABBTree@@HP6AHQBV0@1PAX@Z2@Z 1005d6b0 f i corelib_2009:dgAABBPolygonSoup.obj
 0001:0005c920       ?Resize@?$dgArray@VdgTriplex@@@@QBEXH@Z 1005d920 f i corelib_2009:dgAABBPolygonSoup.obj
 0001:0005ca30       ?Resize@?$dgArray@H@@QBEXH@Z 1005da30 f i corelib_2009:dgAABBPolygonSoup.obj
 0001:0005cae0       ??_EdgPolygonSoupDatabase@@MAEPAXI@Z 1005dae0 f i corelib_2009:dgAABBPolygonSoup.obj
 0001:0005cae0       ??_GdgPolygonSoupDatabase@@MAEPAXI@Z 1005dae0 f i corelib_2009:dgAABBPolygonSoup.obj
 0001:0005cb10       ?CalcExtends@dgAABBTree@@QAEXQAVdgTriplex@@HQBH@Z 1005db10 f i corelib_2009:dgAABBPolygonSoup.obj
 0001:0005cf40       ?ForAllSectorsRayHit@dgAABBTree@@QBEXABVFastRayTest@@PBHPBNP6ANPAXQBNHQBHH@ZQAX@Z 1005df40 f i corelib_2009:dgAABBPolygonSoup.obj
 0001:0005d220       ?ForAllSectorsSupportVertex@dgAABBTree@@QBE?AVdgVector@@ABV2@QBHQBN@Z 1005e220 f i corelib_2009:dgAABBPolygonSoup.obj
 0001:0005da20       ?CalcBoxFromBoxArray@dgAABBTree@@AAEXQBV1@HPAVdgTriplex@@AAH@Z 1005ea20 f i corelib_2009:dgAABBPolygonSoup.obj
 0001:0005dec0       ?GetAxis@dgAABBTree@@ABEHQBV1@HQBVdgTriplex@@@Z 1005eec0 f i corelib_2009:dgAABBPolygonSoup.obj
 0001:0005e300       ?SpliteBoxArray@dgAABBTree@@ABEHQAV1@HQBVdgTriplex@@@Z 1005f300 f i corelib_2009:dgAABBPolygonSoup.obj
 0001:0005e630       ??_GdgAABBPolygonSoup@@MAEPAXI@Z 1005f630 f i corelib_2009:dgAABBPolygonSoup.obj
 0001:0005e630       ??_EdgAABBPolygonSoup@@MAEPAXI@Z 1005f630 f i corelib_2009:dgAABBPolygonSoup.obj
 0001:0005e680       ?ForAllSectorsSupportVectex@dgAABBPolygonSoup@@MBE?AVdgVector@@ABV2@@Z 1005f680 f   corelib_2009:dgAABBPolygonSoup.obj
 0001:0005e6c0       ?GetAABB@dgAABBPolygonSoup@@UBEXAAVdgVector@@0@Z 1005f6c0 f   corelib_2009:dgAABBPolygonSoup.obj
 0001:0005e770       ?ForAllSectorsRayHit@dgAABBPolygonSoup@@MBEXABVFastRayTest@@P6ANPAXQBNHQBHH@ZQAX@Z 1005f770 f   corelib_2009:dgAABBPolygonSoup.obj
 0001:0005e7a0       ?CollectMyFaces@dgAABBPolygonSoup@@CA?AW4dgIntersectStatus@@PAXQBNHQBHH@Z 1005f7a0 f   corelib_2009:dgAABBPolygonSoup.obj
 0001:0005e920       ?Build@dgAABBTree@@QAEXPAV1@QAV1@QBV1@HPBV1@AAHQAVdgTriplex@@4@Z 1005f920 f i corelib_2009:dgAABBPolygonSoup.obj
 0001:0005ea40       ?CollectAllFaces@dgAABBPolygonSoup@@CA?AW4dgIntersectStatus@@PAXQBNHQBHH@Z 1005fa40 f   corelib_2009:dgAABBPolygonSoup.obj
 0001:0005ef80       ?Create@dgAABBPolygonSoup@@IAEXABVdgPolygonSoupDatabaseBuilder@@@Z 1005ff80 f   corelib_2009:dgAABBPolygonSoup.obj
 0001:0005f4e0       ?AddFilterFace@dgPolySoupFilterAllocator@@QAEHIQAH@Z 100604e0 f i corelib_2009:dgPolygonSoupBuilder.obj
 0001:0005f590       ?Begin@dgPolygonSoupDatabaseBuilder@@QAEXXZ 10060590 f   corelib_2009:dgPolygonSoupBuilder.obj
 0001:0005f5a0       ??_GdgPolySoupFilterAllocator@@UAEPAXI@Z 100605a0 f i corelib_2009:dgPolygonSoupBuilder.obj
 0001:0005f5a0       ??_EdgPolySoupFilterAllocator@@UAEPAXI@Z 100605a0 f i corelib_2009:dgPolygonSoupBuilder.obj
 0001:0005f5d0       ??1dgPolygonSoupDatabaseBuilder@@QAE@XZ 100605d0 f   corelib_2009:dgPolygonSoupBuilder.obj
 0001:0005f630       ??A?$dgArray@VdgTriplex@@@@QAEAAVdgTriplex@@H@Z 10060630 f i corelib_2009:dgPolygonSoupBuilder.obj
 0001:0005f660       ??0dgPolygonSoupDatabaseBuilder@@QAE@XZ 10060660 f   corelib_2009:dgPolygonSoupBuilder.obj
 0001:0005f6b0       ?FilterFace@dgPolygonSoupDatabaseBuilder@@AAEHHQAH@Z 100606b0 f   corelib_2009:dgPolygonSoupBuilder.obj
 0001:0005ff10       ?AddConvexFace@dgPolygonSoupDatabaseBuilder@@AAEHHQAH0@Z 10060f10 f   corelib_2009:dgPolygonSoupBuilder.obj
 0001:000607c0       ?AddMesh@dgPolygonSoupDatabaseBuilder@@QAEXQBNHHHQBH11ABVdgMatrix@@@Z 100617c0 f   corelib_2009:dgPolygonSoupBuilder.obj
 0001:00060a90       ?OptimizeByGroupID@dgPolygonSoupDatabaseBuilder@@AAEXAAV1@HH0@Z 10061a90 f   corelib_2009:dgPolygonSoupBuilder.obj
 0001:00060f80       ?OptimizeByIndividualFaces@dgPolygonSoupDatabaseBuilder@@AAEXXZ 10061f80 f   corelib_2009:dgPolygonSoupBuilder.obj
 0001:000610c0       ?Insert@?$dgTree@HH@@QAEPAVdgTreeNode@1@ABHHAA_N@Z 100620c0 f i corelib_2009:dgPolygonSoupBuilder.obj
 0001:00061190       ?OptimizeByGroupID@dgPolygonSoupDatabaseBuilder@@AAEXXZ 10062190 f   corelib_2009:dgPolygonSoupBuilder.obj
 0001:00061920       ?EndAndOptimize@dgPolygonSoupDatabaseBuilder@@AAEX_N@Z 10062920 f   corelib_2009:dgPolygonSoupBuilder.obj
 0001:00061a50       ?End@dgPolygonSoupDatabaseBuilder@@QAEX_N@Z 10062a50 f   corelib_2009:dgPolygonSoupBuilder.obj
 0001:00062b20       ?BoxTestSimd@FastRayTest@@QBEHABVdgVector@@0@Z 10063b20 f   corelib_2009:dgIntersections.obj
 0001:00062b30       ?PolygonIntersectSimd@FastRayTest@@QBENABVdgVector@@QBNHQBHH@Z 10063b30 f   corelib_2009:dgIntersections.obj
 0001:00062b40       ??0FastRayTest@@QAE@ABVdgVector@@0@Z 10063b40 f   corelib_2009:dgIntersections.obj
 0001:00062d90       ?BoxTest@FastRayTest@@QBEHABVdgVector@@0@Z 10063d90 f   corelib_2009:dgIntersections.obj
 0001:00062e40       ?PolygonIntersect@FastRayTest@@QBENABVdgVector@@QBNHQBHH@Z 10063e40 f   corelib_2009:dgIntersections.obj
 0001:00062fd0       ?dgRayBoxClip@@YA_NAAVdgVector@@0ABV1@1@Z 10063fd0 f   corelib_2009:dgIntersections.obj
 0001:000631a0       ?dgPointToRayDistance@@YA?AVdgVector@@ABV1@00@Z 100641a0 f   corelib_2009:dgIntersections.obj
 0001:00063240       ?dgRayToRayDistance@@YAXABVdgVector@@000AAV1@1@Z 10064240 f   corelib_2009:dgIntersections.obj
 0001:00063560       ?dgPointToTriangleDistance@@YA?AVdgBigVector@@ABV1@000@Z 10064560 f   corelib_2009:dgIntersections.obj
 0001:00063560       ?dgPointToTriangleDistance@@YA?AVdgVector@@ABV1@000@Z 10064560 f   corelib_2009:dgIntersections.obj
 0001:000638f0       ??0dgQuaternion@@QAE@ABVdgVector@@N@Z 100648f0 f   corelib_2009:dgQuaternion.obj
 0001:00063940       ??0dgQuaternion@@QAE@ABVdgMatrix@@@Z 10064940 f   corelib_2009:dgQuaternion.obj
 0001:00063a62       __cfltcvt_init             10064a62 f   LIBCMT:_fpinit_.obj
 0001:00063ac2       __fpmath                   10064ac2 f   LIBCMT:_fpinit_.obj
 0001:00063af0       _ceil                      10064af0 f   LIBCMT:_ceil_pentium4_.obj
 0001:00063b30       __ceil_pentium4            10064b30 f   LIBCMT:_ceil_pentium4_.obj
 0001:00063c10       __ftol2_sse                10064c10 f   LIBCMT:ftol2.obj
 0001:00063c19       __ftol2_pentium4           10064c19 f   LIBCMT:ftol2.obj
 0001:00063c2c       __ftol2_sse_excpt          10064c2c f   LIBCMT:ftol2.obj
 0001:00063c46       __ftol2                    10064c46 f   LIBCMT:ftol2.obj
 0001:00063cbb       _V6_HeapAlloc              10064cbb f   LIBCMT:malloc.obj
 0001:00063d0a       _malloc                    10064d0a f   LIBCMT:malloc.obj
 0001:00063dd4       _free                      10064dd4 f   LIBCMT:free.obj
 0001:00063e70       _memset                    10064e70 f   LIBCMT:memset.obj
 0001:00063ef0       _memcpy                    10064ef0 f   LIBCMT:memcpy.obj
 0001:00064260       __chkstk                   10065260 f   LIBCMT:chkstk.obj
 0001:00064260       __alloca_probe             10065260     LIBCMT:chkstk.obj
 0001:0006428b       __CRT_INIT@12              1006528b f   LIBCMT:dllcrt0.obj
 0001:000644b6       __DllMainCRTStartup@12     100654b6 f   LIBCMT:dllcrt0.obj
 0001:000644d9       _sprintf                   100654d9 f   LIBCMT:sprintf.obj
 0001:00064684       __control87                10065684 f i LIBCMT:_ieee87_.obj
 0001:00064993       __controlfp                10065993 f   LIBCMT:_ieee87_.obj
 0001:00064ca5       __purecall                 10065ca5 f   LIBCMT:purevirt.obj
 0001:00064cd0       _pow                       10065cd0 f   LIBCMT:_pow_.obj
 0001:00064d10       __CIpow                    10065d10 f   LIBCMT:_pow_.obj
 0001:00064d4b       __CIpow_default            10065d4b f   LIBCMT:_pow_.obj
 0001:00064d64       __pow_default              10065d64     LIBCMT:_pow_.obj
 0001:00065014       ___onexitinit              10066014 f   LIBCMT:onexit.obj
 0001:00065045       __onexit                   10066045 f   LIBCMT:onexit.obj
 0001:00065081       _atexit                    10066081 f   LIBCMT:onexit.obj
 0001:00065098       __endthreadex              10066098 f   LIBCMT:threadex.obj
 0001:00065199       __beginthreadex            10066199 f   LIBCMT:threadex.obj
 0001:00065250       __allmul                   10066250 f   LIBCMT:llmul.obj
 0001:00065290       __CIsqrt                   10066290 f   LIBCMT:_sqrt_.obj
 0001:000652a4       _sqrt                      100662a4     LIBCMT:_sqrt_.obj
 0001:0006534a       ??0_LocaleUpdate@@QAE@PAUlocaleinfo_struct@@@Z 1006634a f i LIBCMT:cvt.obj
 0001:000653d1       __forcdecpt_l              100663d1 f   LIBCMT:cvt.obj
 0001:00065444       __cropzeros_l              10066444 f   LIBCMT:cvt.obj
 0001:000654c6       __positive                 100664c6 f   LIBCMT:cvt.obj
 0001:000654e2       __fassign_l                100664e2 f   LIBCMT:cvt.obj
 0001:00065524       __fassign                  10066524 f   LIBCMT:cvt.obj
 0001:0006555d       __forcdecpt                1006655d f   LIBCMT:cvt.obj
 0001:00065570       __cropzeros                10066570 f   LIBCMT:cvt.obj
 0001:000656f2       __cftoe_l                  100666f2 f   LIBCMT:cvt.obj
 0001:000657c2       __cftoe                    100667c2 f   LIBCMT:cvt.obj
 0001:000657e2       __cftoa_l                  100667e2 f   LIBCMT:cvt.obj
 0001:00065c4c       __cftof_l                  10066c4c f   LIBCMT:cvt.obj
 0001:00065d07       __cftog_l                  10066d07 f   LIBCMT:cvt.obj
 0001:00065e01       __cfltcvt_l                10066e01 f   LIBCMT:cvt.obj
 0001:00065e89       __cfltcvt                  10066e89 f   LIBCMT:cvt.obj
 0001:00065eac       __initp_misc_cfltcvt_tab   10066eac f   LIBCMT:cmiscdat.obj
 0001:00065ecd       __setdefaultprecision      10066ecd f   LIBCMT:fp8.obj
 0001:00065ef8       __ms_p5_test_fdiv          10066ef8 f   LIBCMT:_testfdiv_.obj
 0001:00065f36       __ms_p5_mp_test_fdiv       10066f36 f   LIBCMT:_testfdiv_.obj
 0001:00065f5f       ___libm_error_support      10066f5f f   LIBCMT:_libm_error_.obj
 0001:0006620f       __sse2_mathfcns_init       1006720f f   LIBCMT:_mathfcns_.obj
 0001:00066223       __ceil_default             10067223 f   LIBCMT:_ceil_.obj
 0001:000662f8       __mtinitlocks              100672f8 f   LIBCMT:mlock.obj
 0001:00066343       __mtdeletelocks            10067343 f   LIBCMT:mlock.obj
 0001:0006639a       __unlock                   1006739a f   LIBCMT:mlock.obj
 0001:000663b1       __mtinitlocknum            100673b1 f   LIBCMT:mlock.obj
 0001:00066474       __lock                     10067474 f   LIBCMT:mlock.obj
 0001:000664a7       ___sbh_find_block          100674a7 f   LIBCMT:sbheap.obj
 0001:000664d7       ___sbh_free_block          100674d7 f   LIBCMT:sbheap.obj
 0001:000667ed       ___sbh_alloc_new_region    100677ed f   LIBCMT:sbheap.obj
 0001:0006689d       ___sbh_alloc_new_group     1006789d f   LIBCMT:sbheap.obj
 0001:000669a5       ___sbh_resize_block        100679a5 f   LIBCMT:sbheap.obj
 0001:00066c86       ___sbh_alloc_block         10067c86 f   LIBCMT:sbheap.obj
 0001:00066f6c       __SEH_prolog4              10067f6c f   LIBCMT:sehprolg4.obj
 0001:00066fb1       __SEH_epilog4              10067fb1 f   LIBCMT:sehprolg4.obj
 0001:00066fd0       __except_handler4          10067fd0 f   LIBCMT:chandler4.obj
 0001:0006715c       __heap_init                1006815c f   LIBCMT:heapinit.obj
 0001:0006718c       __heap_term                1006818c f   LIBCMT:heapinit.obj
 0001:00067200       __crt_waiting_on_module_handle 10068200 f   LIBCMT:crt0dat.obj
 0001:00067230       __amsg_exit                10068230 f   LIBCMT:crt0dat.obj
 0001:00067259       ___crtCorExitProcess       10068259 f   LIBCMT:crt0dat.obj
 0001:00067284       ___crtExitProcess          10068284 f   LIBCMT:crt0dat.obj
 0001:0006729c       __lockexit                 1006829c f   LIBCMT:crt0dat.obj
 0001:000672a5       __unlockexit               100682a5 f   LIBCMT:crt0dat.obj
 0001:000672cb       __initterm_e               100682cb f   LIBCMT:crt0dat.obj
 0001:000672ef       __cinit                    100682ef f   LIBCMT:crt0dat.obj
 0001:000674a0       __exit                     100684a0 f   LIBCMT:crt0dat.obj
 0001:000674b6       __cexit                    100684b6 f   LIBCMT:crt0dat.obj
 0001:000674c5       __init_pointers            100684c5 f   LIBCMT:crt0dat.obj
 0001:00067513       __NMSG_WRITE               10068513 f   LIBCMT:crt0msg.obj
 0001:000676be       __FF_MSGBANNER             100686be f   LIBCMT:crt0msg.obj
 0001:000676f7       __get_errno_from_oserr     100686f7 f   LIBCMT:dosmap.obj
 0001:00067739       __errno                    10068739 f   LIBCMT:dosmap.obj
 0001:0006774c       ___doserrno                1006874c f   LIBCMT:dosmap.obj
 0001:0006775f       __dosmaperr                1006875f f   LIBCMT:dosmap.obj
 0001:00067782       __initp_heap_handler       10068782 f   LIBCMT:handler.obj
 0001:00067791       __callnewh                 10068791 f   LIBCMT:handler.obj
 0001:00067810       __VEC_memzero              10068810 f   LIBCMT:p4_memset.obj
 0001:00067926       __VEC_memcpy               10068926 f   LIBCMT:p4_memcpy.obj
 0001:00067a09       __encode_pointer           10068a09 f   LIBCMT:tidtable.obj
 0001:00067a7b       __encoded_null             10068a7b f   LIBCMT:tidtable.obj
 0001:00067a84       __decode_pointer           10068a84 f   LIBCMT:tidtable.obj
 0001:00067af6       ___crtTlsAlloc@4           10068af6 f   LIBCMT:tidtable.obj
 0001:00067aff       ___fls_getvalue@4          10068aff f   LIBCMT:tidtable.obj
 0001:00067b19       ___get_flsindex            10068b19 f   LIBCMT:tidtable.obj
 0001:00067b1f       ___set_flsgetvalue         10068b1f f   LIBCMT:tidtable.obj
 0001:00067b53       ___fls_setvalue@8          10068b53 f   LIBCMT:tidtable.obj
 0001:00067b70       __mtterm                   10068b70 f   LIBCMT:tidtable.obj
 0001:00067bad       __initptd                  10068bad f   LIBCMT:tidtable.obj
 0001:00067c94       __getptd_noexit            10068c94 f   LIBCMT:tidtable.obj
 0001:00067d0d       __getptd                   10068d0d f   LIBCMT:tidtable.obj
 0001:00067d27       __freefls@4                10068d27 f   LIBCMT:tidtable.obj
 0001:00067e56       __freeptd                  10068e56 f   LIBCMT:tidtable.obj
 0001:00067ec4       __mtinit                   10068ec4 f   LIBCMT:tidtable.obj
 0001:00068051       __malloc_crt               10069051 f   LIBCMT:crtheap.obj
 0001:00068096       __calloc_crt               10069096 f   LIBCMT:crtheap.obj
 0001:000680e2       __realloc_crt              100690e2 f   LIBCMT:crtheap.obj
 0001:00068130       __ioinit                   10069130 f   LIBCMT:ioinit.obj
 0001:00068384       __ioterm                   10069384 f   LIBCMT:ioinit.obj
 0001:000683d2       __setenvp                  100693d2 f   LIBCMT:stdenvp.obj
 0001:0006864a       __setargv                  1006964a f   LIBCMT:stdargv.obj
 0001:00068705       ___crtGetEnvironmentStringsA 10069705 f   LIBCMT:a_env.obj
 0001:0006883c       __RTC_Initialize           1006983c f   LIBCMT:_initsect_.obj
 0001:00068862       __RTC_Terminate            10069862 f   LIBCMT:_initsect_.obj
 0001:00068888       __initp_misc_winxfltr      10069888 f   LIBCMT:winxfltr.obj
 0001:00068888       __fpclear                  10069888 f   LIBCMT:_fpinit_.obj
 0001:00068889       __XcptFilter               10069889 f   LIBCMT:winxfltr.obj
 0001:000689e9       ___CppXcptFilter           100699e9 f   LIBCMT:winxfltr.obj
 0001:00068a09       ___security_init_cookie    10069a09 f   LIBCMT:gs_support.obj
 0001:00068a9f       __flsbuf                   10069a9f f   LIBCMT:_flsbuf.obj
 0001:00068ca9       __output_l                 10069ca9 f   LIBCMT:output.obj
 0001:00069841       __initp_misc_invarg        1006a841 f   LIBCMT:invarg.obj
 0001:00069850       __invoke_watson            1006a850 f   LIBCMT:invarg.obj
 0001:00069978       __invalid_parameter        1006a978 f   LIBCMT:invarg.obj
 0001:0006999e       __controlfp_s              1006a99e f   LIBCMT:_contrlfp_.obj
 0001:00069a0a       __statfp                   1006aa0a f   LIBCMT:_fpctrl_.obj
 0001:00069a1a       __clrfp                    1006aa1a f   LIBCMT:_fpctrl_.obj
 0001:00069a2b       __ctrlfp                   1006aa2b f   LIBCMT:_fpctrl_.obj
 0001:00069a54       __set_statfp               1006aa54 f   LIBCMT:_fpctrl_.obj
 0001:00069aac       ___set_fpsr_sse2           1006aaac f   LIBCMT:_fpctrl_.obj
 0001:00069b1e       __initp_misc_winsig        1006ab1e f   LIBCMT:winsig.obj
 0001:00069b73       ___get_sigabrt             1006ab73 f   LIBCMT:winsig.obj
 0001:00069b80       _raise                     1006ab80 f   LIBCMT:winsig.obj
 0001:00069d30       _abort                     1006ad30 f   LIBCMT:abort.obj
 0001:00069e47       __set_abort_behavior       1006ae47 f   LIBCMT:abort.obj
 0001:00069e68       __initp_misc_purevirt      1006ae68 f   LIBCMT:inithelp.obj
 0001:00069e80       __CIpow_pentium4           1006ae80 f   LIBCMT:_pow_pentium4_.obj
 0001:00069e99       __pow_pentium4             1006ae99     LIBCMT:_pow_pentium4_.obj
 0001:0006a9f1       __fFEXP                    1006b9f1     LIBCMT:_87tran_.obj
 0001:0006aa58       __rtinfpopse               1006ba58     LIBCMT:_87tran_.obj
 0001:0006aa5a       __rtinfnpopse              1006ba5a     LIBCMT:_87tran_.obj
 0001:0006aa6a       __fFLN                     1006ba6a     LIBCMT:_87tran_.obj
 0001:0006ab1f       __rtinfpop                 1006bb1f     LIBCMT:_87tran_.obj
 0001:0006ab21       __rtinfnpop                1006bb21     LIBCMT:_87tran_.obj
 0001:0006ab3e       __ffexpm1                  1006bb3e     LIBCMT:_87tran_.obj
 0001:0006abf0       __trandisp1                1006bbf0 f   LIBCMT:_87disp_.obj
 0001:0006ac57       __trandisp2                1006bc57 f   LIBCMT:_87disp_.obj
 0001:0006ace3       __rttospopde               1006bce3     LIBCMT:_87disp_.obj
 0001:0006ace8       __rttospop                 1006bce8     LIBCMT:_87disp_.obj
 0001:0006acea       __rtnospop                 1006bcea     LIBCMT:_87disp_.obj
 0001:0006acec       __rttosnpop                1006bcec     LIBCMT:_87disp_.obj
 0001:0006aced       __rtnospopde               1006bced     LIBCMT:_87disp_.obj
 0001:0006acf4       __rtzeropop                1006bcf4     LIBCMT:_87disp_.obj
 0001:0006acf6       __rtzeronpop               1006bcf6     LIBCMT:_87disp_.obj
 0001:0006acfb       __rtonepop                 1006bcfb     LIBCMT:_87disp_.obj
 0001:0006acfd       __rtonenpop                1006bcfd     LIBCMT:_87disp_.obj
 0001:0006ad02       __tosnan1                  1006bd02     LIBCMT:_87disp_.obj
 0001:0006ad2d       __nosnan2                  1006bd2d     LIBCMT:_87disp_.obj
 0001:0006ad2f       __tosnan2                  1006bd2f     LIBCMT:_87disp_.obj
 0001:0006ad57       __nan2                     1006bd57     LIBCMT:_87disp_.obj
 0001:0006ad96       __rtindfpop                1006bd96     LIBCMT:_87disp_.obj
 0001:0006ad98       __rtindfnpop               1006bd98     LIBCMT:_87disp_.obj
 0001:0006ada9       __rttosnpopde              1006bda9     LIBCMT:_87disp_.obj
 0001:0006adb3       __rtchsifneg               1006bdb3     LIBCMT:_87disp_.obj
 0001:0006adc0       __startTwoArgErrorHandling 1006bdc0 f   LIBCMT:_genexcep_.obj
 0001:0006add7       __startOneArgErrorHandling 1006bdd7 f   LIBCMT:_genexcep_.obj
 0001:0006ae20       __twoToTOS                 1006be20 f   LIBCMT:_common_.obj
 0001:0006ae35       __load_CW                  1006be35 f   LIBCMT:_common_.obj
 0001:0006ae4c       __convertTOStoQNaN         1006be4c f   LIBCMT:_common_.obj
 0001:0006ae65       __fload_withFB             1006be65 f   LIBCMT:_common_.obj
 0001:0006aea8       __checkTOS_withFB          1006bea8 f   LIBCMT:_common_.obj
 0001:0006aebe       __fast_exit                1006bebe f   LIBCMT:_common_.obj
 0001:0006aecb       __math_exit                1006becb f   LIBCMT:_common_.obj
 0001:0006aef5       __check_overflow_exit      1006bef5 f   LIBCMT:_common_.obj
 0001:0006af09       __check_range_exit         1006bf09 f   LIBCMT:_common_.obj
 0001:0006afac       __d_inttype                1006bfac f   LIBCMT:_powhlp_.obj
 0001:0006b012       __powhlp                   1006c012 f   LIBCMT:_powhlp_.obj
 0001:0006b152       __msize                    1006c152 f   LIBCMT:msize.obj
 0001:0006b200       __ValidateImageBase        1006c200 f   LIBCMT:pesect.obj
 0001:0006b240       __FindPESection            1006c240 f   LIBCMT:pesect.obj
 0001:0006b290       __IsNonwritableInCurrentImage 1006c290 f   LIBCMT:pesect.obj
 0001:0006b350       _strrchr                   1006c350 f   LIBCMT:strrchr.obj
 0001:0006b5a3       ___updatetmbcinfo          1006c5a3 f   LIBCMT:mbctype.obj
 0001:0006b6c3       __setmbcp_nolock           1006c6c3 f   LIBCMT:mbctype.obj
 0001:0006b8a8       __setmbcp                  1006c8a8 f   LIBCMT:mbctype.obj
 0001:0006ba42       ___initmbctable            1006ca42 f   LIBCMT:mbctype.obj
 0001:0006ba60       ___freetlocinfo            1006ca60 f   LIBCMT:setlocal.obj
 0001:0006bba9       ___addlocaleref            1006cba9 f   LIBCMT:setlocal.obj
 0001:0006bc38       ___removelocaleref         1006cc38 f   LIBCMT:setlocal.obj
 0001:0006bd0f       ___updatetlocinfo          1006cd0f f   LIBCMT:setlocal.obj
 0001:0006bd85       __isdigit_l                1006cd85 f i LIBCMT:_ctype.obj
 0001:0006bdd6       _isdigit                   1006cdd6 f i LIBCMT:_ctype.obj
 0001:0006be04       __tolower_l                1006ce04 f   LIBCMT:tolower.obj
 0001:0006bf19       _tolower                   1006cf19 f   LIBCMT:tolower.obj
 0001:0006bf45       __atodbl_l                 1006cf45 f   LIBCMT:atodbl.obj
 0001:0006bfed       __atoflt_l                 1006cfed f   LIBCMT:atodbl.obj
 0001:0006c0a0       _memmove                   1006d0a0 f   LIBCMT:memmove.obj
 0001:0006c410       _strlen                    1006d410 f   LIBCMT:strlen.obj
 0001:0006c49b       _strcpy_s                  1006d49b f   LIBCMT:strcpy_s.obj
 0001:0006c503       __fptostr                  1006d503 f   LIBCMT:_fptostr.obj
 0001:0006c5c2       ___dtold                   1006d5c2 f   LIBCMT:_cfout_.obj
 0001:0006c67f       __fltout2                  1006d67f f   LIBCMT:_cfout_.obj
 0001:0006c70f       @__security_check_cookie@4 1006d70f f   LIBCMT:secchk.obj
 0001:0006c720       __alldvrm                  1006d720 f   LIBCMT:lldvrm.obj
 0001:0006c800       __aullshr                  1006d800 f   LIBCMT:ullshr.obj
 0001:0006c81f       __fptrap                   1006d81f f   LIBCMT:crt0fp.obj
 0001:0006c828       __matherr                  1006d828 f   LIBCMT:_matherr_.obj
 0001:0006c87b       __get_sse2_info            1006d87b f   LIBCMT:cpu_disp.obj
 0001:0006c8dd       ___sse2_available_init     1006d8dd f   LIBCMT:cpu_disp.obj
 0001:0006c8ea       __raise_exc_ex             1006d8ea f   LIBCMT:_fpexcept_.obj
 0001:0006cbc6       __raise_exc                1006dbc6 f   LIBCMT:_fpexcept_.obj
 0001:0006cbe9       __handle_exc               1006dbe9 f   LIBCMT:_fpexcept_.obj
 0001:0006cdcb       __set_errno_from_matherr   1006ddcb f   LIBCMT:_fpexcept_.obj
 0001:0006cdf8       __errcode                  1006ddf8 f   LIBCMT:_fpexcept_.obj
 0001:0006ce2c       __umatherr                 1006de2c f   LIBCMT:_fpexcept_.obj
 0001:0006cecc       __handle_qnan1             1006decc f   LIBCMT:_fpexcept_.obj
 0001:0006cf21       __except1                  1006df21 f   LIBCMT:_fpexcept_.obj
 0001:0006cfea       __frnd                     1006dfea f   LIBCMT:_frnd_.obj
 0001:0006cffe       __set_exp                  1006dffe f   LIBCMT:_util_.obj
 0001:0006d02a       __sptype                   1006e02a f   LIBCMT:_util_.obj
 0001:0006d08a       __decomp                   1006e08a f   LIBCMT:_util_.obj
 0001:0006d143       __initp_misc_initcrit      1006e143 f   LIBCMT:initcrit.obj
 0001:0006d152       ___crtInitCritSecAndSpinCount 1006e152 f   LIBCMT:initcrit.obj
 0001:0006d1b4       __local_unwind4            1006e1b4 f   LIBCMT:exsup4.obj
 0001:0006d28a       __seh_longjmp_unwind4@4    1006e28a f   LIBCMT:exsup4.obj
 0001:0006d2a6       @_EH4_CallFilterFunc@8     1006e2a6 f   LIBCMT:exsup4.obj
 0001:0006d2bd       @_EH4_TransferToHandler@8  1006e2bd f   LIBCMT:exsup4.obj
 0001:0006d2d6       @_EH4_GlobalUnwind@4       1006e2d6 f   LIBCMT:exsup4.obj
 0001:0006d2f0       @_EH4_LocalUnwind@16       1006e2f0 f   LIBCMT:exsup4.obj
 0001:0006d307       ?terminate@@YAXXZ          1006e307 f   LIBCMT:hooks.obj
 0001:0006d340       __initp_eh_hooks           1006e340 f   LIBCMT:hooks.obj
 0001:0006d351       __initp_misc_rand_s        1006e351 f   LIBCMT:rand_s.obj
 0001:0006d360       ___crtMessageBoxA          1006e360 f   LIBCMT:crtmbox.obj
 0001:0006d4c9       _strcat_s                  1006e4c9 f   LIBCMT:strcat_s.obj
 0001:0006d53d       _strncpy_s                 1006e53d f   LIBCMT:strncpy_s.obj
 0001:0006d5f2       __set_error_mode           1006e5f2 f   LIBCMT:errmode.obj
 0001:0006d63d       __calloc_impl              1006e63d f   LIBCMT:calloc_impl.obj
 0001:0006d75b       _realloc                   1006e75b f   LIBCMT:realloc.obj
 0001:0006d9c9       __ismbblead                1006e9c9 f   LIBCMT:ismbbyte.obj
 0001:0006d9e1       __lseeki64_nolock          1006e9e1 f   LIBCMT:lseeki64.obj
 0001:0006da66       __lseeki64                 1006ea66 f   LIBCMT:lseeki64.obj
 0001:0006db7f       __write_nolock             1006eb7f f   LIBCMT:write.obj
 0001:0006e2b2       __write                    1006f2b2 f   LIBCMT:write.obj
 0001:0006e38e       __getbuf                   1006f38e f   LIBCMT:_getbuf.obj
 0001:0006e3d7       __isatty                   1006f3d7 f   LIBCMT:isatty.obj
 0001:0006e43b       ___iob_func                1006f43b f   LIBCMT:_file.obj
 0001:0006e441       ___initstdio               1006f441 f   LIBCMT:_file.obj
 0001:0006e4f2       ___endstdio                1006f4f2 f   LIBCMT:_file.obj
 0001:0006e512       __lock_file                1006f512 f   LIBCMT:_file.obj
 0001:0006e553       __lock_file2               1006f553 f   LIBCMT:_file.obj
 0001:0006e585       __unlock_file              1006f585 f   LIBCMT:_file.obj
 0001:0006e5c1       __unlock_file2             1006f5c1 f   LIBCMT:_file.obj
 0001:0006e5f0       __fileno                   1006f5f0 f   LIBCMT:fileno.obj
 0001:0006e622       __get_printf_count_output  1006f622 f   LIBCMT:printf.obj
 0001:0006e638       __wctomb_s_l               1006f638 f   LIBCMT:wctomb.obj
 0001:0006e7a4       _wctomb_s                  1006f7a4 f   LIBCMT:wctomb.obj
 0001:0006e7c1       __isleadbyte_l             1006f7c1 f i LIBCMT:_wctype.obj
 0001:0006e7f9       _isleadbyte                1006f7f9 f i LIBCMT:_wctype.obj
 0001:0006e810       __aulldvrm                 1006f810 f   LIBCMT:ulldvrm.obj
 0001:0006e8a5       __crt_debugger_hook        1006f8a5 f   LIBCMT:dbghook.obj
 0001:0006e8ad       __freea                    1006f8ad f i LIBCMT:a_loc.obj
 0001:0006e8d0       _fdiv_main_routine         1006f8d0 f   LIBCMT:_adj_fdiv_.obj
 0001:0006e9e7       __adj_fdiv_r               1006f9e7 f   LIBCMT:_adj_fdiv_.obj
 0001:0006ee86       __fdivp_sti_st             1006fe86 f   LIBCMT:_adj_fdiv_.obj
 0001:0006ee99       __fdivrp_sti_st            1006fe99 f   LIBCMT:_adj_fdiv_.obj
 0001:0006eeac       __adj_fdiv_m32             1006feac f   LIBCMT:_adj_fdiv_.obj
 0001:0006eef8       __adj_fdiv_m64             1006fef8 f   LIBCMT:_adj_fdiv_.obj
 0001:0006ef44       __adj_fdiv_m16i            1006ff44 f   LIBCMT:_adj_fdiv_.obj
 0001:0006ef78       __adj_fdiv_m32i            1006ff78 f   LIBCMT:_adj_fdiv_.obj
 0001:0006efac       __adj_fdivr_m32            1006ffac f   LIBCMT:_adj_fdiv_.obj
 0001:0006eff8       __adj_fdivr_m64            1006fff8 f   LIBCMT:_adj_fdiv_.obj
 0001:0006f044       __adj_fdivr_m16i           10070044 f   LIBCMT:_adj_fdiv_.obj
 0001:0006f078       __adj_fdivr_m32i           10070078 f   LIBCMT:_adj_fdiv_.obj
 0001:0006f0ac       __safe_fdiv                100700ac f   LIBCMT:_adj_fdiv_.obj
 0001:0006f0c1       __safe_fdivr               100700c1 f   LIBCMT:_adj_fdiv_.obj
 0001:0006f0d6       __fprem_common             100700d6 f   LIBCMT:_adj_fdiv_.obj
 0001:0006f2dc       __adj_fprem                100702dc f   LIBCMT:_adj_fdiv_.obj
 0001:0006f38e       __fprem1_common            1007038e f   LIBCMT:_adj_fdiv_.obj
 0001:0006f594       __adj_fprem1               10070594 f   LIBCMT:_adj_fdiv_.obj
 0001:0006f649       __safe_fprem               10070649 f   LIBCMT:_adj_fdiv_.obj
 0001:0006f64f       __safe_fprem1              1007064f f   LIBCMT:_adj_fdiv_.obj
 0001:0006f655       __adj_fpatan               10070655 f   LIBCMT:_adj_fdiv_.obj
 0001:0006f658       __adj_fptan                10070658 f   LIBCMT:_adj_fdiv_.obj
 0001:0006f65b       __87except                 1007065b f   LIBCMT:_87except_.obj
 0001:0006f79a       __fpclass                  1007079a f   LIBCMT:_ieeemisc_.obj
 0001:0006fbd3       ___crtLCMapStringA         10070bd3 f   LIBCMT:a_map.obj
 0001:0006fdd2       ___crtGetStringTypeA       10070dd2 f   LIBCMT:a_str.obj
 0001:0006fe14       ___free_lc_time            10070e14 f   LIBCMT:inittime.obj
 0001:0006ffa9       ___free_lconv_num          10070fa9 f   LIBCMT:initnum.obj
 0001:0006ffee       ___free_lconv_mon          10070fee f   LIBCMT:initmon.obj
 0001:00070080       _strcspn                   10071080 f   LIBCMT:strcspn.obj
 0001:000700d0       _strcmp                    100710d0 f   LIBCMT:strcmp.obj
 0001:00070160       _strpbrk                   10071160 f   LIBCMT:strpbrk.obj
 0001:000701a0       __isctype_l                100711a0 f   LIBCMT:isctype.obj
 0001:00070258       __ld12tod                  10071258 f   LIBCMT:_intrncvt_.obj
 0001:0007079c       __ld12tof                  1007179c f   LIBCMT:_intrncvt_.obj
 0001:00070ce0       ___strgtold12_l            10071ce0 f   LIBCMT:_strgtold_.obj
 0001:000713d8       _$I10_OUTPUT               100723d8 f   LIBCMT:_x10fout_.obj
 0001:00071cfc       ___report_gsfailure        10072cfc f   LIBCMT:gs_report.obj
 0001:00071e04       __global_unwind2           10072e04 f   LIBCMT:exsup.obj
 0001:00071e69       __local_unwind2            10072e69 f   LIBCMT:exsup.obj
 0001:00071eed       __abnormal_termination     10072eed f   LIBCMT:exsup.obj
 0001:00071f10       __NLG_Notify1              10072f10 f   LIBCMT:exsup.obj
 0001:00071f19       __NLG_Notify               10072f19 f   LIBCMT:exsup.obj
 0001:00071f30       __NLG_Dispatch2            10072f30     LIBCMT:exsup.obj
 0001:00071f30       __NLG_Dispatch             10072f30     LIBCMT:exsup.obj
 0001:00071f38       __NLG_Call                 10072f38 f   LIBCMT:exsup.obj
 0001:00071f3a       __NLG_Return2              10072f3a     LIBCMT:exsup.obj
 0001:00071f3b       __free_osfhnd              10072f3b f   LIBCMT:osfinfo.obj
 0001:00071fc1       __get_osfhandle            10072fc1 f   LIBCMT:osfinfo.obj
 0001:00072038       ___lock_fhandle            10073038 f   LIBCMT:osfinfo.obj
 0001:000720d8       __unlock_fhandle           100730d8 f   LIBCMT:osfinfo.obj
 0001:000720ff       __putwch_nolock            100730ff f   LIBCMT:putwch.obj
 0001:000721c4       __mbtowc_l                 100731c4 f   LIBCMT:mbtowc.obj
 0001:000722db       _mbtowc                    100732db f   LIBCMT:mbtowc.obj
 0001:000722f5       __fcloseall                100732f5 f   LIBCMT:closeall.obj
 0001:00072394       __flush                    10073394 f   LIBCMT:fflush.obj
 0001:000723fc       __fflush_nolock            100733fc f   LIBCMT:fflush.obj
 0001:0007251e       __flushall                 1007351e f   LIBCMT:fflush.obj
 0001:00072756       _strtol                    10073756 f   LIBCMT:strtol.obj
 0001:00072790       __alloca_probe_16          10073790 f   LIBCMT:alloca16.obj
 0001:000727a6       __alloca_probe_8           100737a6     LIBCMT:alloca16.obj
 0001:000727bc       ___ansicp                  100737bc f   LIBCMT:convrtcp.obj
 0001:00072805       ___convertcp               10073805 f   LIBCMT:convrtcp.obj
 0001:000729b9       _atol                      100739b9 f   LIBCMT:atox.obj
 0001:000729cf       ___mtold12                 100739cf f   LIBCMT:_mantold_.obj
 0001:00072b9d       ___initconout              10073b9d f   LIBCMT:initcon.obj
 0001:00072bbc       ___termcon                 10073bbc f   LIBCMT:initcon.obj
 0001:00072be9       __fclose_nolock            10073be9 f   LIBCMT:fclose.obj
 0001:00072c60       _fclose                    10073c60 f   LIBCMT:fclose.obj
 0001:00072cdc       __commit                   10073cdc f   LIBCMT:commit.obj
 0001:00072dc0       ___ascii_strnicmp          10073dc0 f   LIBCMT:_strnicm.obj
 0001:00072e21       __close_nolock             10073e21 f   LIBCMT:close.obj
 0001:00072ebd       __close                    10073ebd f   LIBCMT:close.obj
 0001:00072f8a       __freebuf                  10073f8a f   LIBCMT:_freebuf.obj
 0001:00072fd0       _strchr                    10073fd0 f   LIBCMT:strchr.obj
 0001:00072fd6       ___from_strstr_to_strchr   10073fd6     LIBCMT:strchr.obj
 0001:0007308e       _RtlUnwind@16              1007408e f   kernel32:KERNEL32.dll
 0002:00000000       __imp__Sleep@4             10075000     kernel32:KERNEL32.dll
 0002:00000004       __imp__InterlockedExchange@8 10075004     kernel32:KERNEL32.dll
 0002:00000008       __imp__InterlockedIncrement@4 10075008     kernel32:KERNEL32.dll
 0002:0000000c       __imp__InterlockedDecrement@4 1007500c     kernel32:KERNEL32.dll
 0002:00000010       __imp__GetSystemInfo@4     10075010     kernel32:KERNEL32.dll
 0002:00000014       __imp__CloseHandle@4       10075014     kernel32:KERNEL32.dll
 0002:00000018       __imp__WaitForMultipleObjects@16 10075018     kernel32:KERNEL32.dll
 0002:0000001c       __imp__DeleteCriticalSection@4 1007501c     kernel32:KERNEL32.dll
 0002:00000020       __imp__SetEvent@4          10075020     kernel32:KERNEL32.dll
 0002:00000024       __imp__LeaveCriticalSection@4 10075024     kernel32:KERNEL32.dll
 0002:00000028       __imp__ReleaseSemaphore@12 10075028     kernel32:KERNEL32.dll
 0002:0000002c       __imp__EnterCriticalSection@4 1007502c     kernel32:KERNEL32.dll
 0002:00000030       __imp__WaitForSingleObject@8 10075030     kernel32:KERNEL32.dll
 0002:00000034       __imp__InitializeCriticalSection@4 10075034     kernel32:KERNEL32.dll
 0002:00000038       __imp__CreateEventA@16     10075038     kernel32:KERNEL32.dll
 0002:0000003c       __imp__CreateSemaphoreA@16 1007503c     kernel32:KERNEL32.dll
 0002:00000040       __imp__HeapAlloc@12        10075040     kernel32:KERNEL32.dll
 0002:00000044       __imp__GetLastError@0      10075044     kernel32:KERNEL32.dll
 0002:00000048       __imp__HeapFree@12         10075048     kernel32:KERNEL32.dll
 0002:0000004c       __imp__GetCurrentThreadId@0 1007504c     kernel32:KERNEL32.dll
 0002:00000050       __imp__GetCommandLineA@0   10075050     kernel32:KERNEL32.dll
 0002:00000054       __imp__ExitThread@4        10075054     kernel32:KERNEL32.dll
 0002:00000058       __imp__CreateThread@24     10075058     kernel32:KERNEL32.dll
 0002:0000005c       __imp__GetProcAddress@8    1007505c     kernel32:KERNEL32.dll
 0002:00000060       __imp__GetModuleHandleA@4  10075060     kernel32:KERNEL32.dll
 0002:00000064       __imp__VirtualFree@12      10075064     kernel32:KERNEL32.dll
 0002:00000068       __imp__VirtualAlloc@16     10075068     kernel32:KERNEL32.dll
 0002:0000006c       __imp__HeapReAlloc@16      1007506c     kernel32:KERNEL32.dll
 0002:00000070       __imp__HeapCreate@12       10075070     kernel32:KERNEL32.dll
 0002:00000074       __imp__HeapDestroy@4       10075074     kernel32:KERNEL32.dll
 0002:00000078       __imp__GetModuleHandleW@4  10075078     kernel32:KERNEL32.dll
 0002:0000007c       __imp__ExitProcess@4       1007507c     kernel32:KERNEL32.dll
 0002:00000080       __imp__WriteFile@20        10075080     kernel32:KERNEL32.dll
 0002:00000084       __imp__GetStdHandle@4      10075084     kernel32:KERNEL32.dll
 0002:00000088       __imp__GetModuleFileNameA@12 10075088     kernel32:KERNEL32.dll
 0002:0000008c       __imp__TlsGetValue@4       1007508c     kernel32:KERNEL32.dll
 0002:00000090       __imp__TlsAlloc@0          10075090     kernel32:KERNEL32.dll
 0002:00000094       __imp__TlsSetValue@8       10075094     kernel32:KERNEL32.dll
 0002:00000098       __imp__TlsFree@4           10075098     kernel32:KERNEL32.dll
 0002:0000009c       __imp__SetLastError@4      1007509c     kernel32:KERNEL32.dll
 0002:000000a0       __imp__SetHandleCount@4    100750a0     kernel32:KERNEL32.dll
 0002:000000a4       __imp__GetFileType@4       100750a4     kernel32:KERNEL32.dll
 0002:000000a8       __imp__GetStartupInfoA@4   100750a8     kernel32:KERNEL32.dll
 0002:000000ac       __imp__FreeEnvironmentStringsA@4 100750ac     kernel32:KERNEL32.dll
 0002:000000b0       __imp__GetEnvironmentStrings@0 100750b0     kernel32:KERNEL32.dll
 0002:000000b4       __imp__FreeEnvironmentStringsW@4 100750b4     kernel32:KERNEL32.dll
 0002:000000b8       __imp__WideCharToMultiByte@32 100750b8     kernel32:KERNEL32.dll
 0002:000000bc       __imp__GetEnvironmentStringsW@0 100750bc     kernel32:KERNEL32.dll
 0002:000000c0       __imp__QueryPerformanceCounter@4 100750c0     kernel32:KERNEL32.dll
 0002:000000c4       __imp__GetTickCount@0      100750c4     kernel32:KERNEL32.dll
 0002:000000c8       __imp__GetCurrentProcessId@0 100750c8     kernel32:KERNEL32.dll
 0002:000000cc       __imp__GetSystemTimeAsFileTime@4 100750cc     kernel32:KERNEL32.dll
 0002:000000d0       __imp__TerminateProcess@8  100750d0     kernel32:KERNEL32.dll
 0002:000000d4       __imp__GetCurrentProcess@0 100750d4     kernel32:KERNEL32.dll
 0002:000000d8       __imp__UnhandledExceptionFilter@4 100750d8     kernel32:KERNEL32.dll
 0002:000000dc       __imp__SetUnhandledExceptionFilter@4 100750dc     kernel32:KERNEL32.dll
 0002:000000e0       __imp__IsDebuggerPresent@0 100750e0     kernel32:KERNEL32.dll
 0002:000000e4       __imp__HeapSize@12         100750e4     kernel32:KERNEL32.dll
 0002:000000e8       __imp__GetCPInfo@8         100750e8     kernel32:KERNEL32.dll
 0002:000000ec       __imp__GetACP@0            100750ec     kernel32:KERNEL32.dll
 0002:000000f0       __imp__GetOEMCP@0          100750f0     kernel32:KERNEL32.dll
 0002:000000f4       __imp__IsValidCodePage@4   100750f4     kernel32:KERNEL32.dll
 0002:000000f8       __imp__RaiseException@16   100750f8     kernel32:KERNEL32.dll
 0002:000000fc       __imp__InitializeCriticalSectionAndSpinCount@8 100750fc     kernel32:KERNEL32.dll
 0002:00000100       __imp__RtlUnwind@16        10075100     kernel32:KERNEL32.dll
 0002:00000104       __imp__LoadLibraryA@4      10075104     kernel32:KERNEL32.dll
 0002:00000108       __imp__SetFilePointer@16   10075108     kernel32:KERNEL32.dll
 0002:0000010c       __imp__GetConsoleCP@0      1007510c     kernel32:KERNEL32.dll
 0002:00000110       __imp__GetConsoleMode@8    10075110     kernel32:KERNEL32.dll
 0002:00000114       __imp__GetLocaleInfoA@16   10075114     kernel32:KERNEL32.dll
 0002:00000118       __imp__LCMapStringA@24     10075118     kernel32:KERNEL32.dll
 0002:0000011c       __imp__MultiByteToWideChar@24 1007511c     kernel32:KERNEL32.dll
 0002:00000120       __imp__LCMapStringW@24     10075120     kernel32:KERNEL32.dll
 0002:00000124       __imp__GetStringTypeA@20   10075124     kernel32:KERNEL32.dll
 0002:00000128       __imp__GetStringTypeW@16   10075128     kernel32:KERNEL32.dll
 0002:0000012c       __imp__SetStdHandle@8      1007512c     kernel32:KERNEL32.dll
 0002:00000130       __imp__WriteConsoleA@20    10075130     kernel32:KERNEL32.dll
 0002:00000134       __imp__GetConsoleOutputCP@0 10075134     kernel32:KERNEL32.dll
 0002:00000138       __imp__WriteConsoleW@20    10075138     kernel32:KERNEL32.dll
 0002:0000013c       __imp__CreateFileA@28      1007513c     kernel32:KERNEL32.dll
 0002:00000140       __imp__FlushFileBuffers@4  10075140     kernel32:KERNEL32.dll
 0002:00000144       \177KERNEL32_NULL_THUNK_DATA 10075144     kernel32:KERNEL32.dll
 0002:00000148       ___xc_a                    10075148     LIBCMT:crt0init.obj
 0002:00000150       ___xc_z                    10075150     LIBCMT:crt0init.obj
 0002:00000154       ___xi_a                    10075154     LIBCMT:crt0init.obj
 0002:0000016c       ___xi_z                    1007516c     LIBCMT:crt0init.obj
 0002:00000170       ___xp_a                    10075170     LIBCMT:crt0init.obj
 0002:0000017c       ___xp_z                    1007517c     LIBCMT:crt0init.obj
 0002:00000180       ___xt_a                    10075180     LIBCMT:crt0init.obj
 0002:00000184       ___xt_z                    10075184     LIBCMT:crt0init.obj
 0002:000001b0       ??_C@_0IE@IMGBDMJL@Newton?5Game?5Dynamics?5is?5the?5prop@ 100751b0     Newton.obj
 0002:00000240       __real@3ee4f8b580000000    10075240     Newton.obj
 0002:00000248       __real@3ff0000000000000    10075248     Newton.obj
 0002:00000250       __real@0000000000000000    10075250     Newton.obj
 0002:00000258       __real@3f947ae140000000    10075258     Newton.obj
 0002:00000260       __real@3ddb7cdfe0000000    10075260     Newton.obj
 0002:00000268       __real@3f91111120000000    10075268     Newton.obj
 0002:00000270       __real@3f50624de0000000    10075270     Newton.obj
 0002:00000278       __real@408f3fffe7190014    10075278     Newton.obj
 0002:00000280       __real@404dffffe5c00017    10075280     Newton.obj
 0002:00000288       __real@3fc0000000000000    10075288     Newton.obj
 0002:00000290       __real@4000000000000000    10075290     Newton.obj
 0002:00000298       __real@3f847ae140000000    10075298     Newton.obj
 0002:000002a0       __real@3fe6666660000000    100752a0     Newton.obj
 0002:000002a8       __real@3fe276c8c0000000    100752a8     Newton.obj
 0002:000002b0       __real@431550f7d8000000    100752b0     Newton.obj
 0002:000002b8       __real@4059000000000000    100752b8     Newton.obj
 0002:000002c0       __real@42fc6bf520000000    100752c0     Newton.obj
 0002:000002c8       __real@3e45798ee0000000    100752c8     Newton.obj
 0002:000002d0       __real@3feff7cee0000000    100752d0     Newton.obj
 0002:000002d8       __real@3f1a36e2e0000000    100752d8     Newton.obj
 0002:000002e0       __real@bff0000000000000    100752e0     Newton.obj
 0002:000002e8       __real@3eb0c6f7a0000000    100752e8     Newton.obj
 0002:000002f0       __real@c059000000000000    100752f0     Newton.obj
 0002:000002f8       __real@3fa99999a0000000    100752f8     NewtonAproximateConvexPartition.obj
 0002:00000300       ??_7NewtonUserJoint@@6B@   10075300     NewtonClass.obj
 0002:00000330       __real@430c6bf520000000    10075330     NewtonClass.obj
 0002:00000338       __real@bf50624de0000000    10075338     NewtonClass.obj
 0002:00000340       __real@c30c6bf520000000    10075340     NewtonClass.obj
 0002:00000348       __real@4058c00000000000    10075348     NewtonClass.obj
 0002:00000350       ??_7NewtonMeshEffect@@6B@  10075350     NewtonMeshEffect.obj
 0002:00000358       __real@3fe3333340000000    10075358     NewtonMeshEffect.obj
 0002:00000360       __real@3fe0000000000000    10075360     NewtonMeshEffect.obj
 0002:00000368       __real@3ff921fb00000000    10075368     NewtonMeshEffect.obj
 0002:00000370       __real@3fc45f30c0000000    10075370     NewtonMeshEffect.obj
 0002:00000378       __real@3fefff2e40000000    10075378     NewtonMeshEffect.obj
 0002:00000380       __real@bfefff2e40000000    10075380     NewtonMeshEffect.obj
 0002:00000388       __real@401921fb00000000    10075388     NewtonMeshEffect.obj
 0002:00000390       __real@3fefae1480000000    10075390     NewtonMeshEffect.obj
 0002:00000398       __real@c202a05f20000000    10075398     NewtonMeshEffect.obj
 0002:000003a0       __real@4202a05f20000000    100753a0     NewtonMeshEffect.obj
 0002:000003a8       __real@3c9cd2b2a0000000    100753a8     NewtonMeshEffect.obj
 0002:000003b0       __real@bee4f8b580000000    100753b0     NewtonMeshEffect.obj
 0002:000003b8       ??_C@_0P@GHFPNOJB@bad?5allocation?$AA@ 100753b8     NewtonStdAfx.obj
 0002:000003d8       ??_7dgCollisionPoint@@6B@  100753d8     physics_2009:dgWorld.obj
 0002:0000044c       ??_C@_04IABPNMKE@simd?$AA@ 1007544c     physics_2009:dgWorld.obj
 0002:00000454       ??_C@_03MKEPLMIM@x87?$AA@  10075454     physics_2009:dgWorld.obj
 0002:00000458       ??_7dgWorkerThread@@6B@    10075458     physics_2009:dgWorld.obj
 0002:00000460       ??_7dgSetTrreadRoundMode@dgWorld@@6B@ 10075460     physics_2009:dgWorld.obj
 0002:00000468       ??_7dgSolverWorlkerThreads@@6B@ 10075468     physics_2009:dgWorld.obj
 0002:00000470       ??_7dgParallelSolverClear@@6B@ 10075470     physics_2009:dgWorld.obj
 0002:00000478       ??_7dgParallelSolverBodyInertia@@6B@ 10075478     physics_2009:dgWorld.obj
 0002:00000480       ??_7dgParallelSolverUpdateVeloc@@6B@ 10075480     physics_2009:dgWorld.obj
 0002:00000488       ??_7dgParallelSolverUpdateForce@@6B@ 10075488     physics_2009:dgWorld.obj
 0002:00000490       ??_7dgParallelSolverCalculateForces@@6B@ 10075490     physics_2009:dgWorld.obj
 0002:00000498       ??_7dgParallelSolverInitInternalForces@@6B@ 10075498     physics_2009:dgWorld.obj
 0002:000004a0       ??_7dgParallelSolverBuildJacobianRows@@6B@ 100754a0     physics_2009:dgWorld.obj
 0002:000004a8       ??_7dgParallelSolverJointAcceleration@@6B@ 100754a8     physics_2009:dgWorld.obj
 0002:000004b0       ??_7dgParallelSolverInitFeedbackUpdate@@6B@ 100754b0     physics_2009:dgWorld.obj
 0002:000004b8       ??_7dgParallelSolverBuildJacobianMatrix@@6B@ 100754b8     physics_2009:dgWorld.obj
 0002:000004c0       __real@431c6bf520000000    100754c0     physics_2009:dgWorld.obj
 0002:000004c8       __real@3fbac08320000000    100754c8     physics_2009:dgWorld.obj
 0002:000004d0       __real@3f611f0c3704ff40    100754d0     physics_2009:dgWorld.obj
 0002:000004d8       __real@3fb99999a0000000    100754d8     physics_2009:dgWorld.obj
 0002:000004e0       __real@3f917ef9e8420c4d    100754e0     physics_2009:dgWorld.obj
 0002:000004e8       __real@3fbafc60f7c20b0a    100754e8     physics_2009:dgWorld.obj
 0002:000004f0       __real@3fc5deb85cdae149    100754f0     physics_2009:dgWorld.obj
 0002:000004f8       __real@3f8753f7e0581067    100754f8     physics_2009:dgWorld.obj
 0002:00000500       __real@3fb3468e6d559e4b    10075500     physics_2009:dgWorld.obj
 0002:00000508       __real@3fbd28f5d123d70c    10075508     physics_2009:dgWorld.obj
 0002:00000510       __real@3f7f1a9fd5cac089    10075510     physics_2009:dgWorld.obj
 0002:00000518       __real@3fab895dc8a18f37    10075518     physics_2009:dgWorld.obj
 0002:00000520       __real@3fb370a3e0c28f5d    10075520     physics_2009:dgWorld.obj
 0002:00000528       __real@3f74bc6a8e872b06    10075528     physics_2009:dgWorld.obj
 0002:00000530       __real@3fa3ab4302a454df    10075530     physics_2009:dgWorld.obj
 0002:00000538       __real@3fa9eb852bae147c    10075538     physics_2009:dgWorld.obj
 0002:00000540       __real@3f6ba5e368b4395e    10075540     physics_2009:dgWorld.obj
 0002:00000548       __real@3f9c193b305faeba    10075548     physics_2009:dgWorld.obj
 0002:00000550       __real@3fa147ae1d1eb853    10075550     physics_2009:dgWorld.obj
 0002:00000558       __real@3f626e979b22d0e9    10075558     physics_2009:dgWorld.obj
 0002:00000560       __real@3f941205ba92a303    10075560     physics_2009:dgWorld.obj
 0002:00000568       __real@3f970a3d7c28f5c4    10075568     physics_2009:dgWorld.obj
 0002:00000570       __real@3f589374ced9168c    10075570     physics_2009:dgWorld.obj
 0002:00000578       __real@3f8cac08374bc6a6    10075578     physics_2009:dgWorld.obj
 0002:00000580       __real@3f8eb851fae147b0    10075580     physics_2009:dgWorld.obj
 0002:00000588       __real@3f50624ddf3b645d    10075588     physics_2009:dgWorld.obj
 0002:00000590       __real@3f847ae151eb8520    10075590     physics_2009:dgWorld.obj
 0002:00000598       __real@3fd0000000000000    10075598     physics_2009:dgWorld.obj
 0002:000005a0       __real@404e000000000000    100755a0     physics_2009:dgWorldDynamicUpdate.obj
 0002:000005a8       __real@3fecccccc0000000    100755a8     physics_2009:dgWorldDynamicUpdate.obj
 0002:000005b0       __real@3c670ef540000000    100755b0     physics_2009:dgWorldDynamicUpdate.obj
 0002:000005b8       __real@bc9cd2b2a0000000    100755b8     physics_2009:dgWorldDynamicUpdate.obj
 0002:000005c0       __real@4010000000000000    100755c0     physics_2009:dgWorldDynamicUpdate.obj
 0002:000005c8       __real@c010000000000000    100755c8     physics_2009:dgWorldDynamicUpdate.obj
 0002:000005d0       __real@3f1a36e2d7731900    100755d0     physics_2009:dgNarrowPhaseCollision.obj
 0002:000005d8       __real@3eb0c6f7bb730840    100755d8     physics_2009:dgNarrowPhaseCollision.obj
 0002:000005e0       __real@3feffbe760000000    100755e0     physics_2009:dgNarrowPhaseCollision.obj
 0002:000005e8       __real@4415af1d80000000    100755e8     physics_2009:dgNarrowPhaseCollision.obj
 0002:000005f0       ??_7dgCollisionMesh@@6B@   100755f0     physics_2009:dgCollisionMesh.obj
 0002:00000660       __real@3fc6388660000000    10075660     physics_2009:dgCollisionMesh.obj
 0002:00000668       ??_7dgCollisionConvexPolygon@dgCollisionMesh@@6B@ 10075668     physics_2009:dgCollisionMesh.obj
 0002:000006e0       __real@3af357c2a0000000    100756e0     physics_2009:dgCollisionMesh.obj
 0002:000006e8       __real@3f647ae151eb8520    100756e8     physics_2009:dgCollisionMesh.obj
 0002:000006f0       __real@3feffe5ca0000000    100756f0     physics_2009:dgCollisionMesh.obj
 0002:000006f8       __real@c000000000000000    100756f8     physics_2009:dgCollisionMesh.obj
 0002:00000700       __real@bfb99999a0000000    10075700     physics_2009:dgCollisionMesh.obj
 0002:00000708       __real@3f80000000000000    10075708     physics_2009:dgCollisionMesh.obj
 0002:00000710       __real@bf70000000000000    10075710     physics_2009:dgCollisionMesh.obj
 0002:00000718       ??_7dgCollisionBVH@@6BdgCollisionMesh@@@ 10075718     physics_2009:dgCollisionBVH.obj
 0002:00000788       ??_7dgCollisionBVH@@6BdgAABBPolygonSoup@@@ 10075788     physics_2009:dgCollisionBVH.obj
 0002:000007b0       __real@3ff00068e0000000    100757b0     physics_2009:dgCollisionBVH.obj
 0002:000007b8       __real@3ff3333340000000    100757b8     physics_2009:dgCollisionBVH.obj
 0002:000007c0       __real@c415af1d80000000    100757c0     physics_2009:dgCollisionBVH.obj
 0002:000007c8       __real@4050000000000000    100757c8     physics_2009:dgCollisionScene.obj
 0002:000007d0       ??_7dgCollisionScene@@6B@  100757d0     physics_2009:dgCollisionScene.obj
 0002:00000840       __real@408f400000000000    10075840     physics_2009:dgBody.obj
 0002:00000848       __real@4024000000000000    10075848     physics_2009:dgBody.obj
 0002:00000850       __real@3ff999999999999a    10075850     physics_2009:dgBody.obj
 0002:00000858       __real@3f899999a0000000    10075858     physics_2009:dgBody.obj
 0002:00000860       __real@3fe99999a0000000    10075860     physics_2009:dgBody.obj
 0002:00000868       __real@409fa40000000000    10075868     physics_2009:dgBody.obj
 0002:00000878       ??_7dgBallConstraint@@6B@  10075878     physics_2009:dgBallConstraint.obj
 0002:000008a8       __real@4065e00000000000    100758a8     physics_2009:dgBallConstraint.obj
 0002:000008b0       __real@4056800000000000    100758b0     physics_2009:dgBallConstraint.obj
 0002:000008b8       __real@4014000000000000    100758b8     physics_2009:dgBallConstraint.obj
 0002:000008c0       __real@3ff19999a0000000    100758c0     physics_2009:dgBallConstraint.obj
 0002:000008c8       __real@4030000000000000    100758c8     physics_2009:dgBallConstraint.obj
 0002:000008d0       __real@bff921fa00000000    100758d0     physics_2009:dgBallConstraint.obj
 0002:000008d8       __real@3ff921fa00000000    100758d8     physics_2009:dgBallConstraint.obj
 0002:000008e0       ??_7dgHingeConstraint@@6B@ 100758e0     physics_2009:dgHingeConstraint.obj
 0002:00000910       __real@3ff028f5c0000000    10075910     physics_2009:dgHingeConstraint.obj
 0002:00000918       ??_7dgSlidingConstraint@@6B@ 10075918     physics_2009:dgSlidingConstraint.obj
 0002:00000948       ??_7dgCorkscrewConstraint@@6B@ 10075948     physics_2009:dgCorkscrewConstraint.obj
 0002:00000978       ??_7dgUniversalConstraint@@6B@ 10075978     physics_2009:dgUniversalConstraint.obj
 0002:000009a8       ??_7dgUpVectorConstraint@@6B@ 100759a8     physics_2009:dgUpVectorConstraint.obj
 0002:000009d8       __real@3fefd70a40000000    100759d8     physics_2009:dgUpVectorConstraint.obj
 0002:000009e0       ??_7dgCollisionConvexHull@@6B@ 100759e0     physics_2009:dgCollisionConvexHull.obj
 0002:00000a58       __real@3fefff9720000000    10075a58     physics_2009:dgCollisionConvexHull.obj
 0002:00000a60       __real@beb0c6f7a0000000    10075a60     physics_2009:dgCollisionConvexHull.obj
 0002:00000a68       __real@3f40000000000000    10075a68     physics_2009:dgCollisionConvexHull.obj
 0002:00000a70       __real@40a0000000000000    10075a70     physics_2009:dgCollisionConvexHull.obj
 0002:00000a78       __real@4060000000000000    10075a78     physics_2009:dgCollisionConvexHull.obj
 0002:00000a80       __real@3fef5c2900000000    10075a80     physics_2009:dgCollisionConvexHull.obj
 0002:00000a88       ??_7dgBroadPhaseApplyExternalForce@@6B@ 10075a88     physics_2009:dgBroadPhaseCollision.obj
 0002:00000a90       ??_7dgBroadPhaseCellPairsWorkerThread@@6B@ 10075a90     physics_2009:dgBroadPhaseCollision.obj
 0002:00000a98       ??_7dgBroadPhaseMaterialCallbackWorkerThread@@6B@ 10075a98     physics_2009:dgBroadPhaseCollision.obj
 0002:00000aa0       ??_7dgBroadPhaseCalculateContactsWorkerThread@@6B@ 10075aa0     physics_2009:dgBroadPhaseCollision.obj
 0002:00000aa8       __real@3f90000000000000    10075aa8     physics_2009:dgBroadPhaseCollision.obj
 0002:00000ab0       __real@c08f400000000000    10075ab0     physics_2009:dgBroadPhaseCollision.obj
 0002:00000ab8       ??_7dgUserConstraint@@6B@  10075ab8     physics_2009:dgUserConstraint.obj
 0002:00000ae8       ??_7dgConstraint@@6B@      10075ae8     physics_2009:dgBilateralConstraint.obj
 0002:00000b10       ??_7dgBilateralConstraint@@6B@ 10075b10     physics_2009:dgBilateralConstraint.obj
 0002:00000b40       __real@3f647ae140000000    10075b40     physics_2009:dgBilateralConstraint.obj
 0002:00000b48       __real@4097700000000000    10075b48     physics_2009:dgBilateralConstraint.obj
 0002:00000b50       __real@40c3880000000000    10075b50     physics_2009:dgBilateralConstraint.obj
 0002:00000b58       __real@c0c3880000000000    10075b58     physics_2009:dgBilateralConstraint.obj
 0002:00000b60       __real@3ff6666680000000    10075b60     physics_2009:dgBilateralConstraint.obj
 0002:00000b68       __real@4079000000000000    10075b68     physics_2009:dgBilateralConstraint.obj
 0002:00000b70       __real@4077700000000000    10075b70     physics_2009:dgBilateralConstraint.obj
 0002:00000b78       ??_7dgCollisionSphere@@6B@ 10075b78     physics_2009:dgCollisionSphere.obj
 0002:00000bf0       __real@3fd999999999999a    10075bf0     physics_2009:dgCollisionSphere.obj
 0002:00000bf8       __real@4010c15200000000    10075bf8     physics_2009:dgCollisionSphere.obj
 0002:00000c08       ??_7dgConvexCollision@@6B@ 10075c08     physics_2009:dgConvexCollision.obj
 0002:00000c80       __real@4090000000000000    10075c80     physics_2009:dgConvexCollision.obj
 0002:00000c88       __real@4070000000000000    10075c88     physics_2009:dgConvexCollision.obj
 0002:00000c90       __real@3eb0c6f78dd616ff    10075c90     physics_2009:dgConvexCollision.obj
 0002:00000c98       __real@bf1a36e2e0000000    10075c98     physics_2009:dgConvexCollision.obj
 0002:00000ca0       __real@3bc79ca100000000    10075ca0     physics_2009:dgConvexCollision.obj
 0002:00000ca8       __real@3d71979980000000    10075ca8     physics_2009:dgConvexCollision.obj
 0002:00000cb0       __real@3ee2dfd69a4df480    10075cb0     physics_2009:dgConvexCollision.obj
 0002:00000cb8       __real@baf357c2a0000000    10075cb8     physics_2009:dgConvexCollision.obj
 0002:00000cc0       ??_7dgCollisionNull@@6B@   10075cc0     physics_2009:dgCollisionNull.obj
 0002:00000d34       ??_C@_07FLDMKAK@contact?$AA@ 10075d34     physics_2009:dgContact.obj
 0002:00000d40       __real@3fd99999a0000000    10075d40     physics_2009:dgContact.obj
 0002:00000d48       __real@3fd3333340000000    10075d48     physics_2009:dgContact.obj
 0002:00000d50       __real@4049000000000000    10075d50     physics_2009:dgContact.obj
 0002:00000d58       ??_7dgContact@@6B@         10075d58     physics_2009:dgContact.obj
 0002:00000d80       ??_7dgCollisionConvexModifier@@6B@ 10075d80     physics_2009:dgCollisionConvexModifier.obj
 0002:00000df8       __real@c197d78400000000    10075df8     physics_2009:dgCollisionConvexModifier.obj
 0002:00000e00       ??_7dgCompoundCollision@@6B@ 10075e00     physics_2009:dgCompoundCollision.obj
 0002:00000e68       __real@bbc79ca100000000    10075e68     physics_2009:dgCompoundCollision.obj
 0002:00000e70       ??_7dgCollisionUserMesh@@6B@ 10075e70     physics_2009:dgCollisionUserMesh.obj
 0002:00000ee0       ??_7dgCollisionHeightField@@6B@ 10075ee0     physics_2009:dgCollisionHeightField.obj
 0002:00000f50       __real@c26d1a94a0000000    10075f50     physics_2009:dgCollisionHeightField.obj
 0002:00000f58       __real@bfe279a6c0000000    10075f58     physics_2009:dgMinkowskiConv.obj
 0002:00000f60       __real@3fe279a6c0000000    10075f60     physics_2009:dgMinkowskiConv.obj
 0002:00000f68       __real@3fefef9dc0000000    10075f68     physics_2009:dgMinkowskiConv.obj
 0002:00000f70       __real@3feffb00c0000000    10075f70     physics_2009:dgMinkowskiConv.obj
 0002:00000f78       __real@3fa1de6660000000    10075f78     physics_2009:dgMinkowskiConv.obj
 0002:00000f80       __real@3fe6a09e60000000    10075f80     physics_2009:dgMinkowskiConv.obj
 0002:00000f88       __real@3fa1de58c0000000    10075f88     physics_2009:dgMinkowskiConv.obj
 0002:00000f90       __real@3feffb0280000000    10075f90     physics_2009:dgMinkowskiConv.obj
 0002:00000f98       __real@3f40624de0000000    10075f98     physics_2009:dgMinkowskiConv.obj
 0002:00000fa0       __real@3e112e0be0000000    10075fa0     physics_2009:dgMinkowskiConv.obj
 0002:00000fa8       __real@3f1a36e3068db8c0    10075fa8     physics_2009:dgMinkowskiConv.obj
 0002:00000fb0       __real@3f60000000000000    10075fb0     physics_2009:dgMinkowskiConv.obj
 0002:00000fb8       __real@3f70000000000000    10075fb8     physics_2009:dgMinkowskiConv.obj
 0002:00000fc0       __real@3fb0000000000000    10075fc0     physics_2009:dgMinkowskiConv.obj
 0002:00000fc8       ??_7dgCollisionBox@@6B@    10075fc8     physics_2009:dgCollisionBox.obj
 0002:00001040       __real@3fd5555555555555    10076040     physics_2009:dgCollisionBox.obj
 0002:00001048       __real@4020000000000000    10076048     physics_2009:dgCollisionBox.obj
 0002:00001050       ??_7dgCollision@@6B@       10076050     physics_2009:dgCollision.obj
 0002:000010b8       ??_7dgCollisionEllipse@@6B@ 100760b8     physics_2009:dgCollisionEllipse.obj
 0002:00001138       ??_7dgCollisionCapsule@@6B@ 10076138     physics_2009:dgCollisionCapsule.obj
 0002:000011b0       __real@3fc5555555555555    100761b0     physics_2009:dgCollisionCapsule.obj
 0002:000011b8       __real@4010dca355555555    100761b8     physics_2009:dgCollisionCapsule.obj
 0002:000011c0       __real@40194af500000000    100761c0     physics_2009:dgCollisionCapsule.obj
 0002:000011c8       __real@bfe0000000000000    100761c8     physics_2009:dgCollisionCapsule.obj
 0002:000011d8       ??_7dgCollisionCone@@6B@   100761d8     physics_2009:dgCollisionCone.obj
 0002:00001250       __real@3fa5555555555555    10076250     physics_2009:dgCollisionCone.obj
 0002:00001258       __real@3fc3333333333333    10076258     physics_2009:dgCollisionCone.obj
 0002:00001260       __real@3fd3333333333333    10076260     physics_2009:dgCollisionCone.obj
 0002:00001268       __real@4000dca355555555    10076268     physics_2009:dgCollisionCone.obj
 0002:00001278       ??_7dgCollisionCylinder@@6B@ 10076278     physics_2009:dgCollisionCylinder.obj
 0002:000012f8       ??_7dgCollisionChamferCylinder@@6B@ 100762f8     physics_2009:dgCollisionChamferCylinder.obj
 0002:00001370       __real@3fe921fa00000000    10076370     physics_2009:dgCollisionChamferCylinder.obj
 0002:00001378       __real@3fd0c15155555555    10076378     physics_2009:dgCollisionChamferCylinder.obj
 0002:00001380       __real@3c32725de0000000    10076380     physics_2009:dgCollisionChamferCylinder.obj
 0002:00001398       __real@bfefff9720000000    10076398     corelib_2009:dgMatrix.obj
 0002:000013a0       __real@3feffffde0000000    100763a0     corelib_2009:dgMatrix.obj
 0002:000013a8       __real@bfeffffde0000000    100763a8     corelib_2009:dgMatrix.obj
 0002:000013b0       __real@3f1a36e2eb1c432d    100763b0     corelib_2009:dgTypes.obj
 0002:000013c0       __real@3fe69fbe80000000    100763c0     corelib_2009:dgPolyhedra.obj
 0002:000013c8       __real@bfecccccc0000000    100763c8     corelib_2009:dgPolyhedra.obj
 0002:000013d0       ??_7dgPolyhedra@@6B@       100763d0     corelib_2009:dgPolyhedra.obj
 0002:000013d4       ??_7dgPolygonSoupDatabase@@6B@ 100763d4     corelib_2009:dgAABBPolygonSoup.obj
 0002:000013f4       ??_7dgAABBPolygonSoup@@6B@ 100763f4     corelib_2009:dgAABBPolygonSoup.obj
 0002:00001418       ??_7dgPolySoupFilterAllocator@@6B@ 10076418     corelib_2009:dgPolygonSoupBuilder.obj
 0002:00001420       __real@3fb5555560000000    10076420     corelib_2009:dgPolygonSoupBuilder.obj
 0002:00001428       __real@bf91eb8520000000    10076428     corelib_2009:dgIntersections.obj
 0002:00001430       __real@bf847ae140000000    10076430     corelib_2009:dgIntersections.obj
 0002:00001440       __FPinit                   10076440     LIBCMT:_fpinit_.obj
 0002:00001444       __FPmtinit                 10076444     LIBCMT:_fpinit_.obj
 0002:00001448       __FPmtterm                 10076448     LIBCMT:_fpinit_.obj
 0002:00001498       __pRawDllMain              10076498     LIBCMT:dllcrt0.obj
 0002:00001498       __pDefaultRawDllMain       10076498     LIBCMT:dllcrt0.obj
 0002:0000149c       ??_C@_05KLBDPFGC@e?$CL000?$AA@ 1007649c     LIBCMT:cvt.obj
 0002:000014a8       __real@4150017ec0000000    100764a8     LIBCMT:_testfdiv_.obj
 0002:000014b0       __real@4147ffff80000000    100764b0     LIBCMT:_testfdiv_.obj
 0002:000014b8       ??_C@_0BK@NHEOCAHP@IsProcessorFeaturePresent?$AA@ 100764b8     LIBCMT:_testfdiv_.obj
 0002:000014d4       ??_C@_08CPNIBGIE@KERNEL32?$AA@ 100764d4     LIBCMT:_testfdiv_.obj
 0002:00001548       ??_C@_03IIINPABG@tan?$AA@  10076548     LIBCMT:_libm_error_.obj
 0002:0000154c       ??_C@_03LALBNOCG@cos?$AA@  1007654c     LIBCMT:_libm_error_.obj
 0002:00001550       ??_C@_03BLEJJJBH@sin?$AA@  10076550     LIBCMT:_libm_error_.obj
 0002:00001554       ??_C@_04EHEDPDJG@modf?$AA@ 10076554     LIBCMT:_libm_error_.obj
 0002:0000155c       ??_C@_05PBJFFIGL@floor?$AA@ 1007655c     LIBCMT:_libm_error_.obj
 0002:00001564       ??_C@_04GFPJNGEK@ceil?$AA@ 10076564     LIBCMT:_libm_error_.obj
 0002:0000156c       ??_C@_04MLLJIGOK@atan?$AA@ 1007656c     LIBCMT:_libm_error_.obj
 0002:00001574       ??_C@_05EOHGHCHD@exp10?$AA@ 10076574     LIBCMT:_libm_error_.obj
 0002:0000157c       ??_C@_04PDIFKINK@acos?$AA@ 1007657c     LIBCMT:_libm_error_.obj
 0002:00001584       ??_C@_04FIHNOPOL@asin?$AA@ 10076584     LIBCMT:_libm_error_.obj
 0002:0000158c       ??_C@_03MGHMBJCF@log?$AA@  1007658c     LIBCMT:_libm_error_.obj
 0002:00001590       ??_C@_05HGHHAHAP@log10?$AA@ 10076590     LIBCMT:_libm_error_.obj
 0002:00001598       ??_C@_03KHJOGHMM@exp?$AA@  10076598     LIBCMT:_libm_error_.obj
 0002:0000159c       ??_C@_03JGHBODFD@pow?$AA@  1007659c     LIBCMT:_libm_error_.obj
 0002:000015a0       ??_C@_0P@MIGLKIOC@CorExitProcess?$AA@ 100765a0     LIBCMT:crt0dat.obj
 0002:000015b0       ??_C@_1BI@BGOHAHKC@?$AAm?$AAs?$AAc?$AAo?$AAr?$AAe?$AAe?$AA?4?$AAd?$AAl?$AAl?$AA?$AA@ 100765b0     LIBCMT:crt0dat.obj
 0002:000015c8       ??_C@_0P@GGKDKEEG@runtime?5error?5?$AA@ 100765c8     LIBCMT:crt0msg.obj
 0002:000015d8       ??_C@_02PCIJFNDE@?$AN?6?$AA@ 100765d8     LIBCMT:crt0msg.obj
 0002:000015dc       ??_C@_0O@MJNIPGOH@TLOSS?5error?$AN?6?$AA@ 100765dc     LIBCMT:crt0msg.obj
 0002:000015ec       ??_C@_0N@BONNPDHF@SING?5error?$AN?6?$AA@ 100765ec     LIBCMT:crt0msg.obj
 0002:000015fc       ??_C@_0P@MBDAJNE@DOMAIN?5error?$AN?6?$AA@ 100765fc     LIBCMT:crt0msg.obj
 0002:00001610       ??_C@_0JL@DFDOOABL@R6034?$AN?6An?5application?5has?5made?5a@ 10076610     LIBCMT:crt0msg.obj
 0002:000016b0       ??_C@_0PH@EPAFIJ@R6033?$AN?6?9?5Attempt?5to?5use?5MSIL?5cod@ 100766b0     LIBCMT:crt0msg.obj
 0002:000017a8       ??_C@_0DD@BKEEABMM@R6032?$AN?6?9?5not?5enough?5space?5for?5lo@ 100767a8     LIBCMT:crt0msg.obj
 0002:000017e0       ??_C@_0GD@OFKILIED@R6031?$AN?6?9?5Attempt?5to?5initialize?5t@ 100767e0     LIBCMT:crt0msg.obj
 0002:00001844       ??_C@_0BP@LPMHJOKI@R6030?$AN?6?9?5CRT?5not?5initialized?$AN?6?$AA@ 10076844     LIBCMT:crt0msg.obj
 0002:00001864       ??_C@_0CF@KJDAIALP@R6028?$AN?6?9?5unable?5to?5initialize?5he@ 10076864     LIBCMT:crt0msg.obj
 0002:0000188c       ??_C@_0DF@GAKBPDFP@R6027?$AN?6?9?5not?5enough?5space?5for?5lo@ 1007688c     LIBCMT:crt0msg.obj
 0002:000018c4       ??_C@_0DF@IBLNNAIG@R6026?$AN?6?9?5not?5enough?5space?5for?5st@ 100768c4     LIBCMT:crt0msg.obj
 0002:000018fc       ??_C@_0CG@IOHKGFNJ@R6025?$AN?6?9?5pure?5virtual?5function?5c@ 100768fc     LIBCMT:crt0msg.obj
 0002:00001924       ??_C@_0DF@JIJJFJDC@R6024?$AN?6?9?5not?5enough?5space?5for?5_o@ 10076924     LIBCMT:crt0msg.obj
 0002:0000195c       ??_C@_0CJ@EGEJHFME@R6019?$AN?6?9?5unable?5to?5open?5console?5@ 1007695c     LIBCMT:crt0msg.obj
 0002:00001988       ??_C@_0CB@GNHNIELH@R6018?$AN?6?9?5unexpected?5heap?5error?$AN?6@ 10076988     LIBCMT:crt0msg.obj
 0002:000019ac       ??_C@_0CN@FOLDKNG@R6017?$AN?6?9?5unexpected?5multithread?5@ 100769ac     LIBCMT:crt0msg.obj
 0002:000019dc       ??_C@_0CM@FAHFJNHO@R6016?$AN?6?9?5not?5enough?5space?5for?5th@ 100769dc     LIBCMT:crt0msg.obj
 0002:00001a08       ??_C@_0JG@LBKMGKLD@?$AN?6This?5application?5has?5requested@ 10076a08     LIBCMT:crt0msg.obj
 0002:00001aa0       ??_C@_0CM@FLCNIPKK@R6009?$AN?6?9?5not?5enough?5space?5for?5en@ 10076aa0     LIBCMT:crt0msg.obj
 0002:00001acc       ??_C@_0CK@KMMJOAPP@R6008?$AN?6?9?5not?5enough?5space?5for?5ar@ 10076acc     LIBCMT:crt0msg.obj
 0002:00001af8       ??_C@_0CN@LEKKICBM@R6002?$AN?6?9?5floating?5point?5support?5@ 10076af8     LIBCMT:crt0msg.obj
 0002:00001b28       ??_C@_0CF@GOGNBNAK@Microsoft?5Visual?5C?$CL?$CL?5Runtime?5Lib@ 10076b28     LIBCMT:crt0msg.obj
 0002:00001b50       ??_C@_02PHMGELLB@?6?6?$AA@ 10076b50     LIBCMT:crt0msg.obj
 0002:00001b54       ??_C@_03KHICJKCI@?4?4?4?$AA@ 10076b54     LIBCMT:crt0msg.obj
 0002:00001b58       ??_C@_0BH@DNAGHKFM@?$DMprogram?5name?5unknown?$DO?$AA@ 10076b58     LIBCMT:crt0msg.obj
 0002:00001b70       ??_C@_0BK@OFGJDLJJ@Runtime?5Error?$CB?6?6Program?3?5?$AA@ 10076b70     LIBCMT:crt0msg.obj
 0002:00001b8c       ??_C@_0O@NLDKAIKN@EncodePointer?$AA@ 10076b8c     LIBCMT:tidtable.obj
 0002:00001b9c       ??_C@_1BK@DBDEIDLH@?$AAK?$AAE?$AAR?$AAN?$AAE?$AAL?$AA3?$AA2?$AA?4?$AAD?$AAL?$AAL?$AA?$AA@ 10076b9c     LIBCMT:tidtable.obj
 0002:00001bb8       ??_C@_0O@KBPMFGHI@DecodePointer?$AA@ 10076bb8     LIBCMT:tidtable.obj
 0002:00001bc8       ??_C@_07PEJMOBNF@FlsFree?$AA@ 10076bc8     LIBCMT:tidtable.obj
 0002:00001bd0       ??_C@_0M@JCPCPOEF@FlsSetValue?$AA@ 10076bd0     LIBCMT:tidtable.obj
 0002:00001bdc       ??_C@_0M@GDNOONDI@FlsGetValue?$AA@ 10076bdc     LIBCMT:tidtable.obj
 0002:00001be8       ??_C@_08KNHFBNJ@FlsAlloc?$AA@ 10076be8     LIBCMT:tidtable.obj
 0002:00001bf8       __XcptActTab               10076bf8     LIBCMT:winxfltr.obj
 0002:00001c70       ??_C@_1O@CEDCILHN@?$AA?$CI?$AAn?$AAu?$AAl?$AAl?$AA?$CJ?$AA?$AA@ 10076c70     LIBCMT:output.obj
 0002:00001c80       ??_C@_06OJHGLDPL@?$CInull?$CJ?$AA@ 10076c80     LIBCMT:output.obj
 0002:00001c88       ___lookuptable             10076c88     LIBCMT:output.obj
 0002:00005638       __DEFAULT_CW_in_mem        1007a638     LIBCMT:_common_.obj
 0002:0000563a       __pi_by_2_to_61            1007a63a     LIBCMT:_common_.obj
 0002:000056f8       ??_C@_0L@KDOEJCKC@_nextafter?$AA@ 1007a6f8     LIBCMT:_fpexcept_.obj
 0002:00005704       ??_C@_05JGDBENOH@_logb?$AA@ 1007a704     LIBCMT:_fpexcept_.obj
 0002:0000570c       ??_C@_03ONILCKOB@_yn?$AA@  1007a70c     LIBCMT:_fpexcept_.obj
 0002:00005710       ??_C@_03NAKIGLHK@_y1?$AA@  1007a710     LIBCMT:_fpexcept_.obj
 0002:00005714       ??_C@_03MJLDFKDL@_y0?$AA@  1007a714     LIBCMT:_fpexcept_.obj
 0002:00005718       ??_C@_05GKKHEGJL@frexp?$AA@ 1007a718     LIBCMT:_fpexcept_.obj
 0002:00005720       ??_C@_04KEPJIHGP@fmod?$AA@ 1007a720     LIBCMT:_fpexcept_.obj
 0002:00005728       ??_C@_06MEIMCGCF@_hypot?$AA@ 1007a728     LIBCMT:_fpexcept_.obj
 0002:00005730       ??_C@_05KBKMEMPO@_cabs?$AA@ 1007a730     LIBCMT:_fpexcept_.obj
 0002:00005738       ??_C@_05CEJMAHNP@ldexp?$AA@ 1007a738     LIBCMT:_fpexcept_.obj
 0002:00005740       ??_C@_04ODHECPBC@fabs?$AA@ 1007a740     LIBCMT:_fpexcept_.obj
 0002:00005748       ??_C@_04EIAKFFMI@sqrt?$AA@ 1007a748     LIBCMT:_fpexcept_.obj
 0002:00005750       ??_C@_05KNGEOGJB@atan2?$AA@ 1007a750     LIBCMT:_fpexcept_.obj
 0002:00005758       ??_C@_04FJHINJAO@tanh?$AA@ 1007a758     LIBCMT:_fpexcept_.obj
 0002:00005760       ??_C@_04HPJJNFIM@cosh?$AA@ 1007a760     LIBCMT:_fpexcept_.obj
 0002:00005768       ??_C@_04COOMCNPB@sinh?$AA@ 1007a768     LIBCMT:_fpexcept_.obj
 0002:00005770       ??_C@_0BI@DFKBFLJE@GetProcessWindowStation?$AA@ 1007a770     LIBCMT:crtmbox.obj
 0002:00005788       ??_C@_0BK@CIDNPOGP@GetUserObjectInformationA?$AA@ 1007a788     LIBCMT:crtmbox.obj
 0002:000057a4       ??_C@_0BD@HHGDFDBJ@GetLastActivePopup?$AA@ 1007a7a4     LIBCMT:crtmbox.obj
 0002:000057b8       ??_C@_0BA@HNOPNCHB@GetActiveWindow?$AA@ 1007a7b8     LIBCMT:crtmbox.obj
 0002:000057c8       ??_C@_0M@CHKKJDAI@MessageBoxA?$AA@ 1007a7c8     LIBCMT:crtmbox.obj
 0002:000057d4       ??_C@_0L@NDEGIDAG@USER32?4DLL?$AA@ 1007a7d4     LIBCMT:crtmbox.obj
 0002:000057e0       ___lookuptable_s           1007a7e0     LIBCMT:outputs.obj
 0002:0000583c       ??_C@_13NOLLCAOD@?$AA?$AA?$AA?$AA@ 1007a83c     LIBCMT:a_map.obj
 0002:00005840       ___newctype                1007a840     LIBCMT:ctype.obj
 0002:00005b40       __wctype                   1007ab40     LIBCMT:ctype.obj
 0002:00005d48       ___newclmap                1007ad48     LIBCMT:ctype.obj
 0002:00005ec8       ___newcumap                1007aec8     LIBCMT:ctype.obj
 0002:00006048       ??_C@_08JCCMCCIL@HH?3mm?3ss?$AA@ 1007b048     LIBCMT:strftime.obj
 0002:00006054       ??_C@_0BE@CKGJFCPC@dddd?0?5MMMM?5dd?0?5yyyy?$AA@ 1007b054     LIBCMT:strftime.obj
 0002:00006068       ??_C@_08BPBNCDIB@MM?1dd?1yy?$AA@ 1007b068     LIBCMT:strftime.obj
 0002:00006074       ??_C@_02CJNFDJBF@PM?$AA@   1007b074     LIBCMT:strftime.obj
 0002:00006078       ??_C@_02DEDBPAFC@AM?$AA@   1007b078     LIBCMT:strftime.obj
 0002:0000607c       ??_C@_08EDHMEBNP@December?$AA@ 1007b07c     LIBCMT:strftime.obj
 0002:00006088       ??_C@_08HCHEGEOA@November?$AA@ 1007b088     LIBCMT:strftime.obj
 0002:00006094       ??_C@_07JJNFCEND@October?$AA@ 1007b094     LIBCMT:strftime.obj
 0002:0000609c       ??_C@_09BHHEALKD@September?$AA@ 1007b09c     LIBCMT:strftime.obj
 0002:000060a8       ??_C@_06LBBHFDDG@August?$AA@ 1007b0a8     LIBCMT:strftime.obj
 0002:000060b0       ??_C@_04MIEPOIFP@July?$AA@ 1007b0b0     LIBCMT:strftime.obj
 0002:000060b8       ??_C@_04CNLMGBGM@June?$AA@ 1007b0b8     LIBCMT:strftime.obj
 0002:000060c0       ??_C@_05DMJDNLEJ@April?$AA@ 1007b0c0     LIBCMT:strftime.obj
 0002:000060c8       ??_C@_05HPCKOFNC@March?$AA@ 1007b0c8     LIBCMT:strftime.obj
 0002:000060d0       ??_C@_08GNJGEPFN@February?$AA@ 1007b0d0     LIBCMT:strftime.obj
 0002:000060dc       ??_C@_07CGJPFGJA@January?$AA@ 1007b0dc     LIBCMT:strftime.obj
 0002:000060e4       ??_C@_03MKABNOCG@Dec?$AA@  1007b0e4     LIBCMT:strftime.obj
 0002:000060e8       ??_C@_03JPJOFNIA@Nov?$AA@  1007b0e8     LIBCMT:strftime.obj
 0002:000060ec       ??_C@_03BMAOKBAD@Oct?$AA@  1007b0ec     LIBCMT:strftime.obj
 0002:000060f0       ??_C@_03GGCAPAJC@Sep?$AA@  1007b0f0     LIBCMT:strftime.obj
 0002:000060f4       ??_C@_03IFJFEIGA@Aug?$AA@  1007b0f4     LIBCMT:strftime.obj
 0002:000060f8       ??_C@_03LBGABGKK@Jul?$AA@  1007b0f8     LIBCMT:strftime.obj
 0002:000060fc       ??_C@_03IDFGHECI@Jun?$AA@  1007b0fc     LIBCMT:strftime.obj
 0002:00006100       ??_C@_03CNMDKL@May?$AA@    1007b100     LIBCMT:strftime.obj
 0002:00006104       ??_C@_03LEOLGMJP@Apr?$AA@  1007b104     LIBCMT:strftime.obj
 0002:00006108       ??_C@_03ODNJBKGA@Mar?$AA@  1007b108     LIBCMT:strftime.obj
 0002:0000610c       ??_C@_03HJBDCHOM@Feb?$AA@  1007b10c     LIBCMT:strftime.obj
 0002:00006110       ??_C@_03JIHJHPIE@Jan?$AA@  1007b110     LIBCMT:strftime.obj
 0002:00006114       ??_C@_08INBOOONO@Saturday?$AA@ 1007b114     LIBCMT:strftime.obj
 0002:00006120       ??_C@_06JECMNKMI@Friday?$AA@ 1007b120     LIBCMT:strftime.obj
 0002:00006128       ??_C@_08HACCIKIA@Thursday?$AA@ 1007b128     LIBCMT:strftime.obj
 0002:00006134       ??_C@_09DLIGFAKA@Wednesday?$AA@ 1007b134     LIBCMT:strftime.obj
 0002:00006140       ??_C@_07BAAGCFCM@Tuesday?$AA@ 1007b140     LIBCMT:strftime.obj
 0002:00006148       ??_C@_06JLEDEDGH@Monday?$AA@ 1007b148     LIBCMT:strftime.obj
 0002:00006150       ??_C@_06OOPIFAJ@Sunday?$AA@ 1007b150     LIBCMT:strftime.obj
 0002:00006158       ??_C@_03FEFJNEK@Sat?$AA@   1007b158     LIBCMT:strftime.obj
 0002:0000615c       ??_C@_03IDIOELNC@Fri?$AA@  1007b15c     LIBCMT:strftime.obj
 0002:00006160       ??_C@_03IOFIKPDN@Thu?$AA@  1007b160     LIBCMT:strftime.obj
 0002:00006164       ??_C@_03MHOMLAJA@Wed?$AA@  1007b164     LIBCMT:strftime.obj
 0002:00006168       ??_C@_03NAGEINEP@Tue?$AA@  1007b168     LIBCMT:strftime.obj
 0002:0000616c       ??_C@_03PDAGKDH@Mon?$AA@   1007b16c     LIBCMT:strftime.obj
 0002:00006170       ??_C@_03KOEHGMDN@Sun?$AA@  1007b170     LIBCMT:strftime.obj
 0002:00006174       ??_C@_06IMKFLFPG@1?$CDQNAN?$AA@ 1007b174     LIBCMT:_x10fout_.obj
 0002:0000617c       ??_C@_05DNEBIAHO@1?$CDINF?$AA@ 1007b17c     LIBCMT:_x10fout_.obj
 0002:00006184       ??_C@_05PHHOCPM@1?$CDIND?$AA@ 1007b184     LIBCMT:_x10fout_.obj
 0002:0000618c       ??_C@_06PGGFOGJG@1?$CDSNAN?$AA@ 1007b18c     LIBCMT:_x10fout_.obj
 0002:0000619c       ___dnames                  1007b19c     LIBCMT:timeset.obj
 0002:000061b4       ___mnames                  1007b1b4     LIBCMT:timeset.obj
 0002:000061dc       ??_C@_07GPDNMNG@CONOUT$?$AA@ 1007b1dc     LIBCMT:initcon.obj
 0002:000061e8       __load_config_used         1007b1e8     LIBCMT:loadcfg.obj
 0002:00006290       ___safe_se_handler_table   1007b290     <linker-defined>
 0002:0000629c       ___rtc_iaa                 1007b29c     LIBCMT:_initsect_.obj
 0002:000062a0       ___rtc_izz                 1007b2a0     LIBCMT:_initsect_.obj
 0002:000062a4       ___rtc_taa                 1007b2a4     LIBCMT:_initsect_.obj
 0002:000062a8       ___rtc_tzz                 1007b2a8     LIBCMT:_initsect_.obj
 0002:00006684       __IMPORT_DESCRIPTOR_KERNEL32 1007b684     kernel32:KERNEL32.dll
 0002:00006698       __NULL_IMPORT_DESCRIPTOR   1007b698     kernel32:KERNEL32.dll
 0003:00000040       ?m_rayCastSimplex@dgConvexCollision@@1PAY03HA 1007f040     physics_2009:dgConvexCollision.obj
 0003:00000080       ?m_hullDirs@dgConvexCollision@@1PAVdgTriplex@@A 1007f080     physics_2009:dgConvexCollision.obj
 0003:000001d0       ?mult@dgConvexMassData@@2PANA 1007f1d0     physics_2009:dgConvexCollision.obj
 0003:00000230       ?m_negOne@dgConvexCollision@@1VdgVector@@A 1007f230     physics_2009:dgConvexCollision.obj
 0003:00000250       ?m_nrh0p5@dgConvexCollision@@1VdgVector@@A 1007f250     physics_2009:dgConvexCollision.obj
 0003:00000270       ?m_nrh3p0@dgConvexCollision@@1VdgVector@@A 1007f270     physics_2009:dgConvexCollision.obj
 0003:00000290       ?m_indexStep@dgConvexCollision@@1VdgVector@@A 1007f290     physics_2009:dgConvexCollision.obj
 0003:000002b0       ?m_index_0123@dgConvexCollision@@1VdgVector@@A 1007f2b0     physics_2009:dgConvexCollision.obj
 0003:000002d0       ?m_index_4567@dgConvexCollision@@1VdgVector@@A 1007f2d0     physics_2009:dgConvexCollision.obj
 0003:000002f0       ?m_huge@dgConvexCollision@@1VdgVector@@A 1007f2f0     physics_2009:dgConvexCollision.obj
 0003:00000310       ?m_negativeTiny@dgConvexCollision@@1VdgVector@@A 1007f310     physics_2009:dgConvexCollision.obj
 0003:00000330       ?m_aabb_padd@dgConvexCollision@@1VdgVector@@A 1007f330     physics_2009:dgConvexCollision.obj
 0003:00000350       ?m_faceIndex@dgContactSolver@@2PAY03HA 1007f350     physics_2009:dgMinkowskiConv.obj
 0003:00000390       ?m_edgeArray@dgCollisionBox@@1PAVdgConvexSimplexEdge@@A 1007f390     physics_2009:dgCollisionBox.obj
 0003:00000530       ?g_allocaror@dgInternalMemory@@3VdgMemoryAllocator@@A 1007f530     corelib_2009:dgMemory.obj
 0003:00000a54       __fltused                  1007fa54     LIBCMT:_fpinit_.obj
 0003:00000a58       __ldused                   1007fa58     LIBCMT:_fpinit_.obj
 0003:00000a60       __half                     1007fa60     LIBCMT:_pow_.obj
 0003:00000a78       __cfltcvt_tab              1007fa78     LIBCMT:cmiscdat.obj
 0003:00000bc8       __amblksiz                 1007fbc8     LIBCMT:heapinit.obj
 0003:00000bcc       __aexit_rtn                1007fbcc     LIBCMT:crt0dat.obj
 0003:00000df8       ___flsindex                1007fdf8     LIBCMT:tidtable.obj
 0003:00000dfc       ___getvalueindex           1007fdfc     LIBCMT:tidtable.obj
 0003:00000e00       ___badioinfo               1007fe00     LIBCMT:ioinit.obj
 0003:00000e40       __First_FPE_Indx           1007fe40     LIBCMT:winxfltr.obj
 0003:00000e44       __Num_FPE                  1007fe44     LIBCMT:winxfltr.obj
 0003:00000e48       __XcptActTabSize           1007fe48     LIBCMT:winxfltr.obj
 0003:00000e4c       __XcptActTabCount          1007fe4c     LIBCMT:winxfltr.obj
 0003:00000e50       ___nullstring              1007fe50     LIBCMT:output.obj
 0003:00000e54       ___wnullstring             1007fe54     LIBCMT:output.obj
 0003:00000e74       ___abort_behavior          1007fe74     LIBCMT:abort.obj
 0003:00000e80       __infinity                 1007fe80     LIBCMT:_87tran_.obj
 0003:00000e8a       __minfinity                1007fe8a     LIBCMT:_87tran_.obj
 0003:00000e94       __logemax                  1007fe94     LIBCMT:_87tran_.obj
 0003:00000eba       __OP_EXPjmptab             1007feba     LIBCMT:_87tran_.obj
 0003:00000ee0       __indefinite               1007fee0     LIBCMT:_87disp_.obj
 0003:00000eea       __piby2                    1007feea     LIBCMT:_87disp_.obj
 0003:00000f10       ___initialmbcinfo          1007ff10     LIBCMT:mbctype.obj
 0003:00001130       __mbctype                  10080130     LIBCMT:mbctype.obj
 0003:00001238       __mbcasemap                10080238     LIBCMT:mbctype.obj
 0003:00001338       ___ptmbcinfo               10080338     LIBCMT:mbctype.obj
 0003:00001434       ___globallocalestatus      10080434     LIBCMT:glstatus.obj
 0003:00001438       ___clocalestr              10080438     LIBCMT:nlsdata2.obj
 0003:00001440       ___initiallocinfo          10080440     LIBCMT:nlsdata2.obj
 0003:00001518       ___ptlocinfo               10080518     LIBCMT:nlsdata2.obj
 0003:0000151c       ___lc_clike                1008051c     LIBCMT:nlsdata2.obj
 0003:00001520       ___initiallocalestructinfo 10080520     LIBCMT:nlsdata2.obj
 0003:00001530       ___security_cookie         10080530     LIBCMT:gs_cookie.obj
 0003:00001534       ___security_cookie_complement 10080534     LIBCMT:gs_cookie.obj
 0003:00001540       __matherr_flag             10080540     LIBCMT:_matherr_.obj
 0003:00001630       __d_inf                    10080630     LIBCMT:_util_.obj
 0003:00001638       __d_ind                    10080638     LIBCMT:_util_.obj
 0003:00001640       __d_max                    10080640     LIBCMT:_util_.obj
 0003:00001648       __d_min                    10080648     LIBCMT:_util_.obj
 0003:00001650       __d_mzero                  10080650     LIBCMT:_util_.obj
 0003:00001658       __iob                      10080658     LIBCMT:_file.obj
 0003:00001a40       __pctype                   10080a40     LIBCMT:ctype.obj
 0003:00001a44       __pwctype                  10080a44     LIBCMT:ctype.obj
 0003:00001a48       ___lc_time_c               10080a48     LIBCMT:strftime.obj
 0003:00001b00       ___lc_time_curr            10080b00     LIBCMT:strftime.obj
 0003:00001b04       ___lconv_static_decimal    10080b04     LIBCMT:lconv.obj
 0003:00001b08       ___lconv_c                 10080b08     LIBCMT:lconv.obj
 0003:00001b38       ___lconv                   10080b38     LIBCMT:lconv.obj
 0003:00001b3c       ___mb_cur_max              10080b3c     LIBCMT:nlsdata1.obj
 0003:00001b40       ___decimal_point           10080b40     LIBCMT:nlsdata1.obj
 0003:00001b44       ___decimal_point_length    10080b44     LIBCMT:nlsdata1.obj
 0003:00001b80       __NLG_Destination          10080b80     LIBCMT:exsup.obj
 0003:00001ba0       __timezone                 10080ba0     LIBCMT:timeset.obj
 0003:00001ba4       __daylight                 10080ba4     LIBCMT:timeset.obj
 0003:00001ba8       __dstbias                  10080ba8     LIBCMT:timeset.obj
 0003:00001c30       __tzname                   10080c30     LIBCMT:timeset.obj
 0003:00001c50       __pow10pos                 10080c50     LIBCMT:_constpow_.obj
 0003:00001db0       __pow10neg                 10080db0     LIBCMT:_constpow_.obj
 0003:00001f0c       __coninpfh                 10080f0c     LIBCMT:initcon.obj
 0003:00001f10       __confh                    10080f10     LIBCMT:initcon.obj
 0003:00001f14       __lpdays                   10080f14     LIBCMT:days.obj
 0003:00001f48       __days                     10080f48     LIBCMT:days.obj
 0003:00001f90       ?m_edgeArray@dgCollisionSphere@@1PAVdgConvexSimplexEdge@@A 10080f90     physics_2009:dgCollisionSphere.obj
 0003:00002590       ?m_shapeRefCount@dgCollisionSphere@@1HA 10081590     physics_2009:dgCollisionSphere.obj
 0003:000025a0       ?m_unitSphere@dgCollisionSphere@@1PAVdgVector@@A 100815a0     physics_2009:dgCollisionSphere.obj
 0003:000027e0       ?m_iniliazised@dgConvexCollision@@1HA 100817e0     physics_2009:dgConvexCollision.obj
 0003:000027f0       ?m_zero@dgConvexCollision@@1VdgVector@@A 100817f0     physics_2009:dgConvexCollision.obj
 0003:00002810       ?m_signMask@dgConvexCollision@@1VdgVector@@A 10081810     physics_2009:dgConvexCollision.obj
 0003:00002830       ?m_triplexMask@dgConvexCollision@@1VdgVector@@A 10081830     physics_2009:dgConvexCollision.obj
 0003:00002850       ?m_multiResDir@dgConvexCollision@@1PAVdgVector@@A 10081850     physics_2009:dgConvexCollision.obj
 0003:00002950       ?m_multiResDir_sse@dgConvexCollision@@1PAVdgVector@@A 10081950     physics_2009:dgConvexCollision.obj
 0003:00002a10       ?m_vertex@dgCollisionHeightField@@0PAPAVdgVector@@A 10081a10     physics_2009:dgCollisionHeightField.obj
 0003:00002a30       ?m_vertexCount@dgCollisionHeightField@@0PAHA 10081a30     physics_2009:dgCollisionHeightField.obj
 0003:00002a50       ?m_refCount@dgCollisionHeightField@@0HA 10081a50     physics_2009:dgCollisionHeightField.obj
 0003:00002a60       ?m_dir@dgContactSolver@@2PAVdgVector@@A 10081a60     physics_2009:dgMinkowskiConv.obj
 0003:00002c20       ?m_edgeArray@dgCollisionCapsule@@0PAVdgConvexSimplexEdge@@A 10081c20     physics_2009:dgCollisionCapsule.obj
 0003:00003760       ?m_shapeRefCount@dgCollisionCapsule@@0HA 10082760     physics_2009:dgCollisionCapsule.obj
 0003:00003768       ?m_edgeArray@dgCollisionCone@@0PAVdgConvexSimplexEdge@@A 10082768     physics_2009:dgCollisionCone.obj
 0003:00003968       ?m_shapeRefCount@dgCollisionCone@@0HA 10082968     physics_2009:dgCollisionCone.obj
 0003:00003970       ?m_edgeArray@dgCollisionCylinder@@0PAVdgConvexSimplexEdge@@A 10082970     physics_2009:dgCollisionCylinder.obj
 0003:00003c70       ?m_shapeRefCount@dgCollisionCylinder@@0HA 10082c70     physics_2009:dgCollisionCylinder.obj
 0003:00003c80       ?m_edgeArray@dgCollisionChamferCylinder@@0PAVdgConvexSimplexEdge@@A 10082c80     physics_2009:dgCollisionChamferCylinder.obj
 0003:00004580       ?m_shapeRefCount@dgCollisionChamferCylinder@@0HA 10083580     physics_2009:dgCollisionChamferCylinder.obj
 0003:00004590       ?m_shapesDirs@dgCollisionChamferCylinder@@0PAVdgVector@@A 10083590     physics_2009:dgCollisionChamferCylinder.obj
 0003:00004714       ___fastflag                10083714     LIBCMT:_fpinit_.obj
 0003:00004718       __adjust_fdiv              10083718     LIBCMT:_fpinit_.obj
 0003:00004720       __aenvptr                  10083720     LIBCMT:dllcrt0.obj
 0003:00004724       __wenvptr                  10083724     LIBCMT:dllcrt0.obj
 0003:00004728       ___error_mode              10083728     LIBCMT:dllcrt0.obj
 0003:0000472c       ___app_type                1008372c     LIBCMT:dllcrt0.obj
 0003:00004888       ___sbh_pHeaderDefer        10083888     LIBCMT:sbheap.obj
 0003:0000488c       __crtheap                  1008388c     LIBCMT:heapinit.obj
 0003:00004890       __umaskval                 10083890     LIBCMT:crt0dat.obj
 0003:00004894       ___argc                    10083894     LIBCMT:crt0dat.obj
 0003:00004898       ___argv                    10083898     LIBCMT:crt0dat.obj
 0003:0000489c       ___wargv                   1008389c     LIBCMT:crt0dat.obj
 0003:000048a0       __environ                  100838a0     LIBCMT:crt0dat.obj
 0003:000048a4       ___initenv                 100838a4     LIBCMT:crt0dat.obj
 0003:000048a8       __wenviron                 100838a8     LIBCMT:crt0dat.obj
 0003:000048ac       ___winitenv                100838ac     LIBCMT:crt0dat.obj
 0003:000048b0       __pgmptr                   100838b0     LIBCMT:crt0dat.obj
 0003:000048b4       __wpgmptr                  100838b4     LIBCMT:crt0dat.obj
 0003:000048b8       __exitflag                 100838b8     LIBCMT:crt0dat.obj
 0003:000048bc       __C_Termination_Done       100838bc     LIBCMT:crt0dat.obj
 0003:000048c0       __C_Exit_Done              100838c0     LIBCMT:crt0dat.obj
 0003:00004bdc       ?_pnhHeap@@3P6AHI@ZA       10083bdc     LIBCMT:handler.obj
 0003:00004be0       __newmode                  10083be0     LIBCMT:_newmode.obj
 0003:00004be4       _gpFlsAlloc                10083be4     LIBCMT:tidtable.obj
 0003:00004be8       _gpFlsGetValue             10083be8     LIBCMT:tidtable.obj
 0003:00004bec       _gpFlsSetValue             10083bec     LIBCMT:tidtable.obj
 0003:00004bf0       _gpFlsFree                 10083bf0     LIBCMT:tidtable.obj
 0003:00004bf4       __maxwait                  10083bf4     LIBCMT:crtheap.obj
 0003:00004d04       ___pInvalidArgHandler      10083d04     LIBCMT:invarg.obj
 0003:00004d24       ___pPurecall               10083d24     LIBCMT:inithelp.obj
 0003:00004d2c       ___mbulinfo                10083d2c     LIBCMT:mbctype.obj
 0003:00004d38       ___mbcodepage              10083d38     LIBCMT:mbctype.obj
 0003:00004d3c       ___ismbcodepage            10083d3c     LIBCMT:mbctype.obj
 0003:00004d40       ___mblcid                  10083d40     LIBCMT:mbctype.obj
 0003:00004d44       ___locale_changed          10083d44     LIBCMT:setlocal.obj
 0003:00004d48       ___lc_handle               10083d48     LIBCMT:nlsdata2.obj
 0003:00004d60       ___lc_codepage             10083d60     LIBCMT:nlsdata2.obj
 0003:00004d64       ___lc_collate_cp           10083d64     LIBCMT:nlsdata2.obj
 0003:00004d68       __outputformat             10083d68     LIBCMT:outputformat.obj
 0003:00004d70       ?__pInconsistency@@3P6AXXZA 10083d70     LIBCMT:hooks.obj
 0003:00004d8c       __cflush                   10083d8c     LIBCMT:_file.obj
 0003:00004d9c       ___lconv_static_null       10083d9c     LIBCMT:lconv.obj
 0003:000050c4       __stdbuf                   100840c4     LIBCMT:_sftbuf.obj
 0003:00005188       __debugger_hook_dummy      10084188     <common>
 0003:0000518c       ___piob                    1008418c     <common>
 0003:000051a0       __bufin                    100841a0     <common>
 0003:000061a0       __nstream                  100851a0     <common>
 0003:000061a4       __nhandle                  100851a4     <common>
 0003:000061c0       ___pioinfo                 100851c0     <common>
 0003:000062c0       ___env_initialized         100852c0     <common>
 0003:000062c4       ___onexitend               100852c4     <common>
 0003:000062c8       ___onexitbegin             100852c8     <common>
 0003:000062cc       ___mbctype_initialized     100852cc     <common>
 0003:000062d0       ___dyn_tls_init_callback   100852d0     <common>
 0003:000062d4       ___active_heap             100852d4     <common>
 0003:000062d8       __pDestructExceptionObject 100852d8     <common>
 0003:000062dc       ___sbh_cntHeaderList       100852dc     <common>
 0003:000062e0       ___sbh_pHeaderList         100852e0     <common>
 0003:000062e4       ___sbh_threshold           100852e4     <common>
 0003:000062e8       ___sbh_pHeaderScan         100852e8     <common>
 0003:000062ec       ___sbh_sizeHeaderList      100852ec     <common>
 0003:000062f0       ___sbh_indGroupDefer       100852f0     <common>
 0003:000062f4       ___use_sse2_mathfcns       100852f4     <common>
 0003:000062f8       ___sse2_available          100852f8     <common>
 0003:000062fc       __pmatherr                 100852fc     <common>
 0003:00006300       __acmdln                   10085300     <common>

 entry point at        0001:000644b6

 Static symbols

 0001:00008f90       ?CompareIslands@@YAHQBVdgIsland@@0PAX@Z 10009f90 f   physics_2009:dgWorldDynamicUpdate.obj
 0001:00018520       ?CompareContact@@YAHQBVdgContactPoint@@0PAX@Z 10019520 f   physics_2009:dgNarrowPhaseCollision.obj
 0001:00055b70       ?SortVertices@InternalGeoUtil@@YAHQANHHHHN@Z 10056b70 f   corelib_2009:dgTypes.obj
 0001:000565e0       ?QuickSortVertices@InternalGeoUtil@@YAHQANHHHHN@Z 100575e0 f   corelib_2009:dgTypes.obj
 0001:00057980       ?NormalizeVertex@InternalPolyhedra@@YAXHQAVdgTriplex@@QBNH@Z 10058980 f   corelib_2009:dgPolyhedra.obj
 0001:00057ad0       ?EdgePlane@InternalPolyhedra@@YA?AVdgBigPlane@@HHHQBVdgTriplex@@@Z 10058ad0 f   corelib_2009:dgPolyhedra.obj
 0001:00057bf0       ?UnboundedLoopPlane@InternalPolyhedra@@YA?AVdgBigPlane@@HHHQBVdgTriplex@@@Z 10058bf0 f   corelib_2009:dgPolyhedra.obj
 0001:00057d40       ?BigFaceNormal@InternalPolyhedra@@YA?AVdgBigVector@@PAVdgEdge@@QBNH@Z 10058d40 f   corelib_2009:dgPolyhedra.obj
 0001:00057e50       ?CalculateVertexMetrics@InternalPolyhedra@@YAXQAUVERTEX_METRIC_STRUCT@1@QBVdgTriplex@@PAVdgEdge@@@Z 10058e50 f   corelib_2009:dgPolyhedra.obj
 0001:00057f30       ?IsEssensialPointDiagonal@InternalPolyhedra@@YA_NPAVdgEdge@@ABVdgBigVector@@QBNH@Z 10058f30 f   corelib_2009:dgPolyhedra.obj
 0001:00058430       ?CalculateAllMetrics@InternalPolyhedra@@YAXPBVdgPolyhedra@@QAUVERTEX_METRIC_STRUCT@1@QBVdgTriplex@@@Z 10059430 f   corelib_2009:dgPolyhedra.obj
 0001:000586c0       ?EdgePenalty@InternalPolyhedra@@YANABVdgPolyhedra@@QBVdgTriplex@@PAVdgEdge@@@Z 100596c0 f   corelib_2009:dgPolyhedra.obj
 0001:00058d00       ?GetInteriorDiagonals@InternalPolyhedra@@YAHAAVdgPolyhedra@@QAPAVdgEdge@@H@Z 10059d00 f   corelib_2009:dgPolyhedra.obj
 0001:00058fa0       ?MatchTwins@InternalPolyhedra@@YA_NPAVdgPolyhedra@@@Z 10059fa0 f   corelib_2009:dgPolyhedra.obj
 0001:00059050       ?FindEarTip@InternalPolyhedra@@YAPAVdgEdge@@ABVdgPolyhedra@@PAV2@QBNHAAV?$dgDownHeap@PAVdgEdge@@N@@ABVdgVector@@@Z 1005a050 f   corelib_2009:dgPolyhedra.obj
 0001:00059d70       ?CloseOpenBounds@InternalPolyhedra@@YAXPAVdgPolyhedra@@@Z 1005ad70 f   corelib_2009:dgPolyhedra.obj
 0001:0005ae50       ?MarkAdjacentCoplanarFaces@InternalPolyhedra@@YAXAAVdgPolyhedra@@0PAVdgEdge@@QBNH@Z 1005be50 f   corelib_2009:dgPolyhedra.obj
 0001:0005b140       ?ConvexPartition@InternalPolyhedra@@YA_NAAVdgPolyhedra@@QBNH@Z 1005c140 f   corelib_2009:dgPolyhedra.obj
 0001:0005baa0       ?TriangulateFace@InternalPolyhedra@@YAPAVdgEdge@@AAVdgPolyhedra@@PAV2@QBNHAAV?$dgDownHeap@PAVdgEdge@@N@@PAVdgVector@@@Z 1005caa0 f   corelib_2009:dgPolyhedra.obj
 0001:000643c0       ___DllMainCRTStartup       100653c0 f   LIBCMT:dllcrt0.obj
 0001:00064556       __hw_cw                    10065556 f   LIBCMT:_ieee87_.obj
 0001:000645e4       ___hw_cw_sse2              100655e4 f   LIBCMT:_ieee87_.obj
 0001:00064f5a       __onexit_nolock            10065f5a f   LIBCMT:onexit.obj
 0001:000650d5       __callthreadstartex        100660d5 f   LIBCMT:threadex.obj
 0001:00065116       __threadstartex@4          10066116 f   LIBCMT:threadex.obj
 0001:0006553e       __shift                    1006653e f   LIBCMT:cvt.obj
 0001:00065583       __cftoe2_l                 10066583 f   LIBCMT:cvt.obj
 0001:00065b55       __cftof2_l                 10066b55 f   LIBCMT:cvt.obj
 0001:000672ae       __initterm                 100682ae f   LIBCMT:crt0dat.obj
 0001:00067374       _doexit                    10068374 f   LIBCMT:crt0dat.obj
 0001:000677b9       _fastzero_I                100687b9 f   LIBCMT:p4_memset.obj
 0001:0006789f       _fastcopy_I                1006889f f   LIBCMT:p4_memcpy.obj
 0001:000684b0       _parse_cmdline             100694b0 f   LIBCMT:stdargv.obj
 0001:00068c03       _write_char                10069c03 f   LIBCMT:output.obj
 0001:00068c36       _write_multi_char          10069c36 f   LIBCMT:output.obj
 0001:00068c5c       _write_string              10069c5c f   LIBCMT:output.obj
 0001:00069b3c       _siglookup                 1006ab3c f   LIBCMT:winsig.obj
 0001:0006b37d       ?CPtoLCID@@YAHH@Z          1006c37d f   LIBCMT:mbctype.obj
 0001:0006b3ac       ?setSBCS@@YAXPAUthreadmbcinfostruct@@@Z 1006c3ac f   LIBCMT:mbctype.obj
 0001:0006b410       ?setSBUpLow@@YAXPAUthreadmbcinfostruct@@@Z 1006c410 f   LIBCMT:mbctype.obj
 0001:0006b647       ?getSystemCP@@YAHH@Z       1006c647 f   LIBCMT:mbctype.obj
 0001:0006bcd1       __updatetlocinfoEx_nolock  1006ccd1 f   LIBCMT:setlocal.obj
 0001:0006c82b       _has_osfxsr_set            1006d82b f   LIBCMT:cpu_disp.obj
 0001:0006d244       __unwind_handler4          1006e244 f   LIBCMT:exsup4.obj
 0001:0006d976       ?x_ismbbtype_l@@YAHPAUlocaleinfo_struct@@IHH@Z 1006e976 f   LIBCMT:ismbbyte.obj
 0001:0006f82e       ?__crtLCMapStringA_stat@@YAHPAUlocaleinfo_struct@@KKPBDHPADHHH@Z 1007082e f   LIBCMT:a_map.obj
 0001:0006fc18       ?__crtGetStringTypeA_stat@@YAHPAUlocaleinfo_struct@@KPBDHPAGHHH@Z 10070c18 f   LIBCMT:a_str.obj
 0001:00071e24       __unwind_handler           10072e24 f   LIBCMT:exsup.obj
 0001:00072444       _flsall                    10073444 f   LIBCMT:fflush.obj
 0001:00072527       ?strtoxl@@YAKPAUlocaleinfo_struct@@PBDPAPBDHH@Z 10073527 f   LIBCMT:strtol.obj
 0001:000730a0       ??__Eg_allocaror@dgInternalMemory@@YAXXZ 100740a0 f   corelib_2009:dgMemory.obj
 0001:000730b0       ??__Fg_allocaror@dgInternalMemory@@YAXXZ 100740b0 f   corelib_2009:dgMemory.obj
