 newton

 Timestamp is 4a902641 (Sat Aug 22 10:09:21 2009)

 Preferred load address is 10000000

 Start         Length     Name                   Class
 0001:00000000 000884e4H .text                   CODE
 0001:000884f0 0000000cH .text$yc                CODE
 0001:00088500 00000001H .text$yd                CODE
 0002:00000000 0000014cH .idata$5                DATA
 0002:0000014c 00000004H .CRT$XCA                DATA
 0002:00000150 00000004H .CRT$XCU                DATA
 0002:00000154 00000004H .CRT$XCZ                DATA
 0002:00000158 00000004H .CRT$XIA                DATA
 0002:0000015c 00000014H .CRT$XIC                DATA
 0002:00000170 00000004H .CRT$XIZ                DATA
 0002:00000174 00000004H .CRT$XPA                DATA
 0002:00000178 00000004H .CRT$XPX                DATA
 0002:0000017c 00000004H .CRT$XPXA               DATA
 0002:00000180 00000004H .CRT$XPZ                DATA
 0002:00000184 00000004H .CRT$XTA                DATA
 0002:00000188 00000004H .CRT$XTZ                DATA
 0002:00000190 00005f60H .rdata                  DATA
 0002:000060f0 00000059H .rdata$debug            DATA
 0002:00006150 00000010H .rdata$sxdata           DATA
 0002:00006160 00000004H .rtc$IAA                DATA
 0002:00006164 00000004H .rtc$IZZ                DATA
 0002:00006168 00000004H .rtc$TAA                DATA
 0002:0000616c 00000004H .rtc$TZZ                DATA
 0002:00006170 00000404H .xdata$x                DATA
 0002:00006574 00000014H .idata$2                DATA
 0002:00006588 00000014H .idata$3                DATA
 0002:0000659c 0000014cH .idata$4                DATA
 0002:000066e8 000005f0H .idata$6                DATA
 0002:00006ce0 000027aaH .edata                  DATA
 0003:00000000 00001e00H .data                   DATA
 0003:00001e00 000040c4H .bss                    DATA

  Address         Publics by Value              Rva+Base       Lib:Object

 0000:00000000       __except_list              00000000     <absolute>
 0000:00000004       ___safe_se_handler_count   00000004     <absolute>
 0000:00000000       ___ImageBase               10000000     <linker-defined>
 0001:00000000       _DllMain@12                10001000 f   Newton.obj
 0001:00000010       _NewtonGetMemoryUsed       10001010 f   Newton.obj
 0001:00000020       _NewtonInvalidateCache     10001020 f   Newton.obj
 0001:00000030       _NewtonSetPlatformArchitecture 10001030 f   Newton.obj
 0001:00000040       _NewtonGetPlatformArchitecture 10001040 f   Newton.obj
 0001:00000050       _NewtonSetThreadsCount     10001050 f   Newton.obj
 0001:00000060       _NewtonGetThreadsCount     10001060 f   Newton.obj
 0001:00000070       _NewtonSetMultiThreadSolverOnSingleIsland 10001070 f   Newton.obj
 0001:00000080       _NewtonGetMultiThreadSolverOnSingleIsland 10001080 f   Newton.obj
 0001:00000090       _NewtonSetSolverModel      10001090 f   Newton.obj
 0001:000000a0       _NewtonSetFrictionModel    100010a0 f   Newton.obj
 0001:000000b0       _NewtonSetPerformanceClock 100010b0 f   Newton.obj
 0001:000000c0       _NewtonReadPerformanceTicks 100010c0 f   Newton.obj
 0001:000000d0       _NewtonCollisionUpdate     100010d0 f   Newton.obj
 0001:00000100       _NewtonSetIslandUpdateEvent 10001100 f   Newton.obj
 0001:00000110       _NewtonSetCollisionDestructor 10001110 f   Newton.obj
 0001:00000120       _NewtonSetBodyLeaveWorldEvent 10001120 f   Newton.obj
 0001:00000130       _NewtonWorldGetVersion     10001130 f   Newton.obj
 0001:00000140       _NewtonWorldSetUserData    10001140 f   Newton.obj
 0001:00000150       _NewtonWorldGetUserData    10001150 f   Newton.obj
 0001:00000160       _NewtonWorldSetDestructorCallBack 10001160 f   Newton.obj
 0001:00000170       _NewtonWorldGetDestructorCallBack 10001170 f   Newton.obj
 0001:00000180       _NewtonWorldGetBodyCount   10001180 f   Newton.obj
 0001:00000190       _NewtonWorldGetConstraintCount 10001190 f   Newton.obj
 0001:000001a0       _NewtonIslandGetBody       100011a0 f   Newton.obj
 0001:000001c0       _NewtonMaterialGetDefaultGroupID 100011c0 f   Newton.obj
 0001:000001d0       _NewtonMaterialCreateGroupID 100011d0 f   Newton.obj
 0001:000001e0       _NewtonMaterialDestroyAllGroupID 100011e0 f   Newton.obj
 0001:000001f0       _NewtonMaterialSetDefaultCollidable 100011f0 f   Newton.obj
 0001:00000220       _NewtonMaterialSetContinuousCollisionMode 10001220 f   Newton.obj
 0001:00000250       _NewtonWorldGetFirstMaterial 10001250 f   Newton.obj
 0001:00000260       _NewtonWorldGetNextMaterial 10001260 f   Newton.obj
 0001:00000270       _NewtonMaterialGetContactFaceAttribute 10001270 f   Newton.obj
 0001:00000280       _NewtonMaterialGetContactPositionAndNormal 10001280 f   Newton.obj
 0001:000002b0       _NewtonMaterialGetContactTangentDirections 100012b0 f   Newton.obj
 0001:000002e0       _NewtonMaterialSetContactFrictionState 100012e0 f   Newton.obj
 0001:00000320       _NewtonMaterialSetContactNormalAcceleration 10001320 f   Newton.obj
 0001:00000340       _NewtonMaterialSetContactTangentAcceleration 10001340 f   Newton.obj
 0001:00000370       _NewtonCreateNull          10001370 f   Newton.obj
 0001:00000380       _NewtonCreateBox           10001380 f   Newton.obj
 0001:000003e0       _NewtonCreateSphere        100013e0 f   Newton.obj
 0001:000004e0       _NewtonCreateCone          100014e0 f   Newton.obj
 0001:00000540       _NewtonCreateCapsule       10001540 f   Newton.obj
 0001:000005a0       _NewtonCreateCylinder      100015a0 f   Newton.obj
 0001:00000600       _NewtonCreateChamferCylinder 10001600 f   Newton.obj
 0001:00000660       _NewtonCreateConvexHullFromMesh 10001660 f   Newton.obj
 0001:00000680       _NewtonConvexHullModifierGetMatrix 10001680 f   Newton.obj
 0001:000006b0       _NewtonConvexHullModifierSetMatrix 100016b0 f   Newton.obj
 0001:000006d0       _NewtonCollisionIsTriggerVolume 100016d0 f   Newton.obj
 0001:000006f0       _NewtonCollisionSetAsTriggerVolume 100016f0 f   Newton.obj
 0001:00000710       _NewtonConvexCollisionCalculateVolume 10001710 f   Newton.obj
 0001:00000720       _NewtonTreeCollisionSetUserRayCastCallback 10001720 f   Newton.obj
 0001:00000730       _NewtonTreeCollisionBeginBuild 10001730 f   Newton.obj
 0001:00000740       _NewtonTreeCollisionAddFace 10001740 f   Newton.obj
 0001:00000760       _NewtonTreeCollisionEndBuild 10001760 f   Newton.obj
 0001:00000770       _NewtonSceneCollisionCreateProxy 10001770 f   Newton.obj
 0001:00000780       _NewtonSceneCollisionDestroyProxy 10001780 f   Newton.obj
 0001:00000790       _NewtonSceneCollisionOptimize 10001790 f   Newton.obj
 0001:000007a0       _NewtonCollisionPointDistance 100017a0 f   Newton.obj
 0001:000007d0       _NewtonCollisionClosestPoint 100017d0 f   Newton.obj
 0001:00000810       _NewtonCollisionCollide    10001810 f   Newton.obj
 0001:00000850       _NewtonCollisionCollideContinue 10001850 f   Newton.obj
 0001:000008b0       _NewtonCollisionForEachPolygonDo 100018b0 f   Newton.obj
 0001:000008f0       _NewtonCollisionMakeUnique 100018f0 f   Newton.obj
 0001:00000900       _NewtonReleaseCollision    10001900 f   Newton.obj
 0001:00000910       _NewtonCollisionSerialize  10001910 f   Newton.obj
 0001:00000930       _NewtonCreateCollisionFromSerialization 10001930 f   Newton.obj
 0001:00000950       _NewtonCollisionGetInfo    10001950 f   Newton.obj
 0001:00000970       _NewtonGetEulerAngle       10001970 f   Newton.obj
 0001:000009a0       _NewtonCalculateSpringDamperAcceleration 100019a0 f   Newton.obj
 0001:00000a10       _NewtonCreateBody          10001a10 f   Newton.obj
 0001:00000a20       _NewtonDestroyBody         10001a20 f   Newton.obj
 0001:00000a30       _NewtonBodySetMatrix       10001a30 f   Newton.obj
 0001:00000a70       _NewtonBodyGetFirstJoint   10001a70 f   Newton.obj
 0001:00000a80       _NewtonBodyGetNextJoint    10001a80 f   Newton.obj
 0001:00000a90       _NewtonBodyGetFirstContactJoint 10001a90 f   Newton.obj
 0001:00000aa0       _NewtonBodyGetNextContactJoint 10001aa0 f   Newton.obj
 0001:00000ab0       _NewtonBodySetCollision    10001ab0 f   Newton.obj
 0001:00000ac0       _NewtonBodySetFreezeState  10001ac0 f   Newton.obj
 0001:00000ae0       _NewtonBallSetUserCallback 10001ae0 f   Newton.obj
 0001:00000af0       _NewtonBallGetJointAngle   10001af0 f   Newton.obj
 0001:00000b20       _NewtonBallGetJointOmega   10001b20 f   Newton.obj
 0001:00000b50       _NewtonBallGetJointForce   10001b50 f   Newton.obj
 0001:00000b80       _NewtonSliderSetUserCallback 10001b80 f   Newton.obj
 0001:00000b80       _NewtonHingeSetUserCallback 10001b80 f   Newton.obj
 0001:00000b90       _NewtonHingeCalculateStopAlpha 10001b90 f   Newton.obj
 0001:00000bb0       _NewtonHingeGetJointForce  10001bb0 f   Newton.obj
 0001:00000be0       _NewtonSliderCalculateStopAccel 10001be0 f   Newton.obj
 0001:00000c00       _NewtonSliderGetJointForce 10001c00 f   Newton.obj
 0001:00000c30       _NewtonCorkscrewGetJointPosit 10001c30 f   Newton.obj
 0001:00000c30       _NewtonUniversalGetJointAngle1 10001c30 f   Newton.obj
 0001:00000c40       _NewtonSliderGetJointVeloc 10001c40 f   Newton.obj
 0001:00000c40       _NewtonCorkscrewGetJointVeloc 10001c40 f   Newton.obj
 0001:00000c50       _NewtonCorkscrewGetJointAngle 10001c50 f   Newton.obj
 0001:00000c50       _NewtonSliderGetJointPosit 10001c50 f   Newton.obj
 0001:00000c50       _NewtonUniversalGetJointAngle0 10001c50 f   Newton.obj
 0001:00000c50       _NewtonHingeGetJointAngle  10001c50 f   Newton.obj
 0001:00000c60       _NewtonHingeGetJointOmega  10001c60 f   Newton.obj
 0001:00000c60       _NewtonUniversalGetJointOmega0 10001c60 f   Newton.obj
 0001:00000c60       _NewtonCorkscrewGetJointOmega 10001c60 f   Newton.obj
 0001:00000c70       _NewtonCorkscrewCalculateStopAccel 10001c70 f   Newton.obj
 0001:00000c90       _NewtonUniversalSetUserCallback 10001c90 f   Newton.obj
 0001:00000c90       _NewtonCorkscrewSetUserCallback 10001c90 f   Newton.obj
 0001:00000ca0       _NewtonUniversalGetJointOmega1 10001ca0 f   Newton.obj
 0001:00000cb0       _NewtonCorkscrewCalculateStopAlpha 10001cb0 f   Newton.obj
 0001:00000cb0       _NewtonUniversalCalculateStopAlpha0 10001cb0 f   Newton.obj
 0001:00000cd0       _NewtonUniversalCalculateStopAlpha1 10001cd0 f   Newton.obj
 0001:00000cf0       _NewtonUniversalGetJointForce 10001cf0 f   Newton.obj
 0001:00000cf0       _NewtonCorkscrewGetJointForce 10001cf0 f   Newton.obj
 0001:00000d20       _NewtonUpVectorGetPin      10001d20 f   Newton.obj
 0001:00000d50       _NewtonUserJointAddGeneralRow 10001d50 f   Newton.obj
 0001:00000d70       _NewtonUserJointSetRowMaximumFriction 10001d70 f   Newton.obj
 0001:00000d90       _NewtonUserJointSetRowMinimumFriction 10001d90 f   Newton.obj
 0001:00000db0       _NewtonUserJointSetRowAcceleration 10001db0 f   Newton.obj
 0001:00000dd0       _NewtonUserJointSetRowSpringDamperAcceleration 10001dd0 f   Newton.obj
 0001:00000df0       _NewtonUserJointSetRowStiffness 10001df0 f   Newton.obj
 0001:00000e10       _NewtonUserJointGetRowForce 10001e10 f   Newton.obj
 0001:00000e20       _NewtonUserJointSetFeedbackCollectorCallback 10001e20 f   Newton.obj
 0001:00000e30       _NewtonJointSetUserData    10001e30 f   Newton.obj
 0001:00000e40       _NewtonJointGetUserData    10001e40 f   Newton.obj
 0001:00000e50       _NewtonJointGetInfo        10001e50 f   Newton.obj
 0001:00000e70       _NewtonJointSetStiffness   10001e70 f   Newton.obj
 0001:00000e90       _NewtonJointGetStiffness   10001e90 f   Newton.obj
 0001:00000ea0       _NewtonJointSetDestructor  10001ea0 f   Newton.obj
 0001:00000eb0       _NewtonDestroyJoint        10001eb0 f   Newton.obj
 0001:00000ec0       _NewtonMeshDestroy         10001ec0 f   Newton.obj
 0001:00000ee0       _NewtonMeshCalculateVertexNormals 10001ee0 f   Newton.obj
 0001:00000f00       _NewtonMeshApplySphericalMapping 10001f00 f   Newton.obj
 0001:00000f10       _NewtonMeshApplyBoxMapping 10001f10 f   Newton.obj
 0001:00000f30       _NewtonMeshApplyCylindricalMapping 10001f30 f   Newton.obj
 0001:00000f50       _NewtonMeshBeginFace       10001f50 f   Newton.obj
 0001:00000f60       _NewtonMeshAddFace         10001f60 f   Newton.obj
 0001:00000f80       _NewtonMeshEndFace         10001f80 f   Newton.obj
 0001:00000f90       _NewtonMeshGetVertexCount  10001f90 f   Newton.obj
 0001:00000fa0       _NewtonMeshGetVertexStreams 10001fa0 f   Newton.obj
 0001:00000fd0       _NewtonMeshGetIndirectVertexStreams 10001fd0 f   Newton.obj
 0001:00001020       _NewtonMeshFirstMaterial   10002020 f   Newton.obj
 0001:00001030       _NewtonMeshNextMaterial    10002030 f   Newton.obj
 0001:00001040       _NewtonMeshMaterialGetMaterial 10002040 f   Newton.obj
 0001:00001050       _NewtonMeshMaterialGetIndexCount 10002050 f   Newton.obj
 0001:00001070       _NewtonMeshMaterialGetIndexStream 10002070 f   Newton.obj
 0001:00001090       _NewtonMeshMaterialGetIndexStreamShort 10002090 f   Newton.obj
 0001:000010b0       ?dgGetUserLock@dgWorld@@QAEXXZ 100020b0 f i Newton.obj
 0001:000010d0       ?dgReleasedUserLock@dgWorld@@QAEXXZ 100020d0 f i Newton.obj
 0001:000010f0       ?Scale@?$dgTemplateVector@M@@QBE?AV1@M@Z 100020f0 f i Newton.obj
 0001:00001120       ??H?$dgTemplateVector@M@@QBE?AV0@ABV0@@Z 10002120 f i Newton.obj
 0001:00001150       ??G?$dgTemplateVector@M@@QBE?AV0@ABV0@@Z 10002150 f i Newton.obj
 0001:00001180       ??D?$dgTemplateVector@M@@QBE?AV0@ABV0@@Z 10002180 f i Newton.obj
 0001:000011c0       _NewtonDestroy             100021c0 f   Newton.obj
 0001:00001200       _NewtonWorldCriticalSectionLock 10002200 f   Newton.obj
 0001:00001220       _NewtonWorldCriticalSectionUnlock 10002220 f   Newton.obj
 0001:00001240       _NewtonUpdate              10002240 f   Newton.obj
 0001:00001310       _NewtonSetMinimumFrameRate 10002310 f   Newton.obj
 0001:00001370       _NewtonWorldGetFirstBody   10002370 f   Newton.obj
 0001:00001390       _NewtonWorldGetNextBody    10002390 f   Newton.obj
 0001:000013b0       _NewtonIslandGetBodyAABB   100023b0 f   Newton.obj
 0001:00001410       _NewtonMaterialSetSurfaceThickness 10002410 f   Newton.obj
 0001:00001470       _NewtonMaterialSetDefaultFriction 10002470 f   Newton.obj
 0001:00001550       _NewtonMaterialSetDefaultElasticity 10002550 f   Newton.obj
 0001:000015b0       _NewtonMaterialSetDefaultSoftness 100025b0 f   Newton.obj
 0001:00001610       _NewtonMaterialSetCollisionCallback 10002610 f   Newton.obj
 0001:00001650       _NewtonMaterialGetUserData 10002650 f   Newton.obj
 0001:00001670       _NewtonMaterialGetMaterialPairUserData 10002670 f   Newton.obj
 0001:00001680       _NewtonMaterialGetContactNormalSpeed 10002680 f   Newton.obj
 0001:00001820       _NewtonMaterialGetContactForce 10002820 f   Newton.obj
 0001:00001910       _NewtonMaterialGetBodyCollisionID 10002910 f   Newton.obj
 0001:00001930       _NewtonMaterialSetContactSoftness 10002930 f   Newton.obj
 0001:00001990       _NewtonMaterialSetContactElasticity 10002990 f   Newton.obj
 0001:000019f0       _NewtonMaterialSetContactFrictionCoef 100029f0 f   Newton.obj
 0001:00001b00       _NewtonCreateConvexHull    10002b00 f   Newton.obj
 0001:00001b90       _NewtonCreateConvexHullModifier 10002b90 f   Newton.obj
 0001:00001bb0       _NewtonCreateCompoundCollision 10002bb0 f   Newton.obj
 0001:00001bd0       _NewtonCreateCompoundCollisionFromMesh 10002bd0 f   Newton.obj
 0001:00001bf0       _NewtonCollisionSetUserID  10002bf0 f   Newton.obj
 0001:00001c00       _NewtonCollisionGetUserID  10002c00 f   Newton.obj
 0001:00001c10       _NewtonConvexHullGetFaceIndices 10002c10 f   Newton.obj
 0001:00001c30       _NewtonCreateTreeCollision 10002c30 f   Newton.obj
 0001:00001c50       _NewtonStaticCollisionSetDebugCallback 10002c50 f   Newton.obj
 0001:00001c80       _NewtonTreeCollisionGetFaceAtribute 10002c80 f   Newton.obj
 0001:00001c90       _NewtonTreeCollisionSetFaceAtribute 10002c90 f   Newton.obj
 0001:00001ca0       _NewtonCreateHeightFieldCollision 10002ca0 f   Newton.obj
 0001:00001ce0       _NewtonCreateSceneCollision 10002ce0 f   Newton.obj
 0001:00001d00       _NewtonSceneProxySetMatrix 10002d00 f   Newton.obj
 0001:00001d20       _NewtonSceneProxyGetMatrix 10002d20 f   Newton.obj
 0001:00001d50       _NewtonAddCollisionReference 10002d50 f   Newton.obj
 0001:00001d60       _NewtonBodySetUserData     10002d60 f   Newton.obj
 0001:00001d70       _NewtonBodyGetUserData     10002d70 f   Newton.obj
 0001:00001d80       _NewtonBodyGetWorld        10002d80 f   Newton.obj
 0001:00001d90       _NewtonBodySetTransformCallback 10002d90 f   Newton.obj
 0001:00001da0       _NewtonBodyGetTransformCallback 10002da0 f   Newton.obj
 0001:00001db0       _NewtonBodySetForceAndTorqueCallback 10002db0 f   Newton.obj
 0001:00001dc0       _NewtonBodyGetForceAndTorqueCallback 10002dc0 f   Newton.obj
 0001:00001dd0       _NewtonBodySetDestructorCallback 10002dd0 f   Newton.obj
 0001:00001de0       _NewtonBodyGetMassMatrix   10002de0 f   Newton.obj
 0001:00001e60       _NewtonBodyGetInvMass      10002e60 f   Newton.obj
 0001:00001ee0       _NewtonBodySetMatrixRecursive 10002ee0 f   Newton.obj
 0001:00001f20       _NewtonBodyGetMatrix       10002f20 f   Newton.obj
 0001:00001f40       _NewtonBodyGetRotation     10002f40 f   Newton.obj
 0001:00001f70       _NewtonBodyGetForceAcc     10002f70 f   Newton.obj
 0001:00001fc0       _NewtonBodyGetForce        10002fc0 f   Newton.obj
 0001:00002010       _NewtonBodyGetTorque       10003010 f   Newton.obj
 0001:00002060       _NewtonBodyGetTorqueAcc    10003060 f   Newton.obj
 0001:000020b0       _NewtonBodyGetCentreOfMass 100030b0 f   Newton.obj
 0001:00002100       _NewtonContactJointGetContactCount 10003100 f   Newton.obj
 0001:00002120       _NewtonContactJointGetFirstContact 10003120 f   Newton.obj
 0001:00002150       _NewtonContactJointGetNextContact 10003150 f   Newton.obj
 0001:00002180       _NewtonContactGetMaterial  10003180 f   Newton.obj
 0001:00002190       _NewtonBodyGetCollision    10003190 f   Newton.obj
 0001:000021a0       _NewtonBodySetMaterialGroupID 100031a0 f   Newton.obj
 0001:000021b0       _NewtonBodyGetMaterialGroupID 100031b0 f   Newton.obj
 0001:000021c0       _NewtonBodySetContinuousCollisionMode 100031c0 f   Newton.obj
 0001:000021e0       _NewtonBodyGetContinuousCollisionMode 100031e0 f   Newton.obj
 0001:00002200       _NewtonBodySetJointRecursiveCollision 10003200 f   Newton.obj
 0001:00002230       _NewtonBodyGetJointRecursiveCollision 10003230 f   Newton.obj
 0001:00002250       _NewtonBodyGetFreezeState  10003250 f   Newton.obj
 0001:00002260       _NewtonBodySetAutoSleep    10003260 f   Newton.obj
 0001:00002290       _NewtonBodyGetAutoSleep    10003290 f   Newton.obj
 0001:000022b0       _NewtonBodyGetSleepState   100032b0 f   Newton.obj
 0001:000022c0       _NewtonBodyGetVelocity     100032c0 f   Newton.obj
 0001:00002310       _NewtonBodyGetOmega        10003310 f   Newton.obj
 0001:00002360       _NewtonBodyGetLinearDamping 10003360 f   Newton.obj
 0001:00002380       _NewtonConstraintCreateUserJoint 10003380 f   Newton.obj
 0001:000023c0       _NewtonJointGetBody0       100033c0 f   Newton.obj
 0001:000023d0       _NewtonJointGetBody1       100033d0 f   Newton.obj
 0001:000023f0       _NewtonJointSetCollisionState 100033f0 f   Newton.obj
 0001:00002410       _NewtonJointGetCollisionState 10003410 f   Newton.obj
 0001:00002420       _NewtonMeshCreate          10003420 f   Newton.obj
 0001:00002440       _NewtonMeshCreateFromCollision 10003440 f   Newton.obj
 0001:00002460       ?Unlink@?$dgList@VdgContactMaterial@@@@QAEXPAVdgListNode@1@@Z 10003460 f i Newton.obj
 0001:000024d0       ?SetCentreOfMass@dgBody@@QAEXABVdgVector@@@Z 100034d0 f i Newton.obj
 0001:000025b0       ?SetAngularDamping@dgBody@@QAEXABVdgVector@@@Z 100035b0 f i Newton.obj
 0001:000026a0       ?SetForce@dgBody@@QAEXABVdgVector@@@Z 100036a0 f i Newton.obj
 0001:00002760       ?SetTorque@dgBody@@QAEXABVdgVector@@@Z 10003760 f i Newton.obj
 0001:00002820       _NewtonSetWorldSize        10003820 f   Newton.obj
 0001:00002880       _NewtonWorldForEachBodyInAABBDo 10003880 f   Newton.obj
 0001:000028e0       _NewtonWorldRayCast        100038e0 f   Newton.obj
 0001:00002950       _NewtonWorldConvexCast     10003950 f   Newton.obj
 0001:000029b0       _NewtonMaterialGetContactTangentSpeed 100039b0 f   Newton.obj
 0001:00002b90       _NewtonMaterialSetContactNormalDirection 10003b90 f   Newton.obj
 0001:00002e50       _NewtonMaterialContactRotateTangentDirections 10003e50 f   Newton.obj
 0001:00002fc0       _NewtonConvexCollisionCalculateInertialMatrix 10003fc0 f   Newton.obj
 0001:00003010       _NewtonCreateUserMeshCollision 10004010 f   Newton.obj
 0001:000030a0       _NewtonTreeCollisionGetVertexListIndexListInAABB 100040a0 f   Newton.obj
 0001:00003150       _NewtonCollisionSupportVertex 10004150 f   Newton.obj
 0001:000032e0       _NewtonCollisionCalculateAABB 100042e0 f   Newton.obj
 0001:00003340       _NewtonSetEulerAngle       10004340 f   Newton.obj
 0001:00003740       _NewtonBodySetMassMatrix   10004740 f   Newton.obj
 0001:000038c0       _NewtonBodySetForce        100048c0 f   Newton.obj
 0001:00003900       _NewtonBodyCalculateInverseDynamicsForce 10004900 f   Newton.obj
 0001:00003960       _NewtonBodySetTorque       10004960 f   Newton.obj
 0001:000039a0       _NewtonBodySetCentreOfMass 100049a0 f   Newton.obj
 0001:000039e0       _NewtonBodyAddBuoyancyForce 100049e0 f   Newton.obj
 0001:00003a40       _NewtonBodyGetAABB         10004a40 f   Newton.obj
 0001:00003ac0       _NewtonBodySetVelocity     10004ac0 f   Newton.obj
 0001:00003b20       _NewtonBodySetOmega        10004b20 f   Newton.obj
 0001:00003b80       _NewtonBodySetLinearDamping 10004b80 f   Newton.obj
 0001:00003bd0       _NewtonBodySetAngularDamping 10004bd0 f   Newton.obj
 0001:00003c10       _NewtonBodyGetAngularDamping 10004c10 f   Newton.obj
 0001:00003c70       _NewtonBodyAddImpulse      10004c70 f   Newton.obj
 0001:00003cd0       _NewtonConstraintCreateBall 10004cd0 f   Newton.obj
 0001:00003d10       _NewtonBallSetConeLimits   10004d10 f   Newton.obj
 0001:00004070       _NewtonConstraintCreateHinge 10005070 f   Newton.obj
 0001:000040d0       _NewtonConstraintCreateSlider 100050d0 f   Newton.obj
 0001:00004130       _NewtonConstraintCreateCorkscrew 10005130 f   Newton.obj
 0001:00004190       _NewtonConstraintCreateUniversal 10005190 f   Newton.obj
 0001:00004210       _NewtonConstraintCreateUpVector 10005210 f   Newton.obj
 0001:00004250       _NewtonUpVectorSetPin      10005250 f   Newton.obj
 0001:00004290       _NewtonUserJointAddLinearRow 10005290 f   Newton.obj
 0001:00004390       _NewtonUserJointAddAngularRow 10005390 f   Newton.obj
 0001:00004450       _NewtonMeshPlaneClip       10005450 f   Newton.obj
 0001:000044a0       ?AddForce@dgBody@@QAEXABVdgVector@@@Z 100054a0 f i Newton.obj
 0001:00004510       ?AddTorque@dgBody@@QAEXABVdgVector@@@Z 10005510 f i Newton.obj
 0001:00004580       _NewtonCreate              10005580 f   Newton.obj
 0001:00004650       _NewtonDestroyAllBodies    10005650 f   Newton.obj
 0001:000046a0       _NewtonCollisionRayCast    100056a0 f   Newton.obj
 0001:000048a0       _NewtonBodyAddForce        100058a0 f   Newton.obj
 0001:000048e0       _NewtonBodyAddTorque       100058e0 f   Newton.obj
 0001:00004920       _NewtonContactJointRemoveContact 10005920 f   Newton.obj
 0001:00004960       _NewtonWorldForEachJointDo 10005960 f   Newton.obj
 0001:00004a10       ?Append@?$dgList@UNewtonMeshPartition@@@@QAEPAVdgListNode@1@XZ 10005a10 f i NewtonAproximateConvexPartition.obj
 0001:00004aa0       ?CalculateHulls@NewtonAproximateConvexPartition@@QAEXPBVdgVector@@H@Z 10005aa0 f   NewtonAproximateConvexPartition.obj
 0001:00004bb0       ?RemoveAll@?$dgList@UNewtonMeshPartition@@@@QAEXXZ 10005bb0 f i NewtonAproximateConvexPartition.obj
 0001:00004c20       ??0NewtonAproximateConvexPartition@@QAE@ABVNewtonMeshEffect@@MH@Z 10005c20 f   NewtonAproximateConvexPartition.obj
 0001:00004ca0       ??1NewtonAproximateConvexPartition@@QAE@XZ 10005ca0 f   NewtonAproximateConvexPartition.obj
 0001:00004cb0       ?JacobianDerivative@NewtonUserJoint@@UAEIAAVdgContraintDescritor@@@Z 10005cb0 f   NewtonClass.obj
 0001:00004cf0       ?SetAcceleration@NewtonUserJoint@@QAEXM@Z 10005cf0 f   NewtonClass.obj
 0001:00004d20       ?SetSpringDamperAcceleration@NewtonUserJoint@@QAEXMM@Z 10005d20 f   NewtonClass.obj
 0001:00004da0       ?GetRowForce@NewtonUserJoint@@QBEMH@Z 10005da0 f   NewtonClass.obj
 0001:00004dd0       ?GetInfo@NewtonUserJoint@@UBEXPAVdgConstraintInfo@@@Z 10005dd0 f   NewtonClass.obj
 0001:00004e10       ??3@YAXPAX@Z               10005e10 f i NewtonStdAfx.obj
 0001:00004e10       ?Init@dgBilateralConstraint@@MAEXXZ 10005e10 f i NewtonClass.obj
 0001:00004e10       ??1dgCollidingPairCollector@@QAE@XZ 10005e10 f i physics_2009:dgContact.obj
 0001:00004e10       ??1dgBody@@QAE@XZ          10005e10 f i physics_2009:dgBody.obj
 0001:00004e10       ?BeginFace@dgPolyhedra@@QAEXXZ 10005e10 f i corelib_2009:dgPolyhedra.obj
 0001:00004e20       ??_ENewtonUserJoint@@UAEPAXI@Z 10005e20 f i NewtonClass.obj
 0001:00004e20       ??_GNewtonUserJoint@@UAEPAXI@Z 10005e20 f i NewtonClass.obj
 0001:00004e60       ?SetHighFriction@NewtonUserJoint@@QAEXM@Z 10005e60 f   NewtonClass.obj
 0001:00004ed0       ?SetLowerFriction@NewtonUserJoint@@QAEXM@Z 10005ed0 f   NewtonClass.obj
 0001:00004f50       ?SetRowStiffness@NewtonUserJoint@@QAEXM@Z 10005f50 f   NewtonClass.obj
 0001:00004fc0       ?SetUpdateFeedbackFunction@NewtonUserJoint@@QAEXP6AXPBUNewtonJoint@@MH@Z@Z 10005fc0 f   NewtonClass.obj
 0001:00004fd0       ?DestroyJoints@NewtonDeadJoints@@QAEXAAVNewton@@@Z 10005fd0 f   NewtonClass.obj
 0001:00005030       ??1Newton@@QAE@XZ          10006030 f   NewtonClass.obj
 0001:00005090       ??0NewtonUserJoint@@QAE@PAVdgWorld@@HP6AXPBUNewtonJoint@@MH@ZP6AX1PAUNewtonJointRecord@@@ZPAVdgBody@@5@Z 10006090 f   NewtonClass.obj
 0001:00005140       ?AddAngularRowJacobian@NewtonUserJoint@@QAEXABVdgVector@@M@Z 10006140 f   NewtonClass.obj
 0001:00005210       ?AddGeneralRowJacobian@NewtonUserJoint@@QAEXPBM0@Z 10006210 f   NewtonClass.obj
 0001:000052d0       ?AddLinearRowJacobian@NewtonUserJoint@@QAEXABVdgVector@@00@Z 100062d0 f   NewtonClass.obj
 0001:00005390       ??0Newton@@QAE@M@Z         10006390 f   NewtonClass.obj
 0001:00005400       ?DestroyJoint@Newton@@QAEXPAVdgConstraint@@@Z 10006400 f   NewtonClass.obj
 0001:00005430       ?DestroyBody@Newton@@QAEXPAVdgBody@@@Z 10006430 f   NewtonClass.obj
 0001:00005460       ?DestroyBodies@NewtonDeadBodies@@QAEXAAVNewton@@@Z 10006460 f   NewtonClass.obj
 0001:000054e0       ?UpdatePhysics@Newton@@QAEXM@Z 100064e0 f   NewtonClass.obj
 0001:00005520       ?GetShapeFromCollision@NewtonMeshEffectBuilder@@SAXPAXHPBMH@Z 10006520 f i NewtonMeshEffect.obj
 0001:00005600       ?BeginPolygon@NewtonMeshEffect@@QAEXXZ 10006600 f   NewtonMeshEffect.obj
 0001:00005610       ?AddVertex@NewtonMeshEffect@@AAEXPBMH@Z 10006610 f   NewtonMeshEffect.obj
 0001:00005770       ?AddPolygon@NewtonMeshEffect@@QAEXHPBMHH@Z 10006770 f   NewtonMeshEffect.obj
 0001:000057e0       ?GetVertexStreams@NewtonMeshEffect@@QAEXHPAMH0H0@Z 100067e0 f   NewtonMeshEffect.obj
 0001:000058a0       ?GetIndirectVertexStreams@NewtonMeshEffect@@QAEXHPAMPAH1H011H011@Z 100068a0 f   NewtonMeshEffect.obj
 0001:00005a70       ?GetNextMaterial@NewtonMeshEffect@@QAEHH@Z 10006a70 f   NewtonMeshEffect.obj
 0001:00005aa0       ?GetMaterialGetIndexStream@NewtonMeshEffect@@QAEXHPAH@Z 10006aa0 f   NewtonMeshEffect.obj
 0001:00005b10       ?GetMaterialGetIndexStreamShort@NewtonMeshEffect@@QAEXHPAF@Z 10006b10 f   NewtonMeshEffect.obj
 0001:00005b80       ?CreateConvexAproximationCollision@NewtonMeshEffect@@QBEPAVdgCollision@@MH@Z 10006b80 f   NewtonMeshEffect.obj
 0001:00005bb0       ??Y?$dgTemplateVector@M@@QAEAAV0@ABV0@@Z 10006bb0 f i NewtonMeshEffect.obj
 0001:00005be0       ??0NewtonMeshEffect@@QAE@_N@Z 10006be0 f   NewtonMeshEffect.obj
 0001:00005c40       ??_GNewtonMeshEffect@@UAEPAXI@Z 10006c40 f i NewtonMeshEffect.obj
 0001:00005c40       ??_ENewtonMeshEffect@@UAEPAXI@Z 10006c40 f i NewtonMeshEffect.obj
 0001:00005c90       ?EndPolygon@NewtonMeshEffect@@QAEXXZ 10006c90 f   NewtonMeshEffect.obj
 0001:00005e80       ?CreateConvexCollision@NewtonMeshEffect@@QBEPAVdgCollision@@MH@Z 10006e80 f   NewtonMeshEffect.obj
 0001:00005ef0       ??0NewtonMeshEffect@@QAE@PAVdgCollision@@@Z 10006ef0 f   NewtonMeshEffect.obj
 0001:00006130       ?GetAttriubeArray@NewtonMeshEffect@@AAEXPAUdgVertexAtribute@1@@Z 10007130 f   NewtonMeshEffect.obj
 0001:000061c0       ?ApplyAttriubeArray@NewtonMeshEffect@@AAEXPAUdgVertexAtribute@1@@Z 100071c0 f   NewtonMeshEffect.obj
 0001:00006280       ?GetOrigin@NewtonMeshEffect@@ABE?AVdgVector@@XZ 10007280 f   NewtonMeshEffect.obj
 0001:000063f0       ?FixCylindricalMapping@NewtonMeshEffect@@ABEXPAUdgVertexAtribute@1@@Z 100073f0 f   NewtonMeshEffect.obj
 0001:00006540       ?SphericalMapping@NewtonMeshEffect@@QAEXH@Z 10007540 f   NewtonMeshEffect.obj
 0001:00006760       ?CylindricalMapping@NewtonMeshEffect@@QAEXHH@Z 10007760 f   NewtonMeshEffect.obj
 0001:00006bf0       ?BoxMapping@NewtonMeshEffect@@QAEXHHH@Z 10007bf0 f   NewtonMeshEffect.obj
 0001:00006f90       ?CalcualetNormals@NewtonMeshEffect@@QAEXM@Z 10007f90 f   NewtonMeshEffect.obj
 0001:00007440       ?GetFirstMaterial@NewtonMeshEffect@@QAEHXZ 10008440 f   NewtonMeshEffect.obj
 0001:00007640       ?CapClipFace@NewtonMeshEffect@@AAE_NABVdgPlane@@ABVdgMatrix@@HH@Z 10008640 f   NewtonMeshEffect.obj
 0001:00007890       ?PlaneClip@NewtonMeshEffect@@QAEHABVdgPlane@@ABVdgMatrix@@PAPAV1@HH@Z 10008890 f   NewtonMeshEffect.obj
 0001:00008470       ?ModifierGetMatrix@dgCollision@@UBE?AVdgMatrix@@XZ 10009470 f i physics_2009:dgWorld.obj
 0001:00008490       ?Release@dgCollision@@UAEHXZ 10009490 f i physics_2009:dgWorld.obj
 0001:000084b0       ?GetSentinelBody@dgWorld@@QBEPAVdgBody@@XZ 100094b0 f   physics_2009:dgWorld.obj
 0001:000084c0       ?SetFrictionMode@dgWorld@@QAEXH@Z 100094c0 f   physics_2009:dgWorld.obj
 0001:000084d0       ?SetHardwareMode@dgWorld@@QAEXH@Z 100094d0 f   physics_2009:dgWorld.obj
 0001:00008500       ?GetHardwareMode@dgWorld@@QAEHPAD@Z 10009500 f   physics_2009:dgWorld.obj
 0001:00008550       ?ThreadExecute@dgSetTrreadRoundMode@dgWorld@@UAEXXZ 10009550 f   physics_2009:dgWorld.obj
 0001:00008570       ?SetThreadsCount@dgWorld@@QAEXH@Z 10009570 f   physics_2009:dgWorld.obj
 0001:000085d0       ?GetThreadsCount@dgWorld@@QBEHXZ 100095d0 f   physics_2009:dgWorld.obj
 0001:000085e0       ?EnableThreadOnSingleIsland@dgWorld@@QAEXH@Z 100095e0 f   physics_2009:dgWorld.obj
 0001:00008600       ?GetThreadOnSingleIsland@dgWorld@@QBEHXZ 10009600 f   physics_2009:dgWorld.obj
 0001:00008610       ?DestroyConstraint@dgWorld@@QAEXPAVdgConstraint@@@Z 10009610 f   physics_2009:dgWorld.obj
 0001:00008630       ?UpdateCollision@dgWorld@@QAEXXZ 10009630 f   physics_2009:dgWorld.obj
 0001:00008720       ?Update@dgWorld@@QAEXM@Z   10009720 f   physics_2009:dgWorld.obj
 0001:00008840       ?SetPerfomanceCounter@dgWorld@@QAEXP6AIXZ@Z 10009840 f   physics_2009:dgWorld.obj
 0001:00008890       ?SetUserData@dgWorld@@QAEXPAX@Z 10009890 f   physics_2009:dgWorld.obj
 0001:000088a0       ?GetUserData@dgWorld@@QBEPAXXZ 100098a0 f   physics_2009:dgWorld.obj
 0001:000088b0       ?SetIslandUpdateCallback@dgWorld@@QAEXP6AIPAXH@Z@Z 100098b0 f   physics_2009:dgWorld.obj
 0001:000088c0       ?SetDestroyCollisionCallback@dgWorld@@QAEXP6AXPAVdgCollision@@@Z@Z 100098c0 f   physics_2009:dgWorld.obj
 0001:000088d0       ?SetLeavingWorldCallback@dgWorld@@QAEXP6AXPAVdgBody@@H@Z@Z 100098d0 f   physics_2009:dgWorld.obj
 0001:000088e0       ?CreateBallConstraint@dgWorld@@QAEPAVdgBallConstraint@@ABVdgVector@@PAVdgBody@@1@Z 100098e0 f   physics_2009:dgWorld.obj
 0001:00008930       ?CreateHingeConstraint@dgWorld@@QAEPAVdgHingeConstraint@@ABVdgVector@@0PAVdgBody@@1@Z 10009930 f   physics_2009:dgWorld.obj
 0001:00008980       ?CreateUpVectorConstraint@dgWorld@@QAEPAVdgUpVectorConstraint@@ABVdgVector@@PAVdgBody@@@Z 10009980 f   physics_2009:dgWorld.obj
 0001:000089d0       ?CreateSlidingConstraint@dgWorld@@QAEPAVdgSlidingConstraint@@ABVdgVector@@0PAVdgBody@@1@Z 100099d0 f   physics_2009:dgWorld.obj
 0001:00008a20       ?CreateCorkscrewConstraint@dgWorld@@QAEPAVdgCorkscrewConstraint@@ABVdgVector@@0PAVdgBody@@1@Z 10009a20 f   physics_2009:dgWorld.obj
 0001:00008a70       ?CreateUniversalConstraint@dgWorld@@QAEPAVdgUniversalConstraint@@ABVdgVector@@00PAVdgBody@@1@Z 10009a70 f   physics_2009:dgWorld.obj
 0001:00008ad0       ?GetConstraintsCount@dgWorld@@QBEHXZ 10009ad0 f   physics_2009:dgWorld.obj
 0001:00008ae0       ?AddBodyImpulse@dgWorld@@QAEXPAVdgBody@@ABVdgVector@@1@Z 10009ae0 f   physics_2009:dgWorld.obj
 0001:00008b10       ??_GdgCollisionPoint@@UAEPAXI@Z 10009b10 f i physics_2009:dgWorld.obj
 0001:00008b10       ??_EdgCollisionPoint@@UAEPAXI@Z 10009b10 f i physics_2009:dgWorld.obj
 0001:00008b30       ??_GdgBroadPhaseCellPairsWorkerThread@@UAEPAXI@Z 10009b30 f i physics_2009:dgBroadPhaseCollision.obj
 0001:00008b30       ??_GdgParallelSolverCalculateForces@@UAEPAXI@Z 10009b30 f i physics_2009:dgWorld.obj
 0001:00008b30       ??_EdgBroadPhaseCellPairsWorkerThread@@UAEPAXI@Z 10009b30 f i physics_2009:dgBroadPhaseCollision.obj
 0001:00008b30       ??_EdgSolverWorlkerThreads@@UAEPAXI@Z 10009b30 f i physics_2009:dgWorld.obj
 0001:00008b30       ??_EdgBroadPhaseCalculateContactsWorkerThread@@UAEPAXI@Z 10009b30 f i physics_2009:dgBroadPhaseCollision.obj
 0001:00008b30       ??_GdgBroadPhaseCalculateContactsWorkerThread@@UAEPAXI@Z 10009b30 f i physics_2009:dgBroadPhaseCollision.obj
 0001:00008b30       ??_EdgWorkerThread@@UAEPAXI@Z 10009b30 f i physics_2009:dgWorld.obj
 0001:00008b30       ??_EdgBroadPhaseMaterialCallbackWorkerThread@@UAEPAXI@Z 10009b30 f i physics_2009:dgBroadPhaseCollision.obj
 0001:00008b30       ??_EdgParallelSolverInitFeedbackUpdate@@UAEPAXI@Z 10009b30 f i physics_2009:dgWorld.obj
 0001:00008b30       ??_EdgParallelSolverClear@@UAEPAXI@Z 10009b30 f i physics_2009:dgWorld.obj
 0001:00008b30       ??_EdgSetTrreadRoundMode@dgWorld@@UAEPAXI@Z 10009b30 f i physics_2009:dgWorld.obj
 0001:00008b30       ??_EdgParallelSolverJointAcceleration@@UAEPAXI@Z 10009b30 f i physics_2009:dgWorld.obj
 0001:00008b30       ??_EdgBroadPhaseApplyExternalForce@@UAEPAXI@Z 10009b30 f i physics_2009:dgBroadPhaseCollision.obj
 0001:00008b30       ??_GdgBroadPhaseApplyExternalForce@@UAEPAXI@Z 10009b30 f i physics_2009:dgBroadPhaseCollision.obj
 0001:00008b30       ??_GdgWorkerThread@@UAEPAXI@Z 10009b30 f i physics_2009:dgWorld.obj
 0001:00008b30       ??_GdgParallelSolverBuildJacobianRows@@UAEPAXI@Z 10009b30 f i physics_2009:dgWorld.obj
 0001:00008b30       ??_GdgParallelSolverInitFeedbackUpdate@@UAEPAXI@Z 10009b30 f i physics_2009:dgWorld.obj
 0001:00008b30       ??_GdgParallelSolverBodyInertia@@UAEPAXI@Z 10009b30 f i physics_2009:dgWorld.obj
 0001:00008b30       ??_EdgParallelSolverBodyInertia@@UAEPAXI@Z 10009b30 f i physics_2009:dgWorld.obj
 0001:00008b30       ??_EdgParallelSolverBuildJacobianMatrix@@UAEPAXI@Z 10009b30 f i physics_2009:dgWorld.obj
 0001:00008b30       ??_GdgParallelSolverUpdateForce@@UAEPAXI@Z 10009b30 f i physics_2009:dgWorld.obj
 0001:00008b30       ??_EdgParallelSolverUpdateForce@@UAEPAXI@Z 10009b30 f i physics_2009:dgWorld.obj
 0001:00008b30       ??_GdgSetTrreadRoundMode@dgWorld@@UAEPAXI@Z 10009b30 f i physics_2009:dgWorld.obj
 0001:00008b30       ??_GdgParallelSolverClear@@UAEPAXI@Z 10009b30 f i physics_2009:dgWorld.obj
 0001:00008b30       ??_EdgParallelSolverInitInternalForces@@UAEPAXI@Z 10009b30 f i physics_2009:dgWorld.obj
 0001:00008b30       ??_GdgParallelSolverInitInternalForces@@UAEPAXI@Z 10009b30 f i physics_2009:dgWorld.obj
 0001:00008b30       ??_GdgParallelSolverBuildJacobianMatrix@@UAEPAXI@Z 10009b30 f i physics_2009:dgWorld.obj
 0001:00008b30       ??_GdgSolverWorlkerThreads@@UAEPAXI@Z 10009b30 f i physics_2009:dgWorld.obj
 0001:00008b30       ??_GdgBroadPhaseMaterialCallbackWorkerThread@@UAEPAXI@Z 10009b30 f i physics_2009:dgBroadPhaseCollision.obj
 0001:00008b30       ??_EdgParallelSolverBuildJacobianRows@@UAEPAXI@Z 10009b30 f i physics_2009:dgWorld.obj
 0001:00008b30       ??_GdgParallelSolverJointAcceleration@@UAEPAXI@Z 10009b30 f i physics_2009:dgWorld.obj
 0001:00008b30       ??_EdgParallelSolverCalculateForces@@UAEPAXI@Z 10009b30 f i physics_2009:dgWorld.obj
 0001:00008b30       ??_EdgParallelSolverUpdateVeloc@@UAEPAXI@Z 10009b30 f i physics_2009:dgWorld.obj
 0001:00008b30       ??_GdgParallelSolverUpdateVeloc@@UAEPAXI@Z 10009b30 f i physics_2009:dgWorld.obj
 0001:00008b50       ?SetSolverMode@dgWorld@@QAEXH@Z 10009b50 f   physics_2009:dgWorld.obj
 0001:00008b70       ?RemoveAllGroupID@dgWorld@@QAEXXZ 10009b70 f   physics_2009:dgWorld.obj
 0001:00008bc0       ?DestroyBody@dgWorld@@QAEXPAVdgBody@@@Z 10009bc0 f   physics_2009:dgWorld.obj
 0001:00008c10       ?GetPerfomanceTicks@dgWorld@@QBEII@Z 10009c10 f   physics_2009:dgWorld.obj
 0001:00008c30       ?GetBodiesCount@dgWorld@@QBEHXZ 10009c30 f   physics_2009:dgWorld.obj
 0001:00008c40       ?AreBodyConnectedByJoints@dgWorld@@AAE_NPAVdgBody@@0@Z 10009c40 f   physics_2009:dgWorld.obj
 0001:00008d20       ?FlushCache@dgWorld@@QAEXXZ 10009d20 f   physics_2009:dgWorld.obj
 0001:00008d80       ??0dgWorldDynamicUpdate@@QAE@XZ 10009d80 f i physics_2009:dgWorld.obj
 0001:000091e0       ??1dgWorldDynamicUpdate@@QAE@XZ 1000a1e0 f i physics_2009:dgWorld.obj
 0001:00009340       ?DestroyAllBodies@dgWorld@@QAEXXZ 1000a340 f   physics_2009:dgWorld.obj
 0001:000093a0       ?CreateBody@dgWorld@@QAEPAVdgBody@@PAVdgCollision@@@Z 1000a3a0 f   physics_2009:dgWorld.obj
 0001:000094e0       ?BodySetMatrix@dgWorld@@QAEXPAVdgBody@@ABVdgMatrix@@@Z 1000a4e0 f   physics_2009:dgWorld.obj
 0001:00009790       ??1dgWorld@@QAE@XZ         1000a790 f   physics_2009:dgWorld.obj
 0001:000098f0       ??0dgWorld@@QAE@XZ         1000a8f0 f   physics_2009:dgWorld.obj
 0001:00009db0       ?GetIslandBody@dgWorld@@QBEPAVdgBody@@PBXH@Z 1000adb0 f   physics_2009:dgWorldDynamicUpdate.obj
 0001:00009de0       ?ReallocBodyMemory@dgWorldDynamicUpdate@@AAEXH@Z 1000ade0 f   physics_2009:dgWorldDynamicUpdate.obj
 0001:00009e90       ?ReallocIslandMemory@dgWorldDynamicUpdate@@AAEXH@Z 1000ae90 f   physics_2009:dgWorldDynamicUpdate.obj
 0001:00009f50       ?ReallocJointsMemory@dgWorldDynamicUpdate@@AAEXH@Z 1000af50 f   physics_2009:dgWorldDynamicUpdate.obj
 0001:0000a010       ?ReallocJacobiansMemory@dgWorldDynamicUpdate@@AAEXHH@Z 1000b010 f   physics_2009:dgWorldDynamicUpdate.obj
 0001:0000a270       ?ReallocIntenalForcesMemory@dgWorldDynamicUpdate@@AAEXHH@Z 1000b270 f   physics_2009:dgWorldDynamicUpdate.obj
 0001:0000a380       ?GetJacobialDerivativesParallel@dgWorldDynamicUpdate@@AAEHABVdgIsland@@_NHM@Z 1000b380 f   physics_2009:dgWorldDynamicUpdate.obj
 0001:0000a470       ?ThreadExecute@dgParallelSolverJointAcceleration@@UAEXXZ 1000b470 f   physics_2009:dgWorldDynamicUpdate.obj
 0001:0000a5f0       ?ThreadExecute@dgParallelSolverInitFeedbackUpdate@@UAEXXZ 1000b5f0 f   physics_2009:dgWorldDynamicUpdate.obj
 0001:0000a6f0       ??$dgSort@VdgIsland@@@@YAXQAVdgIsland@@HP6AHQBV0@1PAX@Z2@Z 1000b6f0 f i physics_2009:dgWorldDynamicUpdate.obj
 0001:0000a980       ?BuildIsland@dgWorldDynamicUpdate@@AAEXAAV?$dgQueue@PAVdgBody@@@@HHH@Z 1000b980 f   physics_2009:dgWorldDynamicUpdate.obj
 0001:0000abd0       ?SpanningTree@dgWorldDynamicUpdate@@AAEXPAVdgBody@@@Z 1000bbd0 f   physics_2009:dgWorldDynamicUpdate.obj
 0001:0000afb0       ?ApplyExternalForcesAndAccelerationSimD@dgJacobianMemory@@QBEXM@Z 1000bfb0 f   physics_2009:dgWorldDynamicUpdate.obj
 0001:0000b2f0       ?SwapRowsSimd@dgJacobianMemory@@QBEXHH@Z 1000c2f0 f   physics_2009:dgWorldDynamicUpdate.obj
 0001:0000b4b0       ?SwapRows@dgJacobianMemory@@QBEXHH@Z 1000c4b0 f   physics_2009:dgWorldDynamicUpdate.obj
 0001:0000b5f0       ?CalculateJointForcesSimD@dgJacobianMemory@@QBEMHPAMM@Z 1000c5f0 f   physics_2009:dgWorldDynamicUpdate.obj
 0001:0000c130       ?AddDamingAcceleration@dgBody@@AAEXXZ 1000d130 f i physics_2009:dgWorldDynamicUpdate.obj
 0001:0000c280       ?IntegrateArray@dgWorldDynamicUpdate@@ABEXPBVdgBodyInfo@@HMMH_N@Z 1000d280 f   physics_2009:dgWorldDynamicUpdate.obj
 0001:0000c890       ?ApplyExternalForcesAndAcceleration@dgJacobianMemory@@QBEXM@Z 1000d890 f   physics_2009:dgWorldDynamicUpdate.obj
 0001:0000d440       ?CalculateSimpleBodyReactionsForcesSimD@dgJacobianMemory@@QBEXM@Z 1000e440 f   physics_2009:dgWorldDynamicUpdate.obj
 0001:0000e110       ?CalculateSimpleBodyReactionsForces@dgJacobianMemory@@QBEXM@Z 1000f110 f   physics_2009:dgWorldDynamicUpdate.obj
 0001:0000fc90       ?CalculateForcesSimulationModeSimd@dgJacobianMemory@@QBEXM@Z 10010c90 f   physics_2009:dgWorldDynamicUpdate.obj
 0001:00011170       ?CalculateJointForces@dgJacobianMemory@@QBEMHPAMM@Z 10012170 f   physics_2009:dgWorldDynamicUpdate.obj
 0001:00012570       ?CalculateForcesGameModeSimD@dgJacobianMemory@@QBEXHM@Z 10013570 f   physics_2009:dgWorldDynamicUpdate.obj
 0001:00013060       ?CalculateForcesGameMode@dgJacobianMemory@@QBEXHM@Z 10014060 f   physics_2009:dgWorldDynamicUpdate.obj
 0001:00014870       ?ThreadExecute@dgParallelSolverBodyInertia@@UAEXXZ 10015870 f   physics_2009:dgWorldDynamicUpdate.obj
 0001:000148d0       ?ThreadExecute@dgParallelSolverBuildJacobianRows@@UAEXXZ 100158d0 f   physics_2009:dgWorldDynamicUpdate.obj
 0001:00015110       ?BuildJacobianMatrixParallel@dgWorldDynamicUpdate@@AAEXABVdgIsland@@MH@Z 10016110 f   physics_2009:dgWorldDynamicUpdate.obj
 0001:00015420       ?ThreadExecute@dgParallelSolverClear@@UAEXXZ 10016420 f   physics_2009:dgWorldDynamicUpdate.obj
 0001:000155c0       ?ThreadExecute@dgParallelSolverInitInternalForces@@UAEXXZ 100165c0 f   physics_2009:dgWorldDynamicUpdate.obj
 0001:00015f60       ?ThreadExecute@dgParallelSolverUpdateVeloc@@UAEXXZ 10016f60 f   physics_2009:dgWorldDynamicUpdate.obj
 0001:000161f0       ?ThreadExecute@dgParallelSolverUpdateForce@@UAEXXZ 100171f0 f   physics_2009:dgWorldDynamicUpdate.obj
 0001:00016790       ?ThreadExecute@dgParallelSolverCalculateForces@@UAEXXZ 10017790 f   physics_2009:dgWorldDynamicUpdate.obj
 0001:00016fe0       ?CalculateForcesGameModeParallel@dgJacobianMemory@@QBEXHMH@Z 10017fe0 f   physics_2009:dgWorldDynamicUpdate.obj
 0001:000177b0       ?CalculateForcesSimulationMode@dgJacobianMemory@@QBEXM@Z 100187b0 f   physics_2009:dgWorldDynamicUpdate.obj
 0001:0001b770       ?UpdateDynamics@dgWorldDynamicUpdate@@AAEXPAVdgWorld@@HM@Z 1001c770 f   physics_2009:dgWorldDynamicUpdate.obj
 0001:0001bbe0       ?ThreadExecute@dgParallelSolverBuildJacobianMatrix@@UAEXXZ 1001cbe0 f   physics_2009:dgWorldDynamicUpdate.obj
 0001:0001c1c0       ?GetJacobialDerivatives@dgWorldDynamicUpdate@@AAEHABVdgIsland@@H_NHM@Z 1001d1c0 f   physics_2009:dgWorldDynamicUpdate.obj
 0001:0001c740       ?BuildJacobianMatrixSimD@dgWorldDynamicUpdate@@AAEXABVdgIsland@@HM@Z 1001d740 f   physics_2009:dgWorldDynamicUpdate.obj
 0001:0001cc50       ?BuildJacobianMatrix@dgWorldDynamicUpdate@@AAEXABVdgIsland@@HM@Z 1001dc50 f   physics_2009:dgWorldDynamicUpdate.obj
 0001:0001d370       ?ThreadExecute@dgSolverWorlkerThreads@@UAEXXZ 1001e370 f   physics_2009:dgWorldDynamicUpdate.obj
 0001:0001dcb0       ?CreateConvexModifier@dgWorld@@QAEPAVdgCollision@@PAV2@@Z 1001ecb0 f   physics_2009:dgNarrowPhaseCollision.obj
 0001:0001dcf0       ?CreateCompoundCollision@dgWorld@@QAEPAVdgCollision@@HQBQAV2@@Z 1001ecf0 f   physics_2009:dgNarrowPhaseCollision.obj
 0001:0001dd20       ?CreateBVH@dgWorld@@QAEPAVdgCollision@@XZ 1001ed20 f   physics_2009:dgNarrowPhaseCollision.obj
 0001:0001dd40       ?CreateStaticUserMesh@dgWorld@@QAEPAVdgCollision@@ABVdgVector@@0ABVdgUserMeshCreation@@@Z 1001ed40 f   physics_2009:dgNarrowPhaseCollision.obj
 0001:0001dd60       ?CreateBVHFieldCollision@dgWorld@@QAEPAVdgCollision@@HHHPAGPADMM@Z 1001ed60 f   physics_2009:dgNarrowPhaseCollision.obj
 0001:0001ddc0       ?CreateScene@dgWorld@@QAEPAVdgCollision@@XZ 1001edc0 f   physics_2009:dgNarrowPhaseCollision.obj
 0001:0001ddf0       ?Serialize@dgWorld@@QBEXPAVdgCollision@@P6AXPAXPBXI@Z1@Z 1001edf0 f   physics_2009:dgNarrowPhaseCollision.obj
 0001:0001de50       ?GetDefualtBodyGroupID@dgWorld@@QBEIXZ 1001ee50 f   physics_2009:dgNarrowPhaseCollision.obj
 0001:0001de60       ??$dgSort@VdgContactPoint@@@@YAXQAVdgContactPoint@@HP6AHQBV0@1PAX@Z2@Z 1001ee60 f i physics_2009:dgNarrowPhaseCollision.obj
 0001:0001e070       ?GetFirstMaterial@dgWorld@@QBEPAVdgContactMaterial@@XZ 1001f070 f   physics_2009:dgNarrowPhaseCollision.obj
 0001:0001e0c0       ?ReduceContacts@dgWorld@@ABEHHQAVdgContactPoint@@HMH@Z 1001f0c0 f   physics_2009:dgNarrowPhaseCollision.obj
 0001:0001e250       ?PruneContacts@dgWorld@@ABEHHQAVdgContactPoint@@H@Z 1001f250 f   physics_2009:dgNarrowPhaseCollision.obj
 0001:0001e3c0       ?ProcessCachedContacts@dgWorld@@ABEXPAVdgContact@@PBVdgContactMaterial@@MH@Z 1001f3c0 f   physics_2009:dgNarrowPhaseCollision.obj
 0001:0001e480       ?ProcessTriggers@dgWorld@@AAEXAAUdgPair@dgCollidingPairCollector@@MH@Z 1001f480 f   physics_2009:dgNarrowPhaseCollision.obj
 0001:0001e560       ?SceneContactsSimd@dgWorld@@ABEXABUdgProxy@dgCollisionScene@@QAUdgPair@dgCollidingPairCollector@@AAVdgCollisionParamProxi@@@Z 1001f560 f   physics_2009:dgNarrowPhaseCollision.obj
 0001:0001e620       ?SceneContacts@dgWorld@@ABEXABUdgProxy@dgCollisionScene@@QAUdgPair@dgCollidingPairCollector@@AAVdgCollisionParamProxi@@@Z 1001f620 f   physics_2009:dgNarrowPhaseCollision.obj
 0001:0001e6e0       ?Append@?$dgList@VdgContactMaterial@@@@QAEPAVdgListNode@1@XZ 1001f6e0 f i physics_2009:dgNarrowPhaseCollision.obj
 0001:0001e790       ?Find@?$dgTree@VdgContactMaterial@@I@@QBEPAVdgTreeNode@1@I@Z 1001f790 f i physics_2009:dgNarrowPhaseCollision.obj
 0001:0001e7c0       ?GetMaterial@dgWorld@@QBEPAVdgContactMaterial@@II@Z 1001f7c0 f   physics_2009:dgNarrowPhaseCollision.obj
 0001:0001e810       ?GetNextMaterial@dgWorld@@QBEPAVdgContactMaterial@@PAV2@@Z 1001f810 f   physics_2009:dgNarrowPhaseCollision.obj
 0001:0001e840       ?RemoveFromCache@dgWorld@@QAEXPAVdgCollision@@@Z 1001f840 f   physics_2009:dgNarrowPhaseCollision.obj
 0001:0001e8a0       ?ReleaseCollision@dgWorld@@QAEXPAVdgCollision@@@Z 1001f8a0 f   physics_2009:dgNarrowPhaseCollision.obj
 0001:0001e940       ?ClosestCompoundPoint@dgWorld@@ABEHPAVdgBody@@0AAVdgTriplex@@11H@Z 1001f940 f   physics_2009:dgNarrowPhaseCollision.obj
 0001:0001eda0       ?ValidateContactCache@dgWorld@@ABEHPAVdgBody@@0PAVdgContact@@@Z 1001fda0 f   physics_2009:dgNarrowPhaseCollision.obj
 0001:0001f2d0       ?CompoundContactsSimd@dgWorld@@ABEXQAUdgPair@dgCollidingPairCollector@@AAVdgCollisionParamProxi@@@Z 100202d0 f   physics_2009:dgNarrowPhaseCollision.obj
 0001:00020120       ?CompoundContacts@dgWorld@@ABEXQAUdgPair@dgCollidingPairCollector@@AAVdgCollisionParamProxi@@@Z 10021120 f   physics_2009:dgNarrowPhaseCollision.obj
 0001:00020fe0       ?ConvexContactsSimd@dgWorld@@ABEXQAUdgPair@dgCollidingPairCollector@@AAVdgCollisionParamProxi@@@Z 10021fe0 f   physics_2009:dgNarrowPhaseCollision.obj
 0001:000210f0       ?ConvexContacts@dgWorld@@ABEXQAUdgPair@dgCollidingPairCollector@@AAVdgCollisionParamProxi@@@Z 100220f0 f   physics_2009:dgNarrowPhaseCollision.obj
 0001:00021200       ?SceneContacts@dgWorld@@ABEXQAUdgPair@dgCollidingPairCollector@@AAVdgCollisionParamProxi@@@Z 10022200 f   physics_2009:dgNarrowPhaseCollision.obj
 0001:000212a0       ?SceneContactsSimd@dgWorld@@ABEXQAUdgPair@dgCollidingPairCollector@@AAVdgCollisionParamProxi@@@Z 100222a0 f   physics_2009:dgNarrowPhaseCollision.obj
 0001:00021340       ?CalculateContactsSimd@dgWorld@@AAEXQAUdgPair@dgCollidingPairCollector@@MH@Z 10022340 f   physics_2009:dgNarrowPhaseCollision.obj
 0001:000214e0       ?CalculateContacts@dgWorld@@AAEXQAUdgPair@dgCollidingPairCollector@@MH@Z 100224e0 f   physics_2009:dgNarrowPhaseCollision.obj
 0001:000216a0       ?CollideContinueSimd@dgWorld@@QAEHPAVdgCollision@@ABVdgMatrix@@ABVdgVector@@20122AAMPAVdgTriplex@@4PAMHH@Z 100226a0 f   physics_2009:dgNarrowPhaseCollision.obj
 0001:00021dc0       ?CollideContinue@dgWorld@@QAEHPAVdgCollision@@ABVdgMatrix@@ABVdgVector@@20122AAMPAVdgTriplex@@4PAMHH@Z 10022dc0 f   physics_2009:dgNarrowPhaseCollision.obj
 0001:000224e0       ?Collide@dgWorld@@QAEHPAVdgCollision@@ABVdgMatrix@@01PAVdgTriplex@@2PAMHH@Z 100234e0 f   physics_2009:dgNarrowPhaseCollision.obj
 0001:00022940       ?ClosestPoint@dgWorld@@QBEHPAVdgCollision@@ABVdgMatrix@@01AAVdgTriplex@@22H@Z 10023940 f   physics_2009:dgNarrowPhaseCollision.obj
 0001:00022c10       ?ProcessContacts@dgWorld@@AAEXAAUdgPair@dgCollidingPairCollector@@MH@Z 10023c10 f   physics_2009:dgNarrowPhaseCollision.obj
 0001:00023a70       ?ClosestPoint@dgWorld@@QBEHAAVdgTriplex@@PAVdgCollision@@ABVdgMatrix@@00H@Z 10024a70 f   physics_2009:dgNarrowPhaseCollision.obj
 0001:00023ae0       ?Insert@?$dgTree@VdgContactMaterial@@I@@QAEPAVdgTreeNode@1@ABVdgContactMaterial@@IAA_N@Z 10024ae0 f i physics_2009:dgNarrowPhaseCollision.obj
 0001:00023bc0       ?Insert@?$dgTree@PAVdgCollision@@I@@QAEPAVdgTreeNode@1@ABQAVdgCollision@@I@Z 10024bc0 f i physics_2009:dgNarrowPhaseCollision.obj
 0001:00023be0       ?CreateNull@dgWorld@@QAEPAVdgCollision@@XZ 10024be0 f   physics_2009:dgNarrowPhaseCollision.obj
 0001:00023c60       ?CreateBox@dgWorld@@QAEPAVdgCollision@@MMMHABVdgMatrix@@@Z 10024c60 f   physics_2009:dgNarrowPhaseCollision.obj
 0001:00023df0       ?CreateSphere@dgWorld@@QAEPAVdgCollision@@MHABVdgMatrix@@@Z 10024df0 f   physics_2009:dgNarrowPhaseCollision.obj
 0001:00023f10       ?CreateEllipse@dgWorld@@QAEPAVdgCollision@@MMMHABVdgMatrix@@@Z 10024f10 f   physics_2009:dgNarrowPhaseCollision.obj
 0001:00024090       ?CreateCapsule@dgWorld@@QAEPAVdgCollision@@MMHABVdgMatrix@@@Z 10025090 f   physics_2009:dgNarrowPhaseCollision.obj
 0001:000241e0       ?CreateCone@dgWorld@@QAEPAVdgCollision@@MMHABVdgMatrix@@@Z 100251e0 f   physics_2009:dgNarrowPhaseCollision.obj
 0001:00024330       ?CreateCylinder@dgWorld@@QAEPAVdgCollision@@MMHABVdgMatrix@@@Z 10025330 f   physics_2009:dgNarrowPhaseCollision.obj
 0001:00024480       ?CreateChamferCylinder@dgWorld@@QAEPAVdgCollision@@MMHABVdgMatrix@@@Z 10025480 f   physics_2009:dgNarrowPhaseCollision.obj
 0001:000245d0       ?CreateConvexHull@dgWorld@@QAEPAVdgCollision@@HPBMHMHABVdgMatrix@@@Z 100255d0 f   physics_2009:dgNarrowPhaseCollision.obj
 0001:00024790       ?CreateFromSerialization@dgWorld@@QAEPAVdgCollision@@P6AXPAX0I@Z0@Z 10025790 f   physics_2009:dgNarrowPhaseCollision.obj
 0001:00024ac0       ?CreateBodyGroupID@dgWorld@@QAEIXZ 10025ac0 f   physics_2009:dgNarrowPhaseCollision.obj
 0001:00024b40       ?CalculateSignature@dgCollisionConvexPolygon@dgCollisionMesh@@UBEHXZ 10025b40 f   physics_2009:dgCollisionMesh.obj
 0001:00024b50       ?RayCastSimd@dgCollision@@UBEMABVdgVector@@0AAVdgContactPoint@@P6AIPBVdgBody@@PBV1@PAX@Z24@Z 10025b50 f   physics_2009:dgCollision.obj
 0001:00024b50       ?RayCast@dgCollisionConvexPolygon@dgCollisionMesh@@UBEMABVdgVector@@0AAVdgContactPoint@@P6AIPBVdgBody@@PBVdgCollision@@PAX@Z24@Z 10025b50 f   physics_2009:dgCollisionMesh.obj
 0001:00024b60       ?SupportVertexSimd@dgCollisionConvexPolygon@dgCollisionMesh@@UBE?AVdgVector@@ABV3@@Z 10025b60 f   physics_2009:dgCollisionMesh.obj
 0001:00024cb0       ??1dgCollisionMesh@@UAE@XZ 10025cb0 f   physics_2009:dgCollisionMesh.obj
 0001:00024cf0       ?SetCollisionCallback@dgCollisionMesh@@QAEXP6AXPBVdgBody@@0HHPBMH@Z@Z 10025cf0 f   physics_2009:dgCollisionMesh.obj
 0001:00024d00       ?SetCollisionRayCastCallback@dgCollisionMesh@@QAEXP6AMMPAMHPAX@Z@Z 10025d00 f   physics_2009:dgCollisionMesh.obj
 0001:00024d10       ?SupportVertex@dgCollisionConvexPolygon@dgCollisionMesh@@UBE?AVdgVector@@ABV3@@Z 10025d10 f   physics_2009:dgCollisionMesh.obj
 0001:00024e70       ??_GdgCollisionMesh@@UAEPAXI@Z 10025e70 f i physics_2009:dgCollisionMesh.obj
 0001:00024e70       ??_EdgCollisionMesh@@UAEPAXI@Z 10025e70 f i physics_2009:dgCollisionMesh.obj
 0001:00024e90       ??0dgCollisionConvexPolygon@dgCollisionMesh@@QAE@XZ 10025e90 f   physics_2009:dgCollisionMesh.obj
 0001:00024f40       ??_GdgCollisionConvexPolygon@dgCollisionMesh@@UAEPAXI@Z 10025f40 f i physics_2009:dgCollisionMesh.obj
 0001:00024f40       ??_EdgCollisionConvexPolygon@dgCollisionMesh@@UAEPAXI@Z 10025f40 f i physics_2009:dgCollisionMesh.obj
 0001:00024f60       ?CalculateNormalSimd@dgCollisionConvexPolygon@dgCollisionMesh@@QAEXXZ 10025f60 f   physics_2009:dgCollisionMesh.obj
 0001:00025070       ?CalculateNormal@dgCollisionConvexPolygon@dgCollisionMesh@@QAEXXZ 10026070 f   physics_2009:dgCollisionMesh.obj
 0001:000251e0       ?ClipContacts@dgCollisionConvexPolygon@dgCollisionMesh@@QBEHHQAVdgContactPoint@@ABVdgMatrix@@@Z 100261e0 f   physics_2009:dgCollisionMesh.obj
 0001:00025930       ?ClosestDistanceToTriangle@dgCollisionConvexPolygon@dgCollisionMesh@@QBE?AVdgVector@@ABV3@000@Z 10026930 f   physics_2009:dgCollisionMesh.obj
 0001:00025d60       ?PointToPolygonDistance@dgCollisionConvexPolygon@dgCollisionMesh@@QAE_NABVdgVector@@MAAV3@@Z 10026d60 f   physics_2009:dgCollisionMesh.obj
 0001:00025f80       ?DistanceToOrigen@dgCollisionConvexPolygon@dgCollisionMesh@@QAE_NABVdgMatrix@@ABVdgVector@@MAAV4@@Z 10026f80 f   physics_2009:dgCollisionMesh.obj
 0001:00026480       ?MovingPointToPolygonContact@dgCollisionConvexPolygon@dgCollisionMesh@@QAEMABVdgVector@@0MAAVdgContactPoint@@@Z 10027480 f   physics_2009:dgCollisionMesh.obj
 0001:00026c70       ?CalculatePlaneIntersection@dgCollisionConvexPolygon@dgCollisionMesh@@UBEHABVdgVector@@0QAV3@@Z 10027c70 f   physics_2009:dgCollisionMesh.obj
 0001:00027690       ?CalculatePlaneIntersectionSimd@dgCollisionConvexPolygon@dgCollisionMesh@@UBEHABVdgVector@@0QAV3@@Z 10028690 f   physics_2009:dgCollisionMesh.obj
 0001:00027bf0       ?CalcAABB@dgCollisionScene@@EBEXABVdgMatrix@@AAVdgVector@@1@Z 10028bf0 f   physics_2009:dgCollisionScene.obj
 0001:00027bf0       ?CalcAABB@dgCollisionMesh@@EBEXABVdgMatrix@@AAVdgVector@@1@Z 10028bf0 f   physics_2009:dgCollisionMesh.obj
 0001:00027de0       ?QuickTestContinueSimd@dgCollisionConvexPolygon@dgCollisionMesh@@QAEHPBVdgConvexCollision@@ABVdgMatrix@@@Z 10028de0 f   physics_2009:dgCollisionMesh.obj
 0001:00028190       ?QuickTestContinue@dgCollisionConvexPolygon@dgCollisionMesh@@QAEHPBVdgConvexCollision@@ABVdgMatrix@@@Z 10029190 f   physics_2009:dgCollisionMesh.obj
 0001:00028450       ?QuickTest@dgCollisionConvexPolygon@dgCollisionMesh@@QAEHPBVdgConvexCollision@@ABVdgMatrix@@@Z 10029450 f   physics_2009:dgCollisionMesh.obj
 0001:00028820       ?QuickTestSimd@dgCollisionConvexPolygon@dgCollisionMesh@@QAEHPBVdgConvexCollision@@ABVdgMatrix@@@Z 10029820 f   physics_2009:dgCollisionMesh.obj
 0001:00028cb0       ??0dgCollisionMesh@@QAE@W4dgCollisionID@@@Z 10029cb0 f   physics_2009:dgCollisionMesh.obj
 0001:00028d70       ??0dgCollisionMesh@@QAE@PAVdgWorld@@P6AXPAX1I@Z1@Z 10029d70 f   physics_2009:dgCollisionMesh.obj
 0001:00028e30       ??0dgCollisionBVH@@QAE@XZ  10029e30 f   physics_2009:dgCollisionBVH.obj
 0001:00028e70       ?Serialize@dgCollisionBVH@@EBEXP6AXPAXPBXI@Z0@Z 10029e70 f   physics_2009:dgCollisionBVH.obj
 0001:00028ea0       ?AddFace@dgCollisionBVH@@QAEXHQBMHH@Z 10029ea0 f   physics_2009:dgCollisionBVH.obj
 0001:00028f10       ?CollectVertexListIndexList@dgCollisionBVH@@CA?AW4dgIntersectStatus@@PAXQBMHQBHH@Z 10029f10 f   physics_2009:dgCollisionBVH.obj
 0001:00028fb0       ?GetTriangleCount@dgCollisionBVH@@CA?AW4dgIntersectStatus@@PAXQBMHQBHH@Z 10029fb0 f   physics_2009:dgCollisionBVH.obj
 0001:00028fe0       ?SupportVertex@dgCollisionBVH@@EBE?AVdgVector@@ABV2@@Z 10029fe0 f   physics_2009:dgCollisionBVH.obj
 0001:00029010       ??_EdgCollisionBVH@@WMA@AEPAXI@Z 1002a010 f i physics_2009:dgCollisionBVH.obj
 0001:00029020       ?Serialize@dgCollisionBVH@@GMA@BEXP6AXPAXPBXI@Z0@Z 1002a020 f i physics_2009:dgCollisionBVH.obj
 0001:00029030       ??_GdgCollisionBVH@@UAEPAXI@Z 1002a030 f i physics_2009:dgCollisionBVH.obj
 0001:00029030       ??_EdgCollisionBVH@@UAEPAXI@Z 1002a030 f i physics_2009:dgCollisionBVH.obj
 0001:00029070       ?BeginBuild@dgCollisionBVH@@QAEXXZ 1002a070 f   physics_2009:dgCollisionBVH.obj
 0001:000290b0       ?GetVertexListIndexList@dgCollisionBVH@@UBEXABVdgVector@@0AAVdgGetVertexListIndexList@dgCollisionMesh@@@Z 1002a0b0 f   physics_2009:dgCollisionBVH.obj
 0001:00029100       ??0dgCollisionBVH@@QAE@PAVdgWorld@@P6AXPAX1I@Z1@Z 1002a100 f   physics_2009:dgCollisionBVH.obj
 0001:00029190       ?EndBuild@dgCollisionBVH@@QAEXH@Z 1002a190 f   physics_2009:dgCollisionBVH.obj
 0001:00029220       ?GetCollisionInfo@dgCollisionBVH@@EBEXPAVdgCollisionInfo@@@Z 1002a220 f   physics_2009:dgCollisionBVH.obj
 0001:000292d0       ?RayHitSimd@dgCollisionBVH@@CAMPAXQBMHQBHH@Z 1002a2d0 f   physics_2009:dgCollisionBVH.obj
 0001:00029440       ?RayHit@dgCollisionBVH@@CAMPAXQBMHQBHH@Z 1002a440 f   physics_2009:dgCollisionBVH.obj
 0001:000295b0       ?RayHitUserSimd@dgCollisionBVH@@CAMPAXQBMHQBHH@Z 1002a5b0 f   physics_2009:dgCollisionBVH.obj
 0001:000296d0       ?RayHitUser@dgCollisionBVH@@CAMPAXQBMHQBHH@Z 1002a6d0 f   physics_2009:dgCollisionBVH.obj
 0001:00029840       ?RayCastSimd@dgCollisionBVH@@EBEMABVdgVector@@0AAVdgContactPoint@@P6AIPBVdgBody@@PBVdgCollision@@PAX@Z24@Z 1002a840 f   physics_2009:dgCollisionBVH.obj
 0001:00029aa0       ?RayCast@dgCollisionBVH@@EBEMABVdgVector@@0AAVdgContactPoint@@P6AIPBVdgBody@@PBVdgCollision@@PAX@Z24@Z 1002aaa0 f   physics_2009:dgCollisionBVH.obj
 0001:00029d00       ?GetPolygon@dgCollisionBVH@@CA?AW4dgIntersectStatus@@PAXQBMHQBHH@Z 1002ad00 f   physics_2009:dgCollisionBVH.obj
 0001:0002a060       ?GetCollidingFacesSimd@dgCollisionBVH@@EBEXQAVdgPolygonMeshDesc@@@Z 1002b060 f   physics_2009:dgCollisionBVH.obj
 0001:0002a0d0       ?GetCollidingFaces@dgCollisionBVH@@EBEXQAVdgPolygonMeshDesc@@@Z 1002b0d0 f   physics_2009:dgCollisionBVH.obj
 0001:0002a140       ?ShowDebugPolygon@dgCollisionBVH@@CA?AW4dgIntersectStatus@@PAXQBMHQBHH@Z 1002b140 f   physics_2009:dgCollisionBVH.obj
 0001:0002a3e0       ?DebugCollision@dgCollisionBVH@@EBEXABVdgMatrix@@P6AXPAXHPBMH@Z1@Z 1002b3e0 f   physics_2009:dgCollisionBVH.obj
 0001:0002a460       ??_GdgSceneNode@dgCollisionScene@@QAEPAXI@Z 1002b460 f i physics_2009:dgCollisionScene.obj
 0001:0002a4b0       ?CalcAABBSimD@dgCollisionMesh@@EBEXABVdgMatrix@@AAVdgVector@@1@Z 1002b4b0 f   physics_2009:dgCollisionMesh.obj
 0001:0002a4b0       ?CalcAABBSimD@dgCollisionScene@@EBEXABVdgMatrix@@AAVdgVector@@1@Z 1002b4b0 f   physics_2009:dgCollisionScene.obj
 0001:0002a4b0       ?CalcAABBSimD@dgCollisionNull@@MBEXABVdgMatrix@@AAVdgVector@@1@Z 1002b4b0 f   physics_2009:dgCollisionNull.obj
 0001:0002a4c0       ?UpdateAABB@dgSceneNode@dgCollisionScene@@QAEXABVdgVector@@0@Z 1002b4c0 f i physics_2009:dgCollisionScene.obj
 0001:0002a560       ?Serialize@dgCollisionScene@@EBEXP6AXPAXPBXI@Z0@Z 1002b560 f   physics_2009:dgCollisionScene.obj
 0001:0002a6e0       ?SetProxyMatrix@dgCollisionScene@@QAEXPAXABVdgMatrix@@@Z 1002b6e0 f   physics_2009:dgCollisionScene.obj
 0001:0002a730       ?SetCollisionCallback@dgCollisionScene@@QAEXP6AXPBVdgBody@@0HHPBMH@Z@Z 1002b730 f   physics_2009:dgCollisionScene.obj
 0001:0002a760       ?DebugCollision@dgCollisionScene@@EBEXABVdgMatrix@@P6AXPAXHPBMH@Z1@Z 1002b760 f   physics_2009:dgCollisionScene.obj
 0001:0002a7d0       ?GetCollisionInfo@dgCollisionScene@@EBEXPAVdgCollisionInfo@@@Z 1002b7d0 f   physics_2009:dgCollisionScene.obj
 0001:0002a800       ?RemoveAll@?$dgList@UdgProxy@dgCollisionScene@@@@QAEXXZ 1002b800 f i physics_2009:dgCollisionScene.obj
 0001:0002a860       ?Reset@FastRayTest@@QAEXM@Z 1002b860 f i physics_2009:dgCollisionScene.obj
 0001:0002a8b0       ?GetProxyMatrix@dgCollisionScene@@QAE?AVdgMatrix@@PAX@Z 1002b8b0 f   physics_2009:dgCollisionScene.obj
 0001:0002aa10       ?SetCollisionBBox@dgCollisionMesh@@MAEXABVdgVector@@0@Z 1002ba10 f   physics_2009:dgCollisionMesh.obj
 0001:0002aa10       ?SetCollisionBBox@dgCollisionScene@@EAEXABVdgVector@@0@Z 1002ba10 f   physics_2009:dgCollisionScene.obj
 0001:0002aad0       ?GetAxis@dgCollisionScene@@ABEHQAPAVdgListNode@?$dgList@UdgProxy@dgCollisionScene@@@@H@Z 1002bad0 f   physics_2009:dgCollisionScene.obj
 0001:0002ad70       ?RayCast@dgCollisionScene@@EBEMABVdgVector@@0AAVdgContactPoint@@P6AIPBVdgBody@@PBVdgCollision@@PAX@Z24@Z 1002bd70 f   physics_2009:dgCollisionScene.obj
 0001:0002b1c0       ?CollidePairSimd@dgCollisionScene@@QBEXQAUdgPair@dgCollidingPairCollector@@AAVdgCollisionParamProxi@@@Z 1002c1c0 f   physics_2009:dgCollisionScene.obj
 0001:0002b560       ?CollidePair@dgCollisionScene@@QBEXQAUdgPair@dgCollidingPairCollector@@AAVdgCollisionParamProxi@@@Z 1002c560 f   physics_2009:dgCollisionScene.obj
 0001:0002b9b0       ?SortAABBBoxes@dgCollisionScene@@ABEHQAPAVdgListNode@?$dgList@UdgProxy@dgCollisionScene@@@@H@Z 1002c9b0 f   physics_2009:dgCollisionScene.obj
 0001:0002bb00       ?SortAndSpliteSplite@dgCollisionScene@@ABEHQAPAVdgListNode@?$dgList@UdgProxy@dgCollisionScene@@@@H@Z 1002cb00 f   physics_2009:dgCollisionScene.obj
 0001:0002bcf0       ?BuildTree@dgCollisionScene@@AAEPAUdgSceneNode@1@PAU21@QAPAVdgListNode@?$dgList@UdgProxy@dgCollisionScene@@@@HH@Z 1002ccf0 f   physics_2009:dgCollisionScene.obj
 0001:0002be20       ?Remove@?$dgList@UdgProxy@dgCollisionScene@@@@QAEXPAVdgListNode@1@@Z 1002ce20 f i physics_2009:dgCollisionScene.obj
 0001:0002be70       ??0dgCollisionScene@@QAE@PAVdgWorld@@@Z 1002ce70 f   physics_2009:dgCollisionScene.obj
 0001:0002bf00       ??1dgCollisionScene@@UAE@XZ 1002cf00 f   physics_2009:dgCollisionScene.obj
 0001:0002bf80       ?RemoveProxy@dgCollisionScene@@QAEXPAX@Z 1002cf80 f   physics_2009:dgCollisionScene.obj
 0001:0002bfb0       ?RayCastSimd@dgCollisionScene@@EBEMABVdgVector@@0AAVdgContactPoint@@P6AIPBVdgBody@@PBVdgCollision@@PAX@Z24@Z 1002cfb0 f   physics_2009:dgCollisionScene.obj
 0001:0002c400       ??_GdgCollisionScene@@UAEPAXI@Z 1002d400 f i physics_2009:dgCollisionScene.obj
 0001:0002c400       ??_EdgCollisionScene@@UAEPAXI@Z 1002d400 f i physics_2009:dgCollisionScene.obj
 0001:0002c420       ?Append@?$dgList@UdgProxy@dgCollisionScene@@@@QAEPAVdgListNode@1@XZ 1002d420 f i physics_2009:dgCollisionScene.obj
 0001:0002c4c0       ?AddProxy@dgCollisionScene@@QAEPAXPAVdgCollision@@@Z 1002d4c0 f   physics_2009:dgCollisionScene.obj
 0001:0002c510       ?BuildTree@dgCollisionScene@@QAEXXZ 1002d510 f   physics_2009:dgCollisionScene.obj
 0001:0002c660       ??0dgCollisionScene@@QAE@PAVdgWorld@@P6AXPAX1I@Z1@Z 1002d660 f   physics_2009:dgCollisionScene.obj
 0001:0002c910       ?SetAparentMassMatrix@dgBody@@QAEXABVdgVector@@@Z 1002d910 f   physics_2009:dgBody.obj
 0001:0002c990       ??DdgQuaternion@@QBE?AV0@ABV0@@Z 1002d990 f i physics_2009:dgBody.obj
 0001:0002ca20       ?AddBuoyancyForce@dgBody@@QAEXMMMABVdgVector@@P6AIPAX1ABVdgMatrix@@AAVdgPlane@@@Z1@Z 1002da20 f   physics_2009:dgBody.obj
 0001:0002cd00       ?CalcInvInertiaMatrix@dgBody@@QAEXXZ 1002dd00 f   physics_2009:dgBody.obj
 0001:0002cdd0       ?CalcInvInertiaMatrixSimD@dgBody@@QAEXXZ 1002ddd0 f   physics_2009:dgBody.obj
 0001:0002cec0       ?CalculateInverseDynamicForce@dgBody@@QBE?AVdgVector@@ABV2@M@Z 1002dec0 f   physics_2009:dgBody.obj
 0001:0002cf50       ?GetFirstJoint@dgBody@@QBEPAVdgConstraint@@XZ 1002df50 f   physics_2009:dgBody.obj
 0001:0002cf80       ?GetNextJoint@dgBody@@QBEPAVdgConstraint@@PAV2@@Z 1002df80 f   physics_2009:dgBody.obj
 0001:0002cfc0       ?GetFirstContact@dgBody@@QBEPAVdgConstraint@@XZ 1002dfc0 f   physics_2009:dgBody.obj
 0001:0002cff0       ?GetNextContact@dgBody@@QBEPAVdgConstraint@@PAV2@@Z 1002dff0 f   physics_2009:dgBody.obj
 0001:0002d030       ?Freeze@dgBody@@QAEXXZ     1002e030 f   physics_2009:dgBody.obj
 0001:0002d080       ?Unfreeze@dgBody@@QAEXXZ   1002e080 f   physics_2009:dgBody.obj
 0001:0002d0d0       ?RotateToEnd@?$dgList@VdgBodyMasterListRow@@@@QAEXPAVdgListNode@1@@Z 1002e0d0 f i physics_2009:dgBody.obj
 0001:0002d130       ?InsertAfter@?$dgList@VdgBodyMasterListRow@@@@QAEXPAVdgListNode@1@0@Z 1002e130 f i physics_2009:dgBody.obj
 0001:0002d1a0       ??0dgBody@@QAE@XZ          1002e1a0 f   physics_2009:dgBody.obj
 0001:0002d1c0       ?SetMassMatrix@dgBody@@QAEXMMMM@Z 1002e1c0 f   physics_2009:dgBody.obj
 0001:0002d2c0       ?UpdateCollisionMatrixSimD@dgBody@@AAEXMH@Z 1002e2c0 f   physics_2009:dgBody.obj
 0001:0002d960       ?UpdateCollisionMatrix@dgBody@@AAEXMH@Z 1002e960 f   physics_2009:dgBody.obj
 0001:0002de50       ?UpdateMatrix@dgBody@@AAEXMH@Z 1002ee50 f   physics_2009:dgBody.obj
 0001:0002de80       ?IntegrateVelocity@dgBody@@AAEXM@Z 1002ee80 f   physics_2009:dgBody.obj
 0001:0002e1b0       ?CalculateContinueVelocity@dgBody@@ABEXMAAVdgVector@@0@Z 1002f1b0 f   physics_2009:dgBody.obj
 0001:0002e340       ?CalculateContinueVelocitySimD@dgBody@@ABEXMAAVdgVector@@0@Z 1002f340 f   physics_2009:dgBody.obj
 0001:0002e4c0       ?SetFreeze@dgBody@@QAEX_N@Z 1002f4c0 f   physics_2009:dgBody.obj
 0001:0002e4e0       ?AddImpulse@dgBody@@AAEXABVdgVector@@0@Z 1002f4e0 f   physics_2009:dgBody.obj
 0001:0002e8b0       ?SetMatrix@dgBody@@QAEXABVdgMatrix@@@Z 1002f8b0 f   physics_2009:dgBody.obj
 0001:0002e9e0       ?SetMatrixIgnoreSleep@dgBody@@QAEXABVdgMatrix@@@Z 1002f9e0 f   physics_2009:dgBody.obj
 0001:0002ea80       ?RayCast@dgBody@@QBEMABUdgLineBox@@P6AMPBV1@ABVdgVector@@HPAXM@ZP6AI1PBVdgCollision@@3@Z3M@Z 1002fa80 f   physics_2009:dgBody.obj
 0001:0002ee50       ?AttachCollision@dgBody@@QAEXPAVdgCollision@@@Z 1002fe50 f   physics_2009:dgBody.obj
 0001:0002ef60       ?SetJointParameterCallBack@dgBallConstraint@@QAEXP6AIABV1@M@Z@Z 1002ff60 f   physics_2009:dgBallConstraint.obj
 0001:0002ef70       ?GetJointAngle@dgBallConstraint@@QBE?AVdgVector@@XZ 1002ff70 f   physics_2009:dgBallConstraint.obj
 0001:0002efa0       ?SetTwistLimitState@dgBallConstraint@@QAEX_N@Z 1002ffa0 f   physics_2009:dgBallConstraint.obj
 0001:0002efc0       ?SetConeLimitState@dgBallConstraint@@QAEX_N@Z 1002ffc0 f   physics_2009:dgBallConstraint.obj
 0001:0002efe0       ?SetLatealLimitState@dgBallConstraint@@QAEX_N@Z 1002ffe0 f   physics_2009:dgBallConstraint.obj
 0001:0002f000       ??_GdgBallConstraint@@EAEPAXI@Z 10030000 f i physics_2009:dgBallConstraint.obj
 0001:0002f000       ??_EdgBallConstraint@@EAEPAXI@Z 10030000 f i physics_2009:dgBallConstraint.obj
 0001:0002f030       ??0dgBallConstraint@@AAE@XZ 10030030 f   physics_2009:dgBallConstraint.obj
 0001:0002f0b0       ?GetJointOmega@dgBallConstraint@@QBE?AVdgVector@@XZ 100300b0 f   physics_2009:dgBallConstraint.obj
 0001:0002f210       ?GetJointForce@dgBallConstraint@@QBE?AVdgVector@@XZ 10030210 f   physics_2009:dgBallConstraint.obj
 0001:0002f2e0       ?SetLimits@dgBallConstraint@@QAEXABVdgVector@@MMM0MM@Z 100302e0 f   physics_2009:dgBallConstraint.obj
 0001:0002fb30       ?SetPivotPoint@dgBallConstraint@@AAEXABVdgVector@@@Z 10030b30 f   physics_2009:dgBallConstraint.obj
 0001:0002fc30       ?JacobianDerivative@dgBallConstraint@@EAEIAAVdgContraintDescritor@@@Z 10030c30 f   physics_2009:dgBallConstraint.obj
 0001:000303a0       ??0dgHingeConstraint@@AAE@XZ 100313a0 f   physics_2009:dgHingeConstraint.obj
 0001:000303e0       ?SetJointParameterCallBack@dgHingeConstraint@@QAEXP6AIABV1@PAVdgJointCallBackParam@@@Z@Z 100313e0 f   physics_2009:dgHingeConstraint.obj
 0001:000303e0       ?SetJointParameterCallBack@dgSlidingConstraint@@QAEXP6AIABV1@PAVdgJointCallBackParam@@@Z@Z 100313e0 f   physics_2009:dgSlidingConstraint.obj
 0001:000303f0       ??_GdgHingeConstraint@@EAEPAXI@Z 100313f0 f i physics_2009:dgHingeConstraint.obj
 0001:000303f0       ??_EdgHingeConstraint@@EAEPAXI@Z 100313f0 f i physics_2009:dgHingeConstraint.obj
 0001:00030420       ?CalculateStopAlpha@dgHingeConstraint@@QBEMMPBVdgJointCallBackParam@@@Z 10031420 f   physics_2009:dgHingeConstraint.obj
 0001:000304d0       ?GetJointForce@dgHingeConstraint@@QBE?AVdgVector@@XZ 100314d0 f   physics_2009:dgHingeConstraint.obj
 0001:00030620       ?JacobianDerivative@dgHingeConstraint@@EAEIAAVdgContraintDescritor@@@Z 10031620 f   physics_2009:dgHingeConstraint.obj
 0001:000308f0       ??0dgSlidingConstraint@@AAE@XZ 100318f0 f   physics_2009:dgSlidingConstraint.obj
 0001:00030930       ??_GdgSlidingConstraint@@EAEPAXI@Z 10031930 f i physics_2009:dgSlidingConstraint.obj
 0001:00030930       ??_EdgSlidingConstraint@@EAEPAXI@Z 10031930 f i physics_2009:dgSlidingConstraint.obj
 0001:00030960       ?GetJointVeloc@dgCorkscrewConstraint@@QBEMXZ 10031960 f   physics_2009:dgCorkscrewConstraint.obj
 0001:00030960       ?GetJointVeloc@dgSlidingConstraint@@QBEMXZ 10031960 f   physics_2009:dgSlidingConstraint.obj
 0001:000309e0       ?CalculateStopAccel@dgSlidingConstraint@@QBEMMPBVdgJointCallBackParam@@@Z 100319e0 f   physics_2009:dgSlidingConstraint.obj
 0001:00030a80       ?GetJointForce@dgSlidingConstraint@@QBE?AVdgVector@@XZ 10031a80 f   physics_2009:dgSlidingConstraint.obj
 0001:00030bb0       ?JacobianDerivative@dgSlidingConstraint@@EAEIAAVdgContraintDescritor@@@Z 10031bb0 f   physics_2009:dgSlidingConstraint.obj
 0001:00031100       ??0dgCorkscrewConstraint@@AAE@XZ 10032100 f   physics_2009:dgCorkscrewConstraint.obj
 0001:00031140       ?GetJointPosit@dgSlidingConstraint@@QBEMXZ 10032140 f   physics_2009:dgSlidingConstraint.obj
 0001:00031140       ?GetJointAngle@dgCorkscrewConstraint@@QBEMXZ 10032140 f   physics_2009:dgCorkscrewConstraint.obj
 0001:00031140       ?GetJointAngle@dgHingeConstraint@@QBEMXZ 10032140 f   physics_2009:dgHingeConstraint.obj
 0001:00031140       ?GetJointAngle0@dgUniversalConstraint@@QBEMXZ 10032140 f   physics_2009:dgUniversalConstraint.obj
 0001:00031150       ??_EdgCorkscrewConstraint@@EAEPAXI@Z 10032150 f i physics_2009:dgCorkscrewConstraint.obj
 0001:00031150       ??_GdgCorkscrewConstraint@@EAEPAXI@Z 10032150 f i physics_2009:dgCorkscrewConstraint.obj
 0001:00031180       ?GetJointOmega0@dgUniversalConstraint@@QBEMXZ 10032180 f   physics_2009:dgUniversalConstraint.obj
 0001:00031180       ?GetJointOmega@dgHingeConstraint@@QBEMXZ 10032180 f   physics_2009:dgHingeConstraint.obj
 0001:00031180       ?GetJointOmega@dgCorkscrewConstraint@@QBEMXZ 10032180 f   physics_2009:dgCorkscrewConstraint.obj
 0001:00031200       ?CalculateStopAccel@dgCorkscrewConstraint@@QBEMMPBVdgJointCallBackParam@@@Z 10032200 f   physics_2009:dgCorkscrewConstraint.obj
 0001:000312a0       ?JacobianDerivative@dgCorkscrewConstraint@@EAEIAAVdgContraintDescritor@@@Z 100322a0 f   physics_2009:dgCorkscrewConstraint.obj
 0001:000317a0       ??0dgUniversalConstraint@@AAE@XZ 100327a0 f   physics_2009:dgUniversalConstraint.obj
 0001:000317e0       ?SetJointParameterCallBack@dgUniversalConstraint@@QAEXP6AIABV1@PAVdgJointCallBackParam@@@Z@Z 100327e0 f   physics_2009:dgUniversalConstraint.obj
 0001:000317e0       ?SetJointParameterCallBack@dgCorkscrewConstraint@@QAEXP6AIABV1@PAVdgJointCallBackParam@@@Z@Z 100327e0 f   physics_2009:dgCorkscrewConstraint.obj
 0001:000317f0       ?GetJointPosit@dgCorkscrewConstraint@@QBEMXZ 100327f0 f   physics_2009:dgCorkscrewConstraint.obj
 0001:000317f0       ?GetJointAngle1@dgUniversalConstraint@@QBEMXZ 100327f0 f   physics_2009:dgUniversalConstraint.obj
 0001:00031800       ??_GdgUniversalConstraint@@EAEPAXI@Z 10032800 f i physics_2009:dgUniversalConstraint.obj
 0001:00031800       ??_EdgUniversalConstraint@@EAEPAXI@Z 10032800 f i physics_2009:dgUniversalConstraint.obj
 0001:00031830       ?GetJointOmega1@dgUniversalConstraint@@QBEMXZ 10032830 f   physics_2009:dgUniversalConstraint.obj
 0001:000318d0       ?CalculateStopAlpha0@dgUniversalConstraint@@QBEMMPBVdgJointCallBackParam@@@Z 100328d0 f   physics_2009:dgUniversalConstraint.obj
 0001:000318d0       ?CalculateStopAlpha@dgCorkscrewConstraint@@QBEMMPBVdgJointCallBackParam@@@Z 100328d0 f   physics_2009:dgCorkscrewConstraint.obj
 0001:00031970       ?CalculateStopAlpha1@dgUniversalConstraint@@QBEMMPBVdgJointCallBackParam@@@Z 10032970 f   physics_2009:dgUniversalConstraint.obj
 0001:00031a10       ?GetJointForce@dgCorkscrewConstraint@@QBE?AVdgVector@@XZ 10032a10 f   physics_2009:dgCorkscrewConstraint.obj
 0001:00031a10       ?GetJointForce@dgUniversalConstraint@@QBE?AVdgVector@@XZ 10032a10 f   physics_2009:dgUniversalConstraint.obj
 0001:00031b10       ?JacobianDerivative@dgUniversalConstraint@@EAEIAAVdgContraintDescritor@@@Z 10032b10 f   physics_2009:dgUniversalConstraint.obj
 0001:00032080       ??0dgUpVectorConstraint@@AAE@XZ 10033080 f   physics_2009:dgUpVectorConstraint.obj
 0001:000320c0       ?IsBilateral@dgConstraint@@MBE_NXZ 100330c0 f   physics_2009:dgConstraint.obj
 0001:000320c0       ?IsTriggerVolume@dgCollision@@UBE_NXZ 100330c0 f   physics_2009:dgCollisionMesh.obj
 0001:000320c0       ?IsBilateral@dgUpVectorConstraint@@UBE_NXZ 100330c0 f   physics_2009:dgUpVectorConstraint.obj
 0001:000320d0       ?InitPinDir@dgUpVectorConstraint@@QAEXABVdgVector@@@Z 100330d0 f   physics_2009:dgUpVectorConstraint.obj
 0001:00032110       ?GetPinDir@dgUpVectorConstraint@@QBE?AVdgVector@@XZ 10033110 f   physics_2009:dgUpVectorConstraint.obj
 0001:00032130       ??_GdgUpVectorConstraint@@EAEPAXI@Z 10033130 f i physics_2009:dgUpVectorConstraint.obj
 0001:00032130       ??_EdgUpVectorConstraint@@EAEPAXI@Z 10033130 f i physics_2009:dgUpVectorConstraint.obj
 0001:00032160       ?SetPinDir@dgUpVectorConstraint@@QAEXABVdgVector@@@Z 10033160 f   physics_2009:dgUpVectorConstraint.obj
 0001:00032390       ?JacobianDerivative@dgUpVectorConstraint@@EAEIAAVdgContraintDescritor@@@Z 10033390 f   physics_2009:dgUpVectorConstraint.obj
 0001:000325d0       ?GetUserData@dgConstraint@@QBEPAXXZ 100335d0 f   physics_2009:dgConstraint.obj
 0001:000325e0       ?SetUserData@dgConstraint@@QAEXPAX@Z 100335e0 f   physics_2009:dgConstraint.obj
 0001:000325f0       ?InitInfo@dgConstraint@@IBEXPAVdgConstraintInfo@@@Z 100335f0 f   physics_2009:dgConstraint.obj
 0001:00032680       ?InitPointParam@dgConstraint@@IBEXAAVdgPointParam@1@MABVdgVector@@1@Z 10033680 f   physics_2009:dgConstraint.obj
 0001:00032940       ??0dgCollisionConvexHull@@QAE@PAVdgWorld@@P6AXPAX1I@Z1@Z 10033940 f   physics_2009:dgCollisionConvexHull.obj
 0001:00032ac0       ?GetFaceIndices@dgCollisionConvexHull@@QBEHHPAH@Z 10033ac0 f   physics_2009:dgCollisionConvexHull.obj
 0001:00032af0       ?CalculateSignature@dgCollisionConvexHull@@EBEHXZ 10033af0 f   physics_2009:dgCollisionConvexHull.obj
 0001:00032af0       ?CalculateSignature@dgCollisionNull@@EBEHXZ 10033af0 f   physics_2009:dgCollisionNull.obj
 0001:00032b00       ?GetCollisionInfo@dgCollisionConvexHull@@EBEXPAVdgCollisionInfo@@@Z 10033b00 f   physics_2009:dgCollisionConvexHull.obj
 0001:00032b50       ?Serialize@dgCollisionConvexHull@@EBEXP6AXPAXPBXI@Z0@Z 10033b50 f   physics_2009:dgCollisionConvexHull.obj
 0001:00032c80       ?PlaneSplite@dgCollisionConvexHull@@EBEXABVdgPlane@@PAPAV1@1@Z 10033c80 f   physics_2009:dgCollisionConvexHull.obj
 0001:00032c80       ?PlaneSplite@dgCollisionBox@@MBEXABVdgPlane@@PAPAVdgCollisionConvexHull@@1@Z 10033c80 f   physics_2009:dgCollisionBox.obj
 0001:00032c90       ??_GdgCollisionConvexHull@@UAEPAXI@Z 10033c90 f i physics_2009:dgCollisionConvexHull.obj
 0001:00032c90       ??_EdgCollisionConvexHull@@UAEPAXI@Z 10033c90 f i physics_2009:dgCollisionConvexHull.obj
 0001:00032cd0       ?BruteForceSupportVertex@dgCollisionConvexHull@@ABEHHPAVdgVector@@ABV2@@Z 10033cd0 f   physics_2009:dgCollisionConvexHull.obj
 0001:00032df0       ?DebugCollision@dgCollisionConvexHull@@EBEXABVdgMatrix@@P6AXPAXHPBMH@Z1@Z 10033df0 f   physics_2009:dgCollisionConvexHull.obj
 0001:00032ee0       ?FaceNormal@dgCollisionConvexHull@@ABE?AVdgVector@@PBVdgEdge@@PBV2@@Z 10033ee0 f   physics_2009:dgCollisionConvexHull.obj
 0001:000330b0       ?RemoveCoplanarEdge@dgCollisionConvexHull@@ABE_NAAVdgPolyhedra@@QAVdgVector@@@Z 100340b0 f   physics_2009:dgCollisionConvexHull.obj
 0001:00033560       ?OOBBTest@dgCollisionConvexHull@@EBE_NABVdgMatrix@@QBVdgConvexCollision@@PAX@Z 10034560 f   physics_2009:dgCollisionConvexHull.obj
 0001:00033920       ?Insert@?$dgTree@PAVdgConstraint@@PAX@@QAEPAVdgTreeNode@1@ABQAVdgConstraint@@PAXAA_N@Z 10034920 f i NewtonClass.obj
 0001:00033920       ?Insert@?$dgTree@PAVdgCollision@@I@@QAEPAVdgTreeNode@1@ABQAVdgCollision@@IAA_N@Z 10034920 f i physics_2009:dgNarrowPhaseCollision.obj
 0001:00033920       ?Insert@?$dgTree@PAVdgConstraint@@PAV1@@@QAEPAVdgTreeNode@1@ABQAVdgConstraint@@PAV3@AA_N@Z 10034920 f i Newton.obj
 0001:00033920       ?Insert@?$dgTree@PAVdgBody@@PAX@@QAEPAVdgTreeNode@1@ABQAVdgBody@@PAXAA_N@Z 10034920 f i NewtonClass.obj
 0001:00033920       ?Insert@?$dgTree@PAVdgEdge@@PAX@@QAEPAVdgTreeNode@1@ABQAVdgEdge@@PAXAA_N@Z 10034920 f i physics_2009:dgCollisionConvexHull.obj
 0001:000339f0       ?Create@dgCollisionConvexHull@@AAE_NHHPBMM@Z 100349f0 f   physics_2009:dgCollisionConvexHull.obj
 0001:00035220       ??0dgCollisionConvexHull@@QAE@IHHMPBMABVdgMatrix@@@Z 10036220 f   physics_2009:dgCollisionConvexHull.obj
 0001:00035580       ?Realloc@dgBroadPhaseCalculateContactsWorkerThread@@QAEXHHH@Z 10036580 f   physics_2009:dgBroadPhaseCollision.obj
 0001:00035660       ?ThreadExecute@dgBroadPhaseCalculateContactsWorkerThread@@UAEXXZ 10036660 f   physics_2009:dgBroadPhaseCollision.obj
 0001:000357d0       ?ThreadExecute@dgBroadPhaseMaterialCallbackWorkerThread@@UAEXXZ 100367d0 f   physics_2009:dgBroadPhaseCollision.obj
 0001:00035890       ?RayCast@dgSortArray@@QBEMMABUdgLineBox@@P6AMPBVdgBody@@ABVdgVector@@HPAXM@ZP6AI1PBVdgCollision@@3@Z3@Z 10036890 f   physics_2009:dgBroadPhaseCollision.obj
 0001:00035930       ?UpdateAutoPair@dgBroadPhaseCell@@AAEXPAVdgWorld@@H@Z 10036930 f   physics_2009:dgBroadPhaseCollision.obj
 0001:00035a40       ?UpdatePairs@dgBroadPhaseCollision@@ABEXPAVdgBody@@PAVdgListNode@?$dgList@VdgSortArrayEntry@@@@HH@Z 10036a40 f   physics_2009:dgBroadPhaseCollision.obj
 0001:00035b30       ?UpdatePairs@dgBroadPhaseCollision@@ABEXAAVdgBroadPhaseCell@@0H@Z 10036b30 f   physics_2009:dgBroadPhaseCollision.obj
 0001:00035ba0       ?ThreadExecute@dgBroadPhaseCellPairsWorkerThread@@UAEXXZ 10036ba0 f   physics_2009:dgBroadPhaseCollision.obj
 0001:00035c10       ?UpdateContactsBroadPhaseEnd@dgBroadPhaseCollision@@AAEXM@Z 10036c10 f   physics_2009:dgBroadPhaseCollision.obj
 0001:00035cb0       ?Append@?$dgList@VdgSortArrayEntry@@@@QAEPAVdgListNode@1@XZ 10036cb0 f i physics_2009:dgBroadPhaseCollision.obj
 0001:00035d30       ?RemoveAll@?$dgList@VdgSortArrayEntry@@@@QAEXXZ 10036d30 f i physics_2009:dgBroadPhaseCollision.obj
 0001:00035d30       ?RemoveAll@?$dgList@VdgBodyMasterListCell@@@@QAEXXZ 10036d30 f i physics_2009:dgBodyMasterList.obj
 0001:00035d90       ?ApplyExtenalForces@dgBody@@AAEXMH@Z 10036d90 f i physics_2009:dgBroadPhaseCollision.obj
 0001:00035e30       ?IsInEquelibrium@dgBody@@QBE_NXZ 10036e30 f i physics_2009:dgBroadPhaseCollision.obj
 0001:00035fb0       ?Sort@dgSortArray@@QAEMXZ  10036fb0 f   physics_2009:dgBroadPhaseCollision.obj
 0001:000360e0       ?Add@dgBroadPhaseCell@@AAEXPAVdgBody@@@Z 100370e0 f   physics_2009:dgBroadPhaseCollision.obj
 0001:00036190       ?InvalidateCache@dgBroadPhaseCollision@@AAEXXZ 10037190 f   physics_2009:dgBroadPhaseCollision.obj
 0001:000361d0       ?ForEachBodyInAABB@dgBroadPhaseCollision@@QBEXABVdgVector@@0P6AXPAVdgBody@@@Z@Z 100371d0 f   physics_2009:dgBroadPhaseCollision.obj
 0001:00036490       ?ThreadExecute@dgBroadPhaseApplyExternalForce@@UAEXXZ 10037490 f   physics_2009:dgBroadPhaseCollision.obj
 0001:000366e0       ?Remove@dgBroadPhaseCell@@AAEXPAVdgBody@@@Z 100376e0 f   physics_2009:dgBroadPhaseCollision.obj
 0001:00036760       ??0dgBroadPhaseCollision@@AAE@XZ 10037760 f   physics_2009:dgBroadPhaseCollision.obj
 0001:00036a60       ??1dgBroadPhaseCollision@@AAE@XZ 10037a60 f   physics_2009:dgBroadPhaseCollision.obj
 0001:00036b30       ?Remove@dgBroadPhaseCollision@@AAEXPAVdgBody@@@Z 10037b30 f   physics_2009:dgBroadPhaseCollision.obj
 0001:00036b90       ?ConvexCast@dgBroadPhaseCollision@@QBEHPAVdgCollision@@ABVdgMatrix@@ABVdgVector@@AAMP6AIPBVdgBody@@PBV2@PAX@Z6QAVdgConvexCastReturnInfo@@HH@Z 10037b90 f   physics_2009:dgBroadPhaseCollision.obj
 0001:000374c0       ?RayCast@dgBroadPhaseCollision@@QBEXABVdgVector@@0P6AMPBVdgBody@@0HPAXM@ZP6AI1PBVdgCollision@@2@Z2@Z 100384c0 f   physics_2009:dgBroadPhaseCollision.obj
 0001:00037bf0       ?UpdateContactsBroadPhaseBegin@dgBroadPhaseCollision@@AAEIM_NI@Z 10038bf0 f   physics_2009:dgBroadPhaseCollision.obj
 0001:000383f0       ?UpdateContactsSimd@dgBroadPhaseCollision@@AAEXM_N@Z 100393f0 f   physics_2009:dgBroadPhaseCollision.obj
 0001:00038620       ?UpdateContacts@dgBroadPhaseCollision@@AAEXM_N@Z 10039620 f   physics_2009:dgBroadPhaseCollision.obj
 0001:00038840       ?Insert@?$dgTree@VdgBroadPhaseCell@@I@@QAEPAVdgTreeNode@1@ABVdgBroadPhaseCell@@IAA_N@Z 10039840 f i physics_2009:dgBroadPhaseCollision.obj
 0001:00038910       ?FindCreate@dgBroadPhaseLayer@@AAEPAVdgBroadPhaseCell@@HH@Z 10039910 f   physics_2009:dgBroadPhaseCollision.obj
 0001:00038a00       ?Add@dgBroadPhaseCollision@@AAEXPAVdgBody@@@Z 10039a00 f   physics_2009:dgBroadPhaseCollision.obj
 0001:00038a20       ?UpdateBodyBroadphase@dgBroadPhaseCollision@@AAEXPAVdgBody@@H@Z 10039a20 f   physics_2009:dgBroadPhaseCollision.obj
 0001:00038e90       ?SetWorldSize@dgBroadPhaseCollision@@QAEXABVdgVector@@0@Z 10039e90 f   physics_2009:dgBroadPhaseCollision.obj
 0001:00039180       ?Init@dgBroadPhaseCollision@@AAEXPAVdgWorld@@@Z 1003a180 f   physics_2009:dgBroadPhaseCollision.obj
 0001:000391f0       ??0dgUserConstraint@@IAE@PAVdgWorld@@PAVdgBody@@1H@Z 1003a1f0 f   physics_2009:dgUserConstraint.obj
 0001:00039250       ??1dgUserConstraint@@MAE@XZ 1003a250 f   physics_2009:dgUserConstraint.obj
 0001:00039260       ?GetInfo@dgUserConstraint@@MBEXPAVdgConstraintInfo@@@Z 1003a260 f   physics_2009:dgUserConstraint.obj
 0001:00039270       ??_GdgUserConstraint@@MAEPAXI@Z 1003a270 f i physics_2009:dgUserConstraint.obj
 0001:00039270       ??_EdgUserConstraint@@MAEPAXI@Z 1003a270 f i physics_2009:dgUserConstraint.obj
 0001:000392a0       ?GetStiffness@dgConstraint@@UBEMXZ 1003a2a0 f i physics_2009:dgBilateralConstraint.obj
 0001:000392b0       ??1dgBilateralConstraint@@MAE@XZ 1003a2b0 f   physics_2009:dgBilateralConstraint.obj
 0001:000392e0       ?IsBilateral@dgBilateralConstraint@@MBE_NXZ 1003a2e0 f   physics_2009:dgBilateralConstraint.obj
 0001:000392f0       ?GetStiffness@dgBilateralConstraint@@MBEMXZ 1003a2f0 f   physics_2009:dgBilateralConstraint.obj
 0001:00039310       ?SetDestructorCallback@dgBilateralConstraint@@UAEXP6AXAAVdgConstraint@@@Z@Z 1003a310 f   physics_2009:dgBilateralConstraint.obj
 0001:00039320       ?SetMotorAcceleration@dgBilateralConstraint@@IAEXHMAAVdgContraintDescritor@@@Z 1003a320 f   physics_2009:dgBilateralConstraint.obj
 0001:00039360       ??_GdgConstraint@@MAEPAXI@Z 1003a360 f i physics_2009:dgBilateralConstraint.obj
 0001:00039360       ??_EdgConstraint@@MAEPAXI@Z 1003a360 f i physics_2009:dgBilateralConstraint.obj
 0001:00039380       ??_GdgBilateralConstraint@@MAEPAXI@Z 1003a380 f i physics_2009:dgBilateralConstraint.obj
 0001:00039380       ??_EdgBilateralConstraint@@MAEPAXI@Z 1003a380 f i physics_2009:dgBilateralConstraint.obj
 0001:000393c0       ?SetStiffness@dgBilateralConstraint@@MAEXM@Z 1003a3c0 f   physics_2009:dgBilateralConstraint.obj
 0001:00039400       ?SetJacobianDerivative@dgBilateralConstraint@@IAEXHAAVdgContraintDescritor@@PBM1PAM@Z 1003a400 f   physics_2009:dgBilateralConstraint.obj
 0001:000394c0       ?CalculatePointDerivative@dgBilateralConstraint@@IAEXHAAVdgContraintDescritor@@ABVdgVector@@ABVdgPointParam@dgConstraint@@PAM@Z 1003a4c0 f   physics_2009:dgBilateralConstraint.obj
 0001:000396c0       ??0dgBilateralConstraint@@IAE@XZ 1003a6c0 f   physics_2009:dgBilateralConstraint.obj
 0001:00039770       ?CalculateMatrixOffset@dgBilateralConstraint@@IAEXABVdgVector@@0AAVdgMatrix@@1@Z 1003a770 f   physics_2009:dgBilateralConstraint.obj
 0001:00039c40       ?SetPivotAndPinDir@dgBilateralConstraint@@IAEXABVdgVector@@0@Z 1003ac40 f   physics_2009:dgBilateralConstraint.obj
 0001:00039c60       ?SetPivotAndPinDir@dgBilateralConstraint@@IAEXABVdgVector@@00@Z 1003ac60 f   physics_2009:dgBilateralConstraint.obj
 0001:0003a0d0       ?CalculateGlobalMatrixAndAngle@dgBilateralConstraint@@IBE?AVdgVector@@AAVdgMatrix@@0@Z 1003b0d0 f   physics_2009:dgBilateralConstraint.obj
 0001:0003a2b0       ?CalculateSpringDamperAcceleration@dgBilateralConstraint@@IAEMHABVdgContraintDescritor@@MABVdgVector@@1MM@Z 1003b2b0 f   physics_2009:dgBilateralConstraint.obj
 0001:0003a460       ?CalculateAngularDerivative@dgBilateralConstraint@@IAEXHAAVdgContraintDescritor@@ABVdgVector@@MMPAM@Z 1003b460 f   physics_2009:dgBilateralConstraint.obj
 0001:0003a5d0       ?JointAccelerationsSimd@dgBilateralConstraint@@MAEXABVdgJointAccelerationDecriptor@@@Z 1003b5d0 f   physics_2009:dgBilateralConstraint.obj
 0001:0003a5d0       ?JointAccelerations@dgBilateralConstraint@@MAEXABVdgJointAccelerationDecriptor@@@Z 1003b5d0 f   physics_2009:dgBilateralConstraint.obj
 0001:0003a760       ??1dgCollisionSphere@@UAE@XZ 1003b760 f   physics_2009:dgCollisionSphere.obj
 0001:0003a780       ?CalculateSignature@dgCollisionSphere@@MBEHXZ 1003b780 f   physics_2009:dgCollisionSphere.obj
 0001:0003a7f0       ?GetVolume@dgCollisionConvexPolygon@dgCollisionMesh@@UBEMXZ 1003b7f0 f   physics_2009:dgCollisionMesh.obj
 0001:0003a7f0       ?GetVolume@dgCollisionMesh@@UBEMXZ 1003b7f0 f   physics_2009:dgCollisionMesh.obj
 0001:0003a7f0       ?GetVolume@dgCollisionPoint@@UBEMXZ 1003b7f0 f   physics_2009:dgCollisionSphere.obj
 0001:0003a7f0       ?GetBoxMinRadius@dgCollisionConvexPolygon@dgCollisionMesh@@UBEMXZ 1003b7f0 f   physics_2009:dgCollisionMesh.obj
 0001:0003a7f0       ?GetBoxMinRadius@dgCollisionScene@@EBEMXZ 1003b7f0 f   physics_2009:dgCollisionScene.obj
 0001:0003a7f0       ?GetBoxMaxRadius@dgCollisionScene@@EBEMXZ 1003b7f0 f   physics_2009:dgCollisionScene.obj
 0001:0003a7f0       ?GetBoxMaxRadius@dgCollisionConvexPolygon@dgCollisionMesh@@UBEMXZ 1003b7f0 f   physics_2009:dgCollisionMesh.obj
 0001:0003a7f0       ?GetVolume@dgCollisionScene@@EBEMXZ 1003b7f0 f   physics_2009:dgCollisionScene.obj
 0001:0003a7f0       ?GetBoxMinRadius@dgCollisionMesh@@UBEMXZ 1003b7f0 f   physics_2009:dgCollisionMesh.obj
 0001:0003a7f0       ?GetBoxMaxRadius@dgCollisionMesh@@UBEMXZ 1003b7f0 f   physics_2009:dgCollisionMesh.obj
 0001:0003a7f0       ?GetVolume@dgCollisionNull@@MBEMXZ 1003b7f0 f   physics_2009:dgCollisionNull.obj
 0001:0003a800       ?CalculateInertia@dgCollisionPoint@@UBEXAAVdgVector@@0@Z 1003b800 f   physics_2009:dgCollisionSphere.obj
 0001:0003a800       ?CalculateInertia@dgCollisionMesh@@UBEXAAVdgVector@@0@Z 1003b800 f   physics_2009:dgCollisionMesh.obj
 0001:0003a800       ?CalculateInertia@dgCollisionScene@@EBEXAAVdgVector@@0@Z 1003b800 f   physics_2009:dgCollisionScene.obj
 0001:0003a800       ?CalculateInertia@dgCollisionNull@@MBEXAAVdgVector@@0@Z 1003b800 f   physics_2009:dgCollisionNull.obj
 0001:0003a800       ?CalculateInertia@dgCollisionConvexPolygon@dgCollisionMesh@@UBEXAAVdgVector@@0@Z 1003b800 f   physics_2009:dgCollisionMesh.obj
 0001:0003a820       ?GetCollisionInfo@dgCollisionSphere@@MBEXPAVdgCollisionInfo@@@Z 1003b820 f   physics_2009:dgCollisionSphere.obj
 0001:0003a870       ??_EdgCollisionSphere@@UAEPAXI@Z 1003b870 f i physics_2009:dgCollisionSphere.obj
 0001:0003a870       ??_GdgCollisionSphere@@UAEPAXI@Z 1003b870 f i physics_2009:dgCollisionSphere.obj
 0001:0003a8b0       ?SupportVertex@dgCollisionSphere@@MBE?AVdgVector@@ABV2@@Z 1003b8b0 f   physics_2009:dgCollisionSphere.obj
 0001:0003a8b0       ?SupportVertexSimd@dgCollisionSphere@@MBE?AVdgVector@@ABV2@@Z 1003b8b0 f   physics_2009:dgCollisionSphere.obj
 0001:0003a900       ?CalcAABB@dgCollisionSphere@@MBEXABVdgMatrix@@AAVdgVector@@1@Z 1003b900 f   physics_2009:dgCollisionSphere.obj
 0001:0003a950       ?CalculatePlaneIntersectionSimd@dgCollisionSphere@@MBEHABVdgVector@@0QAV2@@Z 1003b950 f   physics_2009:dgCollisionSphere.obj
 0001:0003a950       ?CalculatePlaneIntersection@dgCollisionSphere@@MBEHABVdgVector@@0QAV2@@Z 1003b950 f   physics_2009:dgCollisionSphere.obj
 0001:0003a9c0       ?TesselateTriangle@dgCollisionSphere@@IBEXHABVdgVector@@00AAHPAV2@@Z 1003b9c0 f   physics_2009:dgCollisionSphere.obj
 0001:0003ace0       ?DebugCollision@dgCollisionSphere@@MBEXABVdgMatrix@@P6AXPAXHPBMH@Z1@Z 1003bce0 f   physics_2009:dgCollisionSphere.obj
 0001:0003af80       ?SupportVertex@dgCollisionPoint@@UBE?AVdgVector@@ABV2@@Z 1003bf80 f   physics_2009:dgCollisionSphere.obj
 0001:0003af80       ?SupportVertex@dgCollisionScene@@EBE?AVdgVector@@ABV2@@Z 1003bf80 f   physics_2009:dgCollisionScene.obj
 0001:0003af80       ?SupportVertex@dgCollisionMesh@@EBE?AVdgVector@@ABV2@@Z 1003bf80 f   physics_2009:dgCollisionMesh.obj
 0001:0003af80       ?SupportVertexSimd@dgCollisionNull@@MBE?AVdgVector@@ABV2@@Z 1003bf80 f   physics_2009:dgCollisionNull.obj
 0001:0003af80       ?SupportVertex@dgCollisionNull@@MBE?AVdgVector@@ABV2@@Z 1003bf80 f   physics_2009:dgCollisionNull.obj
 0001:0003af80       ?SupportVertexSimd@dgCollisionPoint@@UBE?AVdgVector@@ABV2@@Z 1003bf80 f   physics_2009:dgCollisionSphere.obj
 0001:0003afa0       ?RayCast@dgCollisionSphere@@MBEMABVdgVector@@0AAVdgContactPoint@@P6AIPBVdgBody@@PBVdgCollision@@PAX@Z24@Z 1003bfa0 f   physics_2009:dgCollisionSphere.obj
 0001:0003b1a0       ?CalculateMassProperties@dgCollisionSphere@@MBEMAAVdgVector@@00@Z 1003c1a0 f   physics_2009:dgCollisionSphere.obj
 0001:0003b280       ?Serialize@dgCollisionSphere@@MBEXP6AXPAXPBXI@Z0@Z 1003c280 f   physics_2009:dgCollisionSphere.obj
 0001:0003b2e0       ?Init@dgCollisionSphere@@IAEXM@Z 1003c2e0 f   physics_2009:dgCollisionSphere.obj
 0001:0003b6c0       ??0dgCollisionSphere@@QAE@IMABVdgMatrix@@@Z 1003c6c0 f   physics_2009:dgCollisionSphere.obj
 0001:0003b700       ??0dgCollisionSphere@@QAE@PAVdgWorld@@P6AXPAX1I@Z1@Z 1003c700 f   physics_2009:dgCollisionSphere.obj
 0001:0003b750       ?MassProperties@dgConvexMassData@@QAEMAAVdgVector@@00@Z 1003c750 f i physics_2009:dgConvexCollision.obj
 0001:0003b820       ??1dgConvexCollision@@MAE@XZ 1003c820 f   physics_2009:dgConvexCollision.obj
 0001:0003b860       ?SerializeLow@dgConvexCollision@@MBEXP6AXPAXPBXI@Z0@Z 1003c860 f   physics_2009:dgConvexCollision.obj
 0001:0003b8a0       ?GetUserData@dgConvexCollision@@MBEPAXXZ 1003c8a0 f   physics_2009:dgConvexCollision.obj
 0001:0003b8b0       ?SetUserData@dgConvexCollision@@MAEXPAX@Z 1003c8b0 f   physics_2009:dgConvexCollision.obj
 0001:0003b8c0       ?GetVolume@dgConvexCollision@@EBEMXZ 1003c8c0 f   physics_2009:dgConvexCollision.obj
 0001:0003b8d0       ?GetBoxMinRadius@dgConvexCollision@@EBEMXZ 1003c8d0 f   physics_2009:dgConvexCollision.obj
 0001:0003b8e0       ?GetBoxMaxRadius@dgConvexCollision@@EBEMXZ 1003c8e0 f   physics_2009:dgConvexCollision.obj
 0001:0003b8f0       ?IsTriggerVolume@dgConvexCollision@@UBE_NXZ 1003c8f0 f   physics_2009:dgConvexCollision.obj
 0001:0003b900       ?SetAsTriggerVolume@dgConvexCollision@@MAEX_N@Z 1003c900 f   physics_2009:dgConvexCollision.obj
 0001:0003b920       ??_GdgConvexCollision@@MAEPAXI@Z 1003c920 f i physics_2009:dgConvexCollision.obj
 0001:0003b920       ??_EdgConvexCollision@@MAEPAXI@Z 1003c920 f i physics_2009:dgConvexCollision.obj
 0001:0003b970       ?GetDiscretedAngleStep@dgConvexCollision@@IBEMM@Z 1003c970 f   physics_2009:dgConvexCollision.obj
 0001:0003b9c0       ?GetSupportEdge@dgConvexCollision@@IBEPAVdgConvexSimplexEdge@@ABVdgVector@@@Z 1003c9c0 f   physics_2009:dgConvexCollision.obj
 0001:0003ba40       ?RayHitBox@dgConvexCollision@@ABE_NABVdgVector@@0@Z 1003ca40 f   physics_2009:dgConvexCollision.obj
 0001:0003bbd0       ?AddCg@dgConvexMassData@@QAEXHPBVdgVector@@@Z 1003cbd0 f i physics_2009:dgConvexCollision.obj
 0001:0003bd30       ?AddInertia@dgConvexMassData@@QAEXHPBM@Z 1003cd30 f i physics_2009:dgConvexCollision.obj
 0001:0003bfb0       ??0dgConvexCollision@@IAE@IABVdgMatrix@@W4dgCollisionID@@@Z 1003cfb0 f   physics_2009:dgConvexCollision.obj
 0001:0003c0b0       ??0dgConvexCollision@@IAE@PAVdgWorld@@P6AXPAX1I@Z1@Z 1003d0b0 f   physics_2009:dgConvexCollision.obj
 0001:0003c190       ?SetVolumeAndCG@dgConvexCollision@@IAEXXZ 1003d190 f   physics_2009:dgConvexCollision.obj
 0001:0003c5a0       ?DebugCollision@dgConvexCollision@@MBEXABVdgMatrix@@P6AXPAXHPBMH@Z1@Z 1003d5a0 f   physics_2009:dgConvexCollision.obj
 0001:0003c6c0       ?CalcAABB@dgConvexCollision@@UBEXABVdgMatrix@@AAVdgVector@@1@Z 1003d6c0 f   physics_2009:dgConvexCollision.obj
 0001:0003c8d0       ?CalcAABBSimD@dgConvexCollision@@UBEXABVdgMatrix@@AAVdgVector@@1@Z 1003d8d0 f   physics_2009:dgConvexCollision.obj
 0001:0003c970       ?CalculateInertia@dgConvexCollision@@CAXPAXHPBMH@Z 1003d970 f   physics_2009:dgConvexCollision.obj
 0001:0003c990       ?CalculateMassProperties@dgConvexCollision@@MBEMAAVdgVector@@00@Z 1003d990 f   physics_2009:dgConvexCollision.obj
 0001:0003ca00       ?CalculateInertia@dgConvexCollision@@EBEXAAVdgVector@@0@Z 1003da00 f   physics_2009:dgConvexCollision.obj
 0001:0003cae0       ?RayCastClosestFace@dgConvexCollision@@ABEHPAVdgVector@@ABV2@AAM@Z 1003dae0 f   physics_2009:dgConvexCollision.obj
 0001:0003d030       ?CalculateVolumeIntegral@dgConvexCollision@@IBE?AVdgVector@@ABVdgPlane@@@Z 1003e030 f   physics_2009:dgConvexCollision.obj
 0001:0003d5f0       ?SupportVertex@dgConvexCollision@@UBE?AVdgVector@@ABV2@@Z 1003e5f0 f   physics_2009:dgConvexCollision.obj
 0001:0003d7d0       ?SupportVertexSimd@dgConvexCollision@@UBE?AVdgVector@@ABV2@@Z 1003e7d0 f   physics_2009:dgConvexCollision.obj
 0001:0003d990       ?SimplifyClipPolygon@dgConvexCollision@@ABEHHABVdgVector@@PAV2@@Z 1003e990 f   physics_2009:dgConvexCollision.obj
 0001:0003dbc0       ?RectifyConvexSlice@dgConvexCollision@@IBEHHABVdgVector@@QAV2@@Z 1003ebc0 f   physics_2009:dgConvexCollision.obj
 0001:0003df30       ?CalculatePlaneIntersectionSimd@dgConvexCollision@@UBEHABVdgVector@@0QAV2@@Z 1003ef30 f   physics_2009:dgConvexCollision.obj
 0001:0003e420       ?CalculatePlaneIntersection@dgConvexCollision@@UBEHABVdgVector@@0QAV2@@Z 1003f420 f   physics_2009:dgConvexCollision.obj
 0001:0003e8d0       ?RayCast@dgConvexCollision@@UBEMABVdgVector@@0AAVdgContactPoint@@P6AIPBVdgBody@@PBVdgCollision@@PAX@Z24@Z 1003f8d0 f   physics_2009:dgConvexCollision.obj
 0001:0003f700       ?OOBBTest@dgConvexCollision@@UBE_NABVdgMatrix@@QBV1@PAX@Z 10040700 f   physics_2009:dgConvexCollision.obj
 0001:0003f8c0       ?CalculateVolumeIntegral@dgConvexCollision@@EBE?AVdgVector@@ABVdgMatrix@@P6AIPAX10AAVdgPlane@@@Z1@Z 100408c0 f   physics_2009:dgConvexCollision.obj
 0001:0003fa50       ?FindConstraintLink@dgBodyMasterList@@QBEPAVdgListNode@?$dgList@VdgBodyMasterListCell@@@@PBVdgBody@@0@Z 10040a50 f   physics_2009:dgBodyMasterList.obj
 0001:0003fa80       ?FindConstraintLinkNext@dgBodyMasterList@@QBEPAVdgListNode@?$dgList@VdgBodyMasterListCell@@@@PBV23@PBVdgBody@@@Z 10040a80 f   physics_2009:dgBodyMasterList.obj
 0001:0003fab0       ?Addtop@?$dgList@VdgBodyMasterListCell@@@@QAEPAVdgListNode@1@XZ 10040ab0 f i physics_2009:dgBodyMasterList.obj
 0001:0003fb20       ?SortList@dgBodyMasterListRow@@QAEXXZ 10040b20 f   physics_2009:dgBodyMasterList.obj
 0001:0003fc10       ?AttachConstraint@dgBodyMasterList@@QAEXPAVdgConstraint@@PAVdgBody@@1@Z 10040c10 f   physics_2009:dgBodyMasterList.obj
 0001:0003fcd0       ?SortMasterList@dgBodyMasterList@@QAEXXZ 10040cd0 f   physics_2009:dgBodyMasterList.obj
 0001:0003fec0       ?Remove@?$dgList@VdgBodyMasterListCell@@@@QAEXPAVdgListNode@1@@Z 10040ec0 f i physics_2009:dgBodyMasterList.obj
 0001:0003fec0       ?Remove@?$dgList@VdgSortArrayEntry@@@@QAEXPAVdgListNode@1@@Z 10040ec0 f i physics_2009:dgBroadPhaseCollision.obj
 0001:0003ff10       ?RemoveConstraint@dgBodyMasterList@@QAEXPAVdgConstraint@@@Z 10040f10 f   physics_2009:dgBodyMasterList.obj
 0001:0003ffb0       ?Append@?$dgList@VdgBodyMasterListRow@@@@QAEPAVdgListNode@1@XZ 10040fb0 f i physics_2009:dgBodyMasterList.obj
 0001:00040030       ?RemoveAll@?$dgList@VdgBodyMasterListRow@@@@QAEXXZ 10041030 f i physics_2009:dgBodyMasterList.obj
 0001:00040090       ?AddBody@dgBodyMasterList@@QAEXPAVdgBody@@@Z 10041090 f   physics_2009:dgBodyMasterList.obj
 0001:000400c0       ?Remove@?$dgList@VdgBodyMasterListRow@@@@QAEXPAVdgListNode@1@@Z 100410c0 f i physics_2009:dgBodyMasterList.obj
 0001:00040120       ??0dgBodyMasterList@@QAE@XZ 10041120 f   physics_2009:dgBodyMasterList.obj
 0001:00040130       ??1dgBodyMasterList@@QAE@XZ 10041130 f   physics_2009:dgBodyMasterList.obj
 0001:00040140       ?RemoveBody@dgBodyMasterList@@QAEXPAVdgBody@@@Z 10041140 f   physics_2009:dgBodyMasterList.obj
 0001:00040190       ??0dgCollisionNull@@QAE@I@Z 10041190 f   physics_2009:dgCollisionNull.obj
 0001:000401c0       ??0dgCollisionNull@@QAE@PAVdgWorld@@P6AXPAX1I@Z1@Z 100411c0 f   physics_2009:dgCollisionNull.obj
 0001:000401f0       ?Serialize@dgCollisionNull@@EBEXP6AXPAXPBXI@Z0@Z 100411f0 f   physics_2009:dgCollisionNull.obj
 0001:00040200       ?RayCastSimd@dgCollisionNull@@MBEMABVdgVector@@0AAVdgContactPoint@@P6AIPBVdgBody@@PBVdgCollision@@PAX@Z24@Z 10041200 f   physics_2009:dgCollisionNull.obj
 0001:00040200       ?RayCast@dgCollisionNull@@MBEMABVdgVector@@0AAVdgContactPoint@@P6AIPBVdgBody@@PBVdgCollision@@PAX@Z24@Z 10041200 f   physics_2009:dgCollisionNull.obj
 0001:00040210       ??_GdgCollisionNull@@UAEPAXI@Z 10041210 f i physics_2009:dgCollisionNull.obj
 0001:00040210       ??_EdgCollisionNull@@UAEPAXI@Z 10041210 f i physics_2009:dgCollisionNull.obj
 0001:00040240       ?CalcAABB@dgCollisionNull@@MBEXABVdgMatrix@@AAVdgVector@@1@Z 10041240 f   physics_2009:dgCollisionNull.obj
 0001:00040280       ?CalculateVolumeIntegral@dgCollisionNull@@MBE?AVdgVector@@ABVdgMatrix@@P6AIPAX10AAVdgPlane@@@Z1@Z 10041280 f   physics_2009:dgCollisionNull.obj
 0001:00040280       ?CalculateVolumeIntegral@dgCollisionScene@@EBE?AVdgVector@@ABVdgMatrix@@P6AIPAX10AAVdgPlane@@@Z1@Z 10041280 f   physics_2009:dgCollisionScene.obj
 0001:00040280       ?CalculateVolumeIntegral@dgCollisionMesh@@EBE?AVdgVector@@ABVdgMatrix@@P6AIPAX10AAVdgPlane@@@Z1@Z 10041280 f   physics_2009:dgCollisionMesh.obj
 0001:000402a0       ?JointAccelerationsSimd@dgContact@@EAEXABVdgJointAccelerationDecriptor@@@Z 100412a0 f   physics_2009:dgContact.obj
 0001:000404b0       ??0dgCollidingPairCollector@@QAE@XZ 100414b0 f   physics_2009:dgContact.obj
 0001:000404d0       ?Init@dgCollidingPairCollector@@QAEXPAVdgWorld@@@Z 100414d0 f   physics_2009:dgContact.obj
 0001:00040500       ?SetCaches@dgCollidingPairCollector@@QAEXQAUdgThreadPairCache@1@@Z 10041500 f   physics_2009:dgContact.obj
 0001:00040580       ?FlushChache@dgCollidingPairCollector@@QAEXQAUdgThreadPairCache@1@@Z 10041580 f   physics_2009:dgContact.obj
 0001:00040660       ?GetInfo@dgContact@@EBEXPAVdgConstraintInfo@@@Z 10041660 f   physics_2009:dgContact.obj
 0001:000406b0       ?CalculatePointDerivative@dgContact@@ABEXHAAVdgContraintDescritor@@ABVdgVector@@ABVdgPointParam@dgConstraint@@@Z 100416b0 f   physics_2009:dgContact.obj
 0001:00040770       ?Append@?$dgList@PAVdgContact@@@@QAEPAVdgListNode@1@ABQAVdgContact@@@Z 10041770 f i physics_2009:dgContact.obj
 0001:00040770       ?Append@?$dgList@PAVdgEdge@@@@QAEPAVdgListNode@1@ABQAVdgEdge@@@Z 10041770 f i corelib_2009:dgPolyhedra.obj
 0001:00040800       ?JointAccelerations@dgContact@@EAEXABVdgJointAccelerationDecriptor@@@Z 10041800 f   physics_2009:dgContact.obj
 0001:000409d0       ?AddPair@dgCollidingPairCollector@@QAEXPAVdgBody@@0H@Z 100419d0 f   physics_2009:dgContact.obj
 0001:00040c90       ?RemoveAll@?$dgList@VdgContactMaterial@@@@QAEXXZ 10041c90 f i physics_2009:dgContact.obj
 0001:00040d00       ??0dgContactMaterial@@QAE@XZ 10041d00 f   physics_2009:dgContact.obj
 0001:00040d60       ?JacobianContactDerivative@dgContact@@AAEXAAVdgContraintDescritor@@ABVdgContactMaterial@@HAAH@Z 10041d60 f   physics_2009:dgContact.obj
 0001:000410e0       ??0dgContact@@AAE@PAVdgWorld@@@Z 100420e0 f   physics_2009:dgContact.obj
 0001:00041180       ?SetDestructorCallback@dgContact@@EAEXP6AXAAVdgConstraint@@@Z@Z 10042180 f i physics_2009:dgContact.obj
 0001:00041180       ?GetInfo@dgConstraint@@UBEXPAVdgConstraintInfo@@@Z 10042180 f i physics_2009:dgConstraint.obj
 0001:00041180       ?SetUserData@dgCollision@@UAEXPAX@Z 10042180 f i physics_2009:dgCollision.obj
 0001:00041180       ?JointVelocityCorrection@dgBilateralConstraint@@MAEXABVdgJointAccelerationDecriptor@@@Z 10042180 f i physics_2009:dgBilateralConstraint.obj
 0001:00041180       ?JointVelocityCorrection@dgContact@@EAEXABVdgJointAccelerationDecriptor@@@Z 10042180 f i physics_2009:dgContact.obj
 0001:00041180       ?SetAsTriggerVolume@dgCollision@@UAEX_N@Z 10042180 f i physics_2009:dgCollisionMesh.obj
 0001:00041180       ?SetStiffness@dgConstraint@@UAEXM@Z 10042180 f i physics_2009:dgBilateralConstraint.obj
 0001:00041180       ?ModifierSetMatrix@dgCollision@@UAEXABVdgMatrix@@@Z 10042180 f i physics_2009:dgWorld.obj
 0001:00041180       ?Remove@dgBilateralConstraint@@MAEXPAVdgWorld@@@Z 10042180 f i NewtonClass.obj
 0001:00041180       ?GetCollisionInfo@dgCollisionMesh@@EBEXPAVdgCollisionInfo@@@Z 10042180 f i physics_2009:dgCollisionMesh.obj
 0001:00041190       ?Remove@?$dgList@PAVdgContact@@@@QAEXPAVdgListNode@1@@Z 10042190 f i physics_2009:dgContact.obj
 0001:000411e0       ?JacobianDerivative@dgContact@@EAEIAAVdgContraintDescritor@@@Z 100421e0 f   physics_2009:dgContact.obj
 0001:00041230       ??_EdgContact@@EAEPAXI@Z   10042230 f i physics_2009:dgContact.obj
 0001:00041230       ??_GdgContact@@EAEPAXI@Z   10042230 f i physics_2009:dgContact.obj
 0001:00041290       ??0dgCollisionConvexModifier@@QAE@PAVdgConvexCollision@@PAVdgWorld@@@Z 10042290 f   physics_2009:dgCollisionConvexModifier.obj
 0001:00041320       ?ModifierGetMatrix@dgCollisionConvexModifier@@UBE?AVdgMatrix@@XZ 10042320 f   physics_2009:dgCollisionConvexModifier.obj
 0001:00041340       ?GetBoxMinRadius@dgCollisionConvexModifier@@EBEMXZ 10042340 f   physics_2009:dgCollisionConvexModifier.obj
 0001:00041350       ?GetBoxMaxRadius@dgCollisionConvexModifier@@EBEMXZ 10042350 f   physics_2009:dgCollisionConvexModifier.obj
 0001:00041360       ?SetCollisionBBox@dgCompoundCollision@@EAEXABVdgVector@@0@Z 10042360 f   physics_2009:dgCompoundCollision.obj
 0001:00041360       ?Serialize@dgCollisionUserMesh@@EBEXP6AXPAXPBXI@Z0@Z 10042360 f   physics_2009:dgCollisionUserMesh.obj
 0001:00041360       ?SetCollisionBBox@dgCollisionCylinder@@EAEXABVdgVector@@0@Z 10042360 f   physics_2009:dgCollisionCylinder.obj
 0001:00041360       ?Serialize@dgCollisionMesh@@EBEXP6AXPAXPBXI@Z0@Z 10042360 f   physics_2009:dgCollisionMesh.obj
 0001:00041360       ?Serialize@dgCollisionConvexPolygon@dgCollisionMesh@@UBEXP6AXPAXPBXI@Z0@Z 10042360 f   physics_2009:dgCollisionMesh.obj
 0001:00041360       ?SetCollisionBBox@dgCollisionConvexHull@@EAEXABVdgVector@@0@Z 10042360 f   physics_2009:dgCollisionConvexHull.obj
 0001:00041360       ?GetAABB@dgPolygonSoupDatabase@@UBEXAAVdgVector@@0@Z 10042360 f   corelib_2009:dgAABBPolygonSoup.obj
 0001:00041360       ?SetCollisionBBox@dgCollisionBox@@MAEXABVdgVector@@0@Z 10042360 f   physics_2009:dgCollisionBox.obj
 0001:00041360       ?SetCollisionBBox@dgCollisionCone@@EAEXABVdgVector@@0@Z 10042360 f   physics_2009:dgCollisionCone.obj
 0001:00041360       ?SetCollisionBBox@dgCollisionEllipse@@EAEXABVdgVector@@0@Z 10042360 f   physics_2009:dgCollisionEllipse.obj
 0001:00041360       ?SetCollisionBBox@dgCollisionNull@@EAEXABVdgVector@@0@Z 10042360 f   physics_2009:dgCollisionNull.obj
 0001:00041360       ?SetCollisionBBox@dgCollisionConvexPolygon@dgCollisionMesh@@UAEXABVdgVector@@0@Z 10042360 f   physics_2009:dgCollisionMesh.obj
 0001:00041360       ?SetCollisionBBox@dgCollisionSphere@@MAEXABVdgVector@@0@Z 10042360 f   physics_2009:dgCollisionSphere.obj
 0001:00041360       ?SetCollisionBBox@dgCollisionCapsule@@EAEXABVdgVector@@0@Z 10042360 f   physics_2009:dgCollisionCapsule.obj
 0001:00041360       ?SetCollisionBBox@dgCollisionConvexModifier@@EAEXABVdgVector@@0@Z 10042360 f   physics_2009:dgCollisionConvexModifier.obj
 0001:00041360       ?SetCollisionBBox@dgCollisionChamferCylinder@@MAEXABVdgVector@@0@Z 10042360 f   physics_2009:dgCollisionChamferCylinder.obj
 0001:00041370       ?DebugCollision@dgCollisionConvexModifier@@MBEXABVdgMatrix@@P6AXPAXHPBMH@Z1@Z 10042370 f   physics_2009:dgCollisionConvexModifier.obj
 0001:000413e0       ?GetVolume@dgCollisionConvexModifier@@MBEMXZ 100423e0 f   physics_2009:dgCollisionConvexModifier.obj
 0001:00041400       ?GetCollisionInfo@dgCollisionConvexModifier@@EBEXPAVdgCollisionInfo@@@Z 10042400 f   physics_2009:dgCollisionConvexModifier.obj
 0001:00041440       ?Serialize@dgCollisionConvexModifier@@EBEXP6AXPAXPBXI@Z0@Z 10042440 f   physics_2009:dgCollisionConvexModifier.obj
 0001:00041480       ?OOBBTest@dgCollisionConvexModifier@@MBE_NABVdgMatrix@@QBVdgConvexCollision@@PAX@Z 10042480 f   physics_2009:dgCollisionConvexModifier.obj
 0001:00041480       ?OOBBTest@dgCompoundCollision@@MBE_NABVdgMatrix@@QBVdgConvexCollision@@PAX@Z 10042480 f   physics_2009:dgCompoundCollision.obj
 0001:00041480       ?OOBBTest@dgCollisionScene@@EBE_NABVdgMatrix@@QBVdgConvexCollision@@PAX@Z 10042480 f   physics_2009:dgCollisionScene.obj
 0001:00041480       ?OOBBTest@dgCollisionConvexPolygon@dgCollisionMesh@@UBE_NABVdgMatrix@@QBVdgConvexCollision@@PAX@Z 10042480 f   physics_2009:dgCollisionMesh.obj
 0001:00041480       ?OOBBTest@dgCollisionMesh@@EBE_NABVdgMatrix@@QBVdgConvexCollision@@PAX@Z 10042480 f   physics_2009:dgCollisionMesh.obj
 0001:00041490       ??_EdgCollisionConvexModifier@@UAEPAXI@Z 10042490 f i physics_2009:dgCollisionConvexModifier.obj
 0001:00041490       ??_GdgCollisionConvexModifier@@UAEPAXI@Z 10042490 f i physics_2009:dgCollisionConvexModifier.obj
 0001:000414e0       ?ModifierSetMatrix@dgCollisionConvexModifier@@UAEXABVdgMatrix@@@Z 100424e0 f   physics_2009:dgCollisionConvexModifier.obj
 0001:00041750       ??0dgCollisionConvexModifier@@QAE@PAVdgWorld@@P6AXPAX1I@Z1@Z 10042750 f   physics_2009:dgCollisionConvexModifier.obj
 0001:000417e0       ?CalcAABB@dgCollisionConvexModifier@@MBEXABVdgMatrix@@AAVdgVector@@1@Z 100427e0 f   physics_2009:dgCollisionConvexModifier.obj
 0001:00041ab0       ?CalcAABBSimD@dgCollisionConvexModifier@@MBEXABVdgMatrix@@AAVdgVector@@1@Z 10042ab0 f   physics_2009:dgCollisionConvexModifier.obj
 0001:00041d50       ?SupportVertex@dgCollisionConvexModifier@@MBE?AVdgVector@@ABV2@@Z 10042d50 f   physics_2009:dgCollisionConvexModifier.obj
 0001:00041ed0       ?SupportVertexSimd@dgCollisionConvexModifier@@MBE?AVdgVector@@ABV2@@Z 10042ed0 f   physics_2009:dgCollisionConvexModifier.obj
 0001:00042010       ?CalculatePlaneIntersection@dgCollisionConvexModifier@@EBEHABVdgVector@@0QAV2@@Z 10043010 f   physics_2009:dgCollisionConvexModifier.obj
 0001:00042510       ?RayCast@dgCollisionConvexModifier@@MBEMABVdgVector@@0AAVdgContactPoint@@P6AIPBVdgBody@@PBVdgCollision@@PAX@Z24@Z 10043510 f   physics_2009:dgCollisionConvexModifier.obj
 0001:00042770       ?RayCastSimd@dgCollisionConvexModifier@@MBEMABVdgVector@@0AAVdgContactPoint@@P6AIPBVdgBody@@PBVdgCollision@@PAX@Z24@Z 10043770 f   physics_2009:dgCollisionConvexModifier.obj
 0001:00042940       ?CalculateVolumeIntegral@dgCollisionConvexModifier@@MBE?AVdgVector@@ABVdgMatrix@@P6AIPAX10AAVdgPlane@@@Z1@Z 10043940 f   physics_2009:dgCollisionConvexModifier.obj
 0001:00042d30       ??1dgCompoundCollision@@UAE@XZ 10043d30 f   physics_2009:dgCompoundCollision.obj
 0001:00042d80       ?DebugCollision@dgCompoundCollision@@MBEXABVdgMatrix@@P6AXPAXHPBMH@Z1@Z 10043d80 f   physics_2009:dgCompoundCollision.obj
 0001:00042dc0       ?GetVolume@dgCompoundCollision@@MBEMXZ 10043dc0 f   physics_2009:dgCompoundCollision.obj
 0001:00042e00       ?GetBoxMinRadius@dgCompoundCollision@@MBEMXZ 10043e00 f   physics_2009:dgCompoundCollision.obj
 0001:00042e10       ?GetBoxMaxRadius@dgCompoundCollision@@MBEMXZ 10043e10 f   physics_2009:dgCompoundCollision.obj
 0001:00042e20       ?GetCollisionInfo@dgCompoundCollision@@EBEXPAVdgCollisionInfo@@@Z 10043e20 f   physics_2009:dgCompoundCollision.obj
 0001:00042e60       ?Serialize@dgCompoundCollision@@EBEXP6AXPAXPBXI@Z0@Z 10043e60 f   physics_2009:dgCompoundCollision.obj
 0001:00042ed0       ??_GdgCompoundCollision@@UAEPAXI@Z 10043ed0 f i physics_2009:dgCompoundCollision.obj
 0001:00042ed0       ??_EdgCompoundCollision@@UAEPAXI@Z 10043ed0 f i physics_2009:dgCompoundCollision.obj
 0001:00042ef0       ?CalcAABB@dgCompoundCollision@@MBEXABVdgMatrix@@AAVdgVector@@1@Z 10043ef0 f   physics_2009:dgCompoundCollision.obj
 0001:000430d0       ?Init@dgCompoundCollision@@IAEXHQBQAVdgConvexCollision@@PAVdgWorld@@@Z 100440d0 f   physics_2009:dgCompoundCollision.obj
 0001:000431f0       ?CalcAABBSimD@dgCompoundCollision@@MBEXABVdgMatrix@@AAVdgVector@@1@Z 100441f0 f   physics_2009:dgCompoundCollision.obj
 0001:000434f0       ?RayCastSimd@dgCompoundCollision@@MBEMABVdgVector@@0AAVdgContactPoint@@P6AIPBVdgBody@@PBVdgCollision@@PAX@Z24@Z 100444f0 f   physics_2009:dgCompoundCollision.obj
 0001:00043700       ?CalculateVolumeIntegral@dgCompoundCollision@@MBE?AVdgVector@@ABVdgMatrix@@P6AIPAX10AAVdgPlane@@@Z1@Z 10044700 f   physics_2009:dgCompoundCollision.obj
 0001:000437c0       ?CalculateInertia@dgCompoundCollision@@MBEXAAVdgVector@@0@Z 100447c0 f   physics_2009:dgCompoundCollision.obj
 0001:00043950       ?SupportVertex@dgCompoundCollision@@MBE?AVdgVector@@ABV2@@Z 10044950 f   physics_2009:dgCompoundCollision.obj
 0001:00043ac0       ??0dgCompoundCollision@@QAE@HQBQAVdgConvexCollision@@PAVdgWorld@@@Z 10044ac0 f   physics_2009:dgCompoundCollision.obj
 0001:00043b00       ??0dgCompoundCollision@@QAE@PAVdgWorld@@P6AXPAX1I@Z1@Z 10044b00 f   physics_2009:dgCompoundCollision.obj
 0001:00043bb0       ?RayCast@dgCompoundCollision@@MBEMABVdgVector@@0AAVdgContactPoint@@P6AIPBVdgBody@@PBVdgCollision@@PAX@Z24@Z 10044bb0 f   physics_2009:dgCompoundCollision.obj
 0001:00043de0       ??0dgCollisionUserMesh@@QAE@ABVdgVector@@0ABVdgUserMeshCreation@@@Z 10044de0 f   physics_2009:dgCollisionUserMesh.obj
 0001:00043e50       ?GetCollisionInfo@dgCollisionUserMesh@@EBEXPAVdgCollisionInfo@@@Z 10044e50 f   physics_2009:dgCollisionUserMesh.obj
 0001:00043e90       ?RayCastSimd@dgConvexCollision@@UBEMABVdgVector@@0AAVdgContactPoint@@P6AIPBVdgBody@@PBVdgCollision@@PAX@Z24@Z 10044e90 f   physics_2009:dgConvexCollision.obj
 0001:00043e90       ?RayCastSimd@dgCollisionBox@@MBEMABVdgVector@@0AAVdgContactPoint@@P6AIPBVdgBody@@PBVdgCollision@@PAX@Z24@Z 10044e90 f   physics_2009:dgCollisionBox.obj
 0001:00043e90       ?RayCastSimd@dgCollisionSphere@@MBEMABVdgVector@@0AAVdgContactPoint@@P6AIPBVdgBody@@PBVdgCollision@@PAX@Z24@Z 10044e90 f   physics_2009:dgCollisionSphere.obj
 0001:00043e90       ?RayCastSimd@dgCollisionCapsule@@EBEMABVdgVector@@0AAVdgContactPoint@@P6AIPBVdgBody@@PBVdgCollision@@PAX@Z24@Z 10044e90 f   physics_2009:dgCollisionCapsule.obj
 0001:00043e90       ?RayCastSimd@dgCollisionCylinder@@EBEMABVdgVector@@0AAVdgContactPoint@@P6AIPBVdgBody@@PBVdgCollision@@PAX@Z24@Z 10044e90 f   physics_2009:dgCollisionCylinder.obj
 0001:00043e90       ?RayCastSimd@dgCollisionUserMesh@@EBEMABVdgVector@@0AAVdgContactPoint@@P6AIPBVdgBody@@PBVdgCollision@@PAX@Z24@Z 10044e90 f   physics_2009:dgCollisionUserMesh.obj
 0001:00043ea0       ?GetCollidingFaces@dgCollisionUserMesh@@EBEXQAVdgPolygonMeshDesc@@@Z 10044ea0 f   physics_2009:dgCollisionUserMesh.obj
 0001:00043ed0       ??_GdgCollisionUserMesh@@UAEPAXI@Z 10044ed0 f i physics_2009:dgCollisionUserMesh.obj
 0001:00043ed0       ??_EdgCollisionUserMesh@@UAEPAXI@Z 10044ed0 f i physics_2009:dgCollisionUserMesh.obj
 0001:00043f10       ?GetVertexListIndexList@dgCollisionUserMesh@@UBEXABVdgVector@@0AAVdgGetVertexListIndexList@dgCollisionMesh@@@Z 10044f10 f   physics_2009:dgCollisionUserMesh.obj
 0001:00043f60       ?RayCast@dgCollisionUserMesh@@EBEMABVdgVector@@0AAVdgContactPoint@@P6AIPBVdgBody@@PBVdgCollision@@PAX@Z24@Z 10044f60 f   physics_2009:dgCollisionUserMesh.obj
 0001:000440a0       ??1dgCollisionHeightField@@UAE@XZ 100450a0 f   physics_2009:dgCollisionHeightField.obj
 0001:00044100       ?Serialize@dgCollisionHeightField@@EBEXP6AXPAXPBXI@Z0@Z 10045100 f   physics_2009:dgCollisionHeightField.obj
 0001:000441b0       ?GetCollisionInfo@dgCollisionHeightField@@EBEXPAVdgCollisionInfo@@@Z 100451b0 f   physics_2009:dgCollisionHeightField.obj
 0001:00044220       ?GetCollidingFacesSimd@dgCollisionHeightField@@EBEXQAVdgPolygonMeshDesc@@@Z 10045220 f   physics_2009:dgCollisionHeightField.obj
 0001:00044220       ?GetCollidingFacesSimd@dgCollisionUserMesh@@EBEXQAVdgPolygonMeshDesc@@@Z 10045220 f   physics_2009:dgCollisionUserMesh.obj
 0001:00044220       ?CalculatePlaneIntersectionSimd@dgCollisionConvexModifier@@EBEHABVdgVector@@0QAV2@@Z 10045220 f   physics_2009:dgCollisionConvexModifier.obj
 0001:00044230       ?GetVertexListIndexList@dgCollisionHeightField@@EBEXABVdgVector@@0AAVdgGetVertexListIndexList@dgCollisionMesh@@@Z 10045230 f   physics_2009:dgCollisionHeightField.obj
 0001:00044240       ??_GdgCollisionHeightField@@UAEPAXI@Z 10045240 f i physics_2009:dgCollisionHeightField.obj
 0001:00044240       ??_EdgCollisionHeightField@@UAEPAXI@Z 10045240 f i physics_2009:dgCollisionHeightField.obj
 0001:00044260       ?CalculateMinExtend2d@dgCollisionHeightField@@ABEXABVdgVector@@0AAV2@1@Z 10045260 f   physics_2009:dgCollisionHeightField.obj
 0001:00044410       ?CalculateMinExtend3d@dgCollisionHeightField@@ABEXABVdgVector@@0AAV2@1@Z 10045410 f   physics_2009:dgCollisionHeightField.obj
 0001:00044560       ??0dgCollisionHeightField@@QAE@PAVdgWorld@@HHHPAGPADMM@Z 10045560 f   physics_2009:dgCollisionHeightField.obj
 0001:000447c0       ??0dgCollisionHeightField@@QAE@PAVdgWorld@@P6AXPAX1I@Z1@Z 100457c0 f   physics_2009:dgCollisionHeightField.obj
 0001:00044960       ?RayCastCellSimd@dgCollisionHeightField@@ABEMABVFastRayTest@@HHAAVdgVector@@@Z 10045960 f   physics_2009:dgCollisionHeightField.obj
 0001:00044e70       ?RayCastCell@dgCollisionHeightField@@ABEMABVFastRayTest@@HHAAVdgVector@@@Z 10045e70 f   physics_2009:dgCollisionHeightField.obj
 0001:00045380       ?RayCastSimd@dgCollisionHeightField@@EBEMABVdgVector@@0AAVdgContactPoint@@P6AIPBVdgBody@@PBVdgCollision@@PAX@Z24@Z 10046380 f   physics_2009:dgCollisionHeightField.obj
 0001:000457d0       ?RayCast@dgCollisionHeightField@@EBEMABVdgVector@@0AAVdgContactPoint@@P6AIPBVdgBody@@PBVdgCollision@@PAX@Z24@Z 100467d0 f   physics_2009:dgCollisionHeightField.obj
 0001:00045b40       ?GetCollidingFaces@dgCollisionHeightField@@EBEXQAVdgPolygonMeshDesc@@@Z 10046b40 f   physics_2009:dgCollisionHeightField.obj
 0001:00047160       ?DebugCollision@dgCollisionHeightField@@EBEXABVdgMatrix@@P6AXPAXHPBMH@Z1@Z 10048160 f   physics_2009:dgCollisionHeightField.obj
 0001:000476d0       ?CalcFacePlaneSimd@dgContactSolver@@AAE_NPAVdgMinkFace@1@@Z 100486d0 f i physics_2009:dgMinkowskiConv.obj
 0001:000477e0       ?Pop@?$dgDownHeap@PAVdgMinkFace@dgContactSolver@@M@@QAEXXZ 100487e0 f i physics_2009:dgMinkowskiConv.obj
 0001:00047860       ?Push@?$dgDownHeap@PAVdgMinkFace@dgContactSolver@@M@@QAEXAAPAVdgMinkFace@dgContactSolver@@M@Z 10048860 f i physics_2009:dgMinkowskiConv.obj
 0001:000478b0       ?Pop@?$dgUpHeap@PAUdgPerimenterEdge@dgContactSolver@@M@@QAEXXZ 100488b0 f i physics_2009:dgMinkowskiConv.obj
 0001:000478b0       ?Pop@?$dgUpHeap@HM@@QAEXXZ 100488b0 f i physics_2009:dgConvexCollision.obj
 0001:00047930       ?Remove@?$dgUpHeap@PAUdgPerimenterEdge@dgContactSolver@@M@@QAEXH@Z 10048930 f i physics_2009:dgMinkowskiConv.obj
 0001:000479b0       ??G?$dgTemplateVector@N@@QBE?AV0@ABV0@@Z 100489b0 f i physics_2009:dgMinkowskiConv.obj
 0001:000479e0       ??D?$dgTemplateVector@N@@QBE?AV0@ABV0@@Z 100489e0 f i physics_2009:dgMinkowskiConv.obj
 0001:00047a20       ?CheckTetraHedronVolume@dgContactSolver@@ABE_NXZ 10048a20 f i physics_2009:dgMinkowskiConv.obj
 0001:00047ad0       ?CheckTetraHedronVolumeLarge@dgContactSolver@@ABE_NXZ 10048ad0 f i physics_2009:dgMinkowskiConv.obj
 0001:00047b70       ?FilterPolygonEdgeContacts@dgWorld@@ABEHHQAVdgContactPoint@@@Z 10048b70 f   physics_2009:dgMinkowskiConv.obj
 0001:00047d90       ?Scale@?$dgTemplateVector@N@@QBE?AV1@N@Z 10048d90 f i physics_2009:dgMinkowskiConv.obj
 0001:00047dc0       ??H?$dgTemplateVector@N@@QBE?AV0@ABV0@@Z 10048dc0 f i physics_2009:dgMinkowskiConv.obj
 0001:00047df0       ?CalcSupportVertexSimd@dgContactSolver@@AAEXABVdgVector@@H@Z 10048df0 f i physics_2009:dgMinkowskiConv.obj
 0001:00047f00       ?CalcSupportVertex@dgContactSolver@@AAEXABVdgVector@@H@Z 10048f00 f i physics_2009:dgMinkowskiConv.obj
 0001:00048090       ?CalcSupportVertexLarge@dgContactSolver@@AAEXABVdgVector@@H@Z 10049090 f i physics_2009:dgMinkowskiConv.obj
 0001:00048200       ?CalculateConvexShapeIntersectionLine@dgContactSolver@@ABEHABVdgMatrix@@ABVdgVector@@IMHQAV3@H2QAVdgContactPoint@@@Z 10049200 f i physics_2009:dgMinkowskiConv.obj
 0001:000486a0       ?ReduceContacts@dgContactSolver@@ABEPAUdgPerimenterEdge@1@PAU21@H@Z 100496a0 f i physics_2009:dgMinkowskiConv.obj
 0001:00048870       ?CalculateConvexShapeIntersectionSimd@dgContactSolver@@ABEHABVdgMatrix@@ABVdgVector@@IMHQAV3@H2QAVdgContactPoint@@H@Z 10049870 f i physics_2009:dgMinkowskiConv.obj
 0001:00048d80       ?CalculateConvexShapeIntersection@dgContactSolver@@ABEHABVdgMatrix@@ABVdgVector@@IMHQAV3@H2QAVdgContactPoint@@H@Z 10049d80 f i physics_2009:dgMinkowskiConv.obj
 0001:00049480       ?ReduceLine@dgContactSolver@@AAE?AVdgVector@@ABV2@@Z 1004a480 f i physics_2009:dgMinkowskiConv.obj
 0001:00049600       ?ReduceLineLarge@dgContactSolver@@AAE?AVdgBigVector@@ABV2@@Z 1004a600 f i physics_2009:dgMinkowskiConv.obj
 0001:00049770       ?ReduceTriangle@dgContactSolver@@AAE?AVdgVector@@ABV2@@Z 1004a770 f i physics_2009:dgMinkowskiConv.obj
 0001:00049d50       ?ReduceTriangleLarge@dgContactSolver@@AAE?AVdgBigVector@@ABV2@@Z 1004ad50 f i physics_2009:dgMinkowskiConv.obj
 0001:0004a270       ?ReduceTetrahedrum@dgContactSolver@@AAE?AVdgVector@@ABV2@@Z 1004b270 f i physics_2009:dgMinkowskiConv.obj
 0001:0004a5e0       ?ReduceTetrahedrumLarge@dgContactSolver@@AAE?AVdgBigVector@@ABV2@@Z 1004b5e0 f i physics_2009:dgMinkowskiConv.obj
 0001:0004a8a0       ?UpdateSeparatingPlaneFallbackSolution@dgContactSolver@@AAE?AW4dgMinkReturnCode@1@AAPAVdgMinkFace@1@ABVdgVector@@@Z 1004b8a0 f i physics_2009:dgMinkowskiConv.obj
 0001:0004bfd0       ?UpdateSeparatingPlaneFallbackSolutionLarge@dgContactSolver@@AAE?AW4dgMinkReturnCode@1@AAPAVdgMinkFace@1@ABVdgBigVector@@@Z 1004cfd0 f i physics_2009:dgMinkowskiConv.obj
 0001:0004d410       ?UpdateSeparatingPlaneSimd@dgContactSolver@@AAE?AW4dgMinkReturnCode@1@AAPAVdgMinkFace@1@ABVdgVector@@@Z 1004e410 f i physics_2009:dgMinkowskiConv.obj
 0001:0004dd90       ?UpdateSeparatingPlane@dgContactSolver@@AAE?AW4dgMinkReturnCode@1@AAPAVdgMinkFace@1@ABVdgVector@@@Z 1004ed90 f i physics_2009:dgMinkowskiConv.obj
 0001:0004e600       ?UpdateSeparatingPlaneLarge@dgContactSolver@@AAE?AW4dgMinkReturnCode@1@AAPAVdgMinkFace@1@ABVdgBigVector@@@Z 1004f600 f i physics_2009:dgMinkowskiConv.obj
 0001:0004ebd0       ?CalcSeparatingPlaneSimd@dgContactSolver@@AAE?AW4dgMinkReturnCode@1@AAPAVdgMinkFace@1@ABVdgVector@@@Z 1004fbd0 f i physics_2009:dgMinkowskiConv.obj
 0001:0004f210       ?CalcSeparatingPlane@dgContactSolver@@AAE?AW4dgMinkReturnCode@1@AAPAVdgMinkFace@1@ABVdgVector@@@Z 10050210 f i physics_2009:dgMinkowskiConv.obj
 0001:0004f850       ?CalcSeparatingPlaneLarge@dgContactSolver@@AAE?AW4dgMinkReturnCode@1@AAPAVdgMinkFace@1@ABVdgBigVector@@@Z 10050850 f i physics_2009:dgMinkowskiConv.obj
 0001:0004fdd0       ?CalcFacePlane@dgContactSolver@@AAE_NQAVdgMinkFace@1@@Z 10050dd0 f i physics_2009:dgMinkowskiConv.obj
 0001:0004ff40       ?CalcFacePlaneLarge@dgContactSolver@@AAE_NQAVdgMinkFace@1@@Z 10050f40 f i physics_2009:dgMinkowskiConv.obj
 0001:00050040       ?CalculateVelocities@dgContactSolver@@QAEXM@Z 10051040 f i physics_2009:dgMinkowskiConv.obj
 0001:00050120       ?CalculateVelocitiesSimD@dgContactSolver@@QAEXM@Z 10051120 f i physics_2009:dgMinkowskiConv.obj
 0001:00050220       ?InitConvexCollision@dgWorld@@CAXXZ 10051220 f   physics_2009:dgMinkowskiConv.obj
 0001:00050b70       ?SphereSphereCollision@dgWorld@@ABEHABVdgVector@@M0MAAVdgCollisionParamProxi@@@Z 10051b70 f   physics_2009:dgMinkowskiConv.obj
 0001:00050dc0       ?CalculateSphereToSphereContacts@dgWorld@@ABEHAAVdgCollisionParamProxi@@@Z 10051dc0 f   physics_2009:dgMinkowskiConv.obj
 0001:00050df0       ?CalculateCapsuleToSphereContacts@dgWorld@@ABEHAAVdgCollisionParamProxi@@@Z 10051df0 f   physics_2009:dgMinkowskiConv.obj
 0001:00050f10       ?CalculateCapsuleToCapsuleContacts@dgWorld@@ABEHAAVdgCollisionParamProxi@@@Z 10051f10 f   physics_2009:dgMinkowskiConv.obj
 0001:000519e0       ?CalculatePolySoupToSphereContactsDescrete@dgWorld@@ABEHAAVdgCollisionParamProxi@@@Z 100529e0 f   physics_2009:dgMinkowskiConv.obj
 0001:00051f40       ?CalculatePolySoupToElipseContactsDescrete@dgWorld@@ABEHAAVdgCollisionParamProxi@@@Z 10052f40 f   physics_2009:dgMinkowskiConv.obj
 0001:00052560       ?CalculateClosestPoints@dgContactSolver@@AAEHXZ 10053560 f i physics_2009:dgMinkowskiConv.obj
 0001:000531f0       ?CalculateContactAlternateMethod@dgContactSolver@@AAEHQAVdgMinkFace@1@HQAVdgContactPoint@@H@Z 100541f0 f i physics_2009:dgMinkowskiConv.obj
 0001:000543f0       ?CalculateContactsSimd@dgContactSolver@@AAEHQAVdgMinkFace@1@HQAVdgContactPoint@@H@Z 100553f0 f i physics_2009:dgMinkowskiConv.obj
 0001:000553b0       ?CalculateContacts@dgContactSolver@@AAEHQAVdgMinkFace@1@HQAVdgContactPoint@@H@Z 100563b0 f i physics_2009:dgMinkowskiConv.obj
 0001:000566b0       ?CalculateContactsContinuesSimd@dgContactSolver@@AAEHHQAVdgContactPoint@@HPBVdgVector@@1M@Z 100576b0 f i physics_2009:dgMinkowskiConv.obj
 0001:00056860       ?CalculateContactsContinues@dgContactSolver@@AAEHHQAVdgContactPoint@@HPBVdgVector@@1M@Z 10057860 f i physics_2009:dgMinkowskiConv.obj
 0001:00056b50       ?CalculateClipPlaneSimd@dgContactSolver@@AAEPAVdgMinkFace@1@XZ 10057b50 f i physics_2009:dgMinkowskiConv.obj
 0001:00057750       ?CalculateClipPlane@dgContactSolver@@AAEPAVdgMinkFace@1@XZ 10058750 f i physics_2009:dgMinkowskiConv.obj
 0001:00058350       ?CalculateClipPlaneLarge@dgContactSolver@@AAEPAVdgMinkFace@1@XZ 10059350 f i physics_2009:dgMinkowskiConv.obj
 0001:00058dd0       ??0dgContactSolver@@QAE@AAVdgCollisionParamProxi@@PAVdgCollision@@@Z 10059dd0 f i physics_2009:dgMinkowskiConv.obj
 0001:00058e50       ??0dgContactSolver@@QAE@AAVdgCollisionParamProxi@@@Z 10059e50 f i physics_2009:dgMinkowskiConv.obj
 0001:00058ec0       ?HullHullContactsSimd@dgContactSolver@@QAEHH@Z 10059ec0 f i physics_2009:dgMinkowskiConv.obj
 0001:00059140       ?HullHullContacts@dgContactSolver@@QAEHH@Z 1005a140 f i physics_2009:dgMinkowskiConv.obj
 0001:00059470       ?HullHullContactsLarge@dgContactSolver@@QAEHH@Z 1005a470 f i physics_2009:dgMinkowskiConv.obj
 0001:00059820       ?HullHullContinueContactsSimd@dgContactSolver@@QAEHAAMQAVdgContactPoint@@HHH@Z 1005a820 f i physics_2009:dgMinkowskiConv.obj
 0001:0005a130       ?HullHullContinueContacts@dgContactSolver@@QAEHAAMQAVdgContactPoint@@HHH@Z 1005b130 f i physics_2009:dgMinkowskiConv.obj
 0001:0005aae0       ?ClosestPoint@dgWorld@@ABEHAAVdgCollisionParamProxi@@@Z 1005bae0 f   physics_2009:dgMinkowskiConv.obj
 0001:0005ac90       ?CalculateHullToHullContactsSimd@dgWorld@@ABEHAAVdgCollisionParamProxi@@@Z 1005bc90 f   physics_2009:dgMinkowskiConv.obj
 0001:0005af30       ?CalculateHullToHullContacts@dgWorld@@ABEHAAVdgCollisionParamProxi@@@Z 1005bf30 f   physics_2009:dgMinkowskiConv.obj
 0001:0005b140       ?CalculatePolySoupToSphereContactsContinue@dgWorld@@ABEHAAVdgCollisionParamProxi@@@Z 1005c140 f   physics_2009:dgMinkowskiConv.obj
 0001:0005b630       ?CalculatePolySoupToHullContactsDescreteSimd@dgWorld@@ABEHAAVdgCollisionParamProxi@@@Z 1005c630 f   physics_2009:dgMinkowskiConv.obj
 0001:0005b880       ?CalculatePolySoupToHullContactsDescrete@dgWorld@@ABEHAAVdgCollisionParamProxi@@@Z 1005c880 f   physics_2009:dgMinkowskiConv.obj
 0001:0005bad0       ?CalculateConvexToNonConvexContactsContinueSimd@dgWorld@@ABEHAAVdgCollisionParamProxi@@@Z 1005cad0 f   physics_2009:dgMinkowskiConv.obj
 0001:0005be40       ?CalculateConvexToNonConvexContactsContinue@dgWorld@@ABEHAAVdgCollisionParamProxi@@@Z 1005ce40 f   physics_2009:dgMinkowskiConv.obj
 0001:0005c1b0       ?CalculateConvexToNonConvexContactsSimd@dgWorld@@ABEHAAVdgCollisionParamProxi@@@Z 1005d1b0 f   physics_2009:dgMinkowskiConv.obj
 0001:0005ca90       ?CalculateConvexToNonConvexContacts@dgWorld@@ABEHAAVdgCollisionParamProxi@@@Z 1005da90 f   physics_2009:dgMinkowskiConv.obj
 0001:0005d340       ?CalculateBoxToSphereContacts@dgWorld@@ABEHAAVdgCollisionParamProxi@@@Z 1005e340 f   physics_2009:dgMinkowskiConv.obj
 0001:0005e830       ?CalculateConvexToConvexContactsSimd@dgWorld@@ABEHAAVdgCollisionParamProxi@@@Z 1005f830 f   physics_2009:dgMinkowskiConv.obj
 0001:0005f090       ?CalculateConvexToConvexContacts@dgWorld@@ABEHAAVdgCollisionParamProxi@@@Z 10060090 f   physics_2009:dgMinkowskiConv.obj
 0001:0005f860       ?CalculateSignature@dgCollisionBox@@MBEHXZ 10060860 f   physics_2009:dgCollisionBox.obj
 0001:0005f8f0       ?GetCollisionInfo@dgCollisionBox@@MBEXPAVdgCollisionInfo@@@Z 100608f0 f   physics_2009:dgCollisionBox.obj
 0001:0005f940       ??_EdgCollisionBox@@UAEPAXI@Z 10060940 f i physics_2009:dgCollisionBox.obj
 0001:0005f940       ??_GdgCollisionBox@@UAEPAXI@Z 10060940 f i physics_2009:dgCollisionBox.obj
 0001:0005f980       ?CalcAABB@dgCollisionBox@@MBEXABVdgMatrix@@AAVdgVector@@1@Z 10060980 f   physics_2009:dgCollisionBox.obj
 0001:0005fac0       ?CalcAABBSimD@dgCollisionBox@@MBEXABVdgMatrix@@AAVdgVector@@1@Z 10060ac0 f   physics_2009:dgCollisionBox.obj
 0001:0005fb40       ?CalculatePlaneIntersection@dgCollisionBox@@MBEHABVdgVector@@0QAV2@@Z 10060b40 f   physics_2009:dgCollisionBox.obj
 0001:0005fe20       ?CalculatePlaneIntersectionSimd@dgCollisionBox@@MBEHABVdgVector@@0QAV2@@Z 10060e20 f   physics_2009:dgCollisionBox.obj
 0001:00060140       ?Serialize@dgCollisionBox@@MBEXP6AXPAXPBXI@Z0@Z 10061140 f   physics_2009:dgCollisionBox.obj
 0001:000601d0       ?Init@dgCollisionBox@@IAEXMMM@Z 100611d0 f   physics_2009:dgCollisionBox.obj
 0001:00060690       ?SupportVertex@dgCollisionBox@@MBE?AVdgVector@@ABV2@@Z 10061690 f   physics_2009:dgCollisionBox.obj
 0001:00060690       ?SupportVertexSimd@dgCollisionBox@@MBE?AVdgVector@@ABV2@@Z 10061690 f   physics_2009:dgCollisionBox.obj
 0001:000606f0       ?RayCast@dgCollisionBox@@MBEMABVdgVector@@0AAVdgContactPoint@@P6AIPBVdgBody@@PBVdgCollision@@PAX@Z24@Z 100616f0 f   physics_2009:dgCollisionBox.obj
 0001:00060880       ?CalculateMassProperties@dgCollisionBox@@MBEMAAVdgVector@@00@Z 10061880 f   physics_2009:dgCollisionBox.obj
 0001:00060b90       ??0dgCollisionBox@@QAE@IMMMABVdgMatrix@@@Z 10061b90 f   physics_2009:dgCollisionBox.obj
 0001:00060be0       ??0dgCollisionBox@@QAE@PAVdgWorld@@P6AXPAX1I@Z1@Z 10061be0 f   physics_2009:dgCollisionBox.obj
 0001:00060c40       ??1dgCollision@@MAE@XZ     10061c40 f   physics_2009:dgCollision.obj
 0001:00060c50       ?Quantize@dgCollision@@SAIM@Z 10061c50 f   physics_2009:dgCollision.obj
 0001:00060c80       ?MakeCRC@dgCollision@@SAIPAXH@Z 10061c80 f   physics_2009:dgCollision.obj
 0001:00060ca0       ?CalculateSignature@dgCompoundCollision@@EBEHXZ 10061ca0 f   physics_2009:dgCompoundCollision.obj
 0001:00060ca0       ?GetUserData@dgCollisionMesh@@UBEPAXXZ 10061ca0 f   physics_2009:dgCollisionMesh.obj
 0001:00060ca0       ?GetUserData@dgCollision@@UBEPAXXZ 10061ca0 f   physics_2009:dgCollision.obj
 0001:00060ca0       ?GetPerformanceCount@dgWorld@@CAIXZ 10061ca0 f   physics_2009:dgWorld.obj
 0001:00060ca0       ?CalculateSignature@dgCollisionMesh@@EBEHXZ 10061ca0 f   physics_2009:dgCollisionMesh.obj
 0001:00060ca0       ?CalculateSignature@dgCollisionScene@@EBEHXZ 10061ca0 f   physics_2009:dgCollisionScene.obj
 0001:00060ca0       ?CalculateSignature@dgCollisionConvexModifier@@EBEHXZ 10061ca0 f   physics_2009:dgCollisionConvexModifier.obj
 0001:00060cb0       ?GetCollisionInfo@dgCollision@@UBEXPAVdgCollisionInfo@@@Z 10061cb0 f   physics_2009:dgCollision.obj
 0001:00060cf0       ?SerializeLow@dgCollision@@UBEXP6AXPAXPBXI@Z0@Z 10061cf0 f   physics_2009:dgCollision.obj
 0001:00060d40       ??_EdgCollision@@MAEPAXI@Z 10061d40 f i physics_2009:dgCollision.obj
 0001:00060d40       ??_GdgCollision@@MAEPAXI@Z 10061d40 f i physics_2009:dgCollision.obj
 0001:00060d60       ??0dgCollision@@IAE@IABVdgMatrix@@W4dgCollisionID@@@Z 10061d60 f   physics_2009:dgCollision.obj
 0001:00060db0       ??0dgCollision@@IAE@PAVdgWorld@@P6AXPAX1I@Z1@Z 10061db0 f   physics_2009:dgCollision.obj
 0001:00060e10       ?CalculateSignature@dgCollisionEllipse@@EBEHXZ 10061e10 f   physics_2009:dgCollisionEllipse.obj
 0001:00060ea0       ?CalculateMassProperties@dgCollisionEllipse@@EBEMAAVdgVector@@00@Z 10061ea0 f   physics_2009:dgCollisionEllipse.obj
 0001:00060eb0       ?GetCollisionInfo@dgCollisionEllipse@@EBEXPAVdgCollisionInfo@@@Z 10061eb0 f   physics_2009:dgCollisionEllipse.obj
 0001:00060f00       ?Serialize@dgCollisionEllipse@@EBEXP6AXPAXPBXI@Z0@Z 10061f00 f   physics_2009:dgCollisionEllipse.obj
 0001:00060f30       ??_EdgCollisionEllipse@@UAEPAXI@Z 10061f30 f i physics_2009:dgCollisionEllipse.obj
 0001:00060f30       ??_GdgCollisionEllipse@@UAEPAXI@Z 10061f30 f i physics_2009:dgCollisionEllipse.obj
 0001:00060f60       ?CalcAABB@dgCollisionEllipse@@MBEXABVdgMatrix@@AAVdgVector@@1@Z 10061f60 f   physics_2009:dgCollisionEllipse.obj
 0001:00061080       ??0dgCollisionEllipse@@QAE@IMMMABVdgMatrix@@@Z 10062080 f   physics_2009:dgCollisionEllipse.obj
 0001:00061110       ??0dgCollisionEllipse@@QAE@PAVdgWorld@@P6AXPAX1I@Z1@Z 10062110 f   physics_2009:dgCollisionEllipse.obj
 0001:00061190       ?SupportVertex@dgCollisionEllipse@@MBE?AVdgVector@@ABV2@@Z 10062190 f   physics_2009:dgCollisionEllipse.obj
 0001:00061280       ?SupportVertexSimd@dgCollisionEllipse@@MBE?AVdgVector@@ABV2@@Z 10062280 f   physics_2009:dgCollisionEllipse.obj
 0001:00061340       ?CalculatePlaneIntersectionSimd@dgCollisionEllipse@@EBEHABVdgVector@@0QAV2@@Z 10062340 f   physics_2009:dgCollisionEllipse.obj
 0001:00061340       ?CalculatePlaneIntersection@dgCollisionEllipse@@EBEHABVdgVector@@0QAV2@@Z 10062340 f   physics_2009:dgCollisionEllipse.obj
 0001:000613f0       ?DebugCollision@dgCollisionEllipse@@MBEXABVdgMatrix@@P6AXPAXHPBMH@Z1@Z 100623f0 f   physics_2009:dgCollisionEllipse.obj
 0001:00061690       ?RayCast@dgCollisionEllipse@@MBEMABVdgVector@@0AAVdgContactPoint@@P6AIPBVdgBody@@PBVdgCollision@@PAX@Z24@Z 10062690 f   physics_2009:dgCollisionEllipse.obj
 0001:00061740       ?RayCastSimd@dgCollisionEllipse@@MBEMABVdgVector@@0AAVdgContactPoint@@P6AIPBVdgBody@@PBVdgCollision@@PAX@Z24@Z 10062740 f   physics_2009:dgCollisionEllipse.obj
 0001:000617f0       ?CalculateSignature@dgCollisionCapsule@@EBEHXZ 100627f0 f   physics_2009:dgCollisionCapsule.obj
 0001:00061870       ?GetCollisionInfo@dgCollisionCapsule@@EBEXPAVdgCollisionInfo@@@Z 10062870 f   physics_2009:dgCollisionCapsule.obj
 0001:000618c0       ??_EdgCollisionCapsule@@UAEPAXI@Z 100628c0 f i physics_2009:dgCollisionCapsule.obj
 0001:000618c0       ??_GdgCollisionCapsule@@UAEPAXI@Z 100628c0 f i physics_2009:dgCollisionCapsule.obj
 0001:00061900       ?SupportVertex@dgCollisionCapsule@@EBE?AVdgVector@@ABV2@@Z 10062900 f   physics_2009:dgCollisionCapsule.obj
 0001:00061900       ?SupportVertexSimd@dgCollisionCapsule@@EBE?AVdgVector@@ABV2@@Z 10062900 f   physics_2009:dgCollisionCapsule.obj
 0001:00061970       ?Init@dgCollisionCapsule@@AAEXMM@Z 10062970 f   physics_2009:dgCollisionCapsule.obj
 0001:00061e70       ?TesselateTriangle@dgCollisionCapsule@@ABEXHMABVdgVector@@00AAHPAV2@@Z 10062e70 f   physics_2009:dgCollisionCapsule.obj
 0001:00062250       ?DebugCollision@dgCollisionCapsule@@EBEXABVdgMatrix@@P6AXPAXHPBMH@Z1@Z 10063250 f   physics_2009:dgCollisionCapsule.obj
 0001:00062640       ?RayCast@dgCollisionCapsule@@EBEMABVdgVector@@0AAVdgContactPoint@@P6AIPBVdgBody@@PBVdgCollision@@PAX@Z24@Z 10063640 f   physics_2009:dgCollisionCapsule.obj
 0001:00062ee0       ?CalculateMassProperties@dgCollisionCapsule@@EBEMAAVdgVector@@00@Z 10063ee0 f   physics_2009:dgCollisionCapsule.obj
 0001:000631f0       ?CalculatePlaneIntersection@dgCollisionCapsule@@EBEHABVdgVector@@0QAV2@@Z 100641f0 f   physics_2009:dgCollisionCapsule.obj
 0001:00063a40       ?Serialize@dgCollisionCapsule@@EBEXP6AXPAXPBXI@Z0@Z 10064a40 f   physics_2009:dgCollisionCapsule.obj
 0001:00063aa0       ??0dgCollisionCapsule@@QAE@IMMABVdgMatrix@@@Z 10064aa0 f   physics_2009:dgCollisionCapsule.obj
 0001:00063ae0       ??0dgCollisionCapsule@@QAE@PAVdgWorld@@P6AXPAX1I@Z1@Z 10064ae0 f   physics_2009:dgCollisionCapsule.obj
 0001:00063b40       ?CalculatePlaneIntersectionSimd@dgCollisionCapsule@@EBEHABVdgVector@@0QAV2@@Z 10064b40 f   physics_2009:dgCollisionCapsule.obj
 0001:00063b50       ?CalculateSignature@dgCollisionCone@@EBEHXZ 10064b50 f   physics_2009:dgCollisionCone.obj
 0001:00063bd0       ?DebugCollision@dgCollisionCone@@EBEXABVdgMatrix@@P6AXPAXHPBMH@Z1@Z 10064bd0 f   physics_2009:dgCollisionCone.obj
 0001:00063d80       ?SupportVertexSimd@dgCollisionChamferCylinder@@MBE?AVdgVector@@ABV2@@Z 10064d80 f   physics_2009:dgCollisionChamferCylinder.obj
 0001:00063d80       ?SupportVertexSimd@dgCollisionCone@@EBE?AVdgVector@@ABV2@@Z 10064d80 f   physics_2009:dgCollisionCone.obj
 0001:00063d80       ?SupportVertexSimd@dgCollisionCylinder@@EBE?AVdgVector@@ABV2@@Z 10064d80 f   physics_2009:dgCollisionCylinder.obj
 0001:00063da0       ?GetCollisionInfo@dgCollisionCone@@EBEXPAVdgCollisionInfo@@@Z 10064da0 f   physics_2009:dgCollisionCone.obj
 0001:00063de0       ??_GdgCollisionCone@@UAEPAXI@Z 10064de0 f i physics_2009:dgCollisionCone.obj
 0001:00063de0       ??_EdgCollisionCone@@UAEPAXI@Z 10064de0 f i physics_2009:dgCollisionCone.obj
 0001:00063e20       ?Init@dgCollisionCone@@AAEXMM@Z 10064e20 f   physics_2009:dgCollisionCone.obj
 0001:000640d0       ?SupportVertex@dgCollisionCone@@EBE?AVdgVector@@ABV2@@Z 100650d0 f   physics_2009:dgCollisionCone.obj
 0001:00064180       ?CalculateMassProperties@dgCollisionCone@@EBEMAAVdgVector@@00@Z 10065180 f   physics_2009:dgCollisionCone.obj
 0001:000644c0       ?Serialize@dgCollisionCone@@EBEXP6AXPAXPBXI@Z0@Z 100654c0 f   physics_2009:dgCollisionCone.obj
 0001:00064510       ??0dgCollisionCone@@QAE@IMMABVdgMatrix@@@Z 10065510 f   physics_2009:dgCollisionCone.obj
 0001:00064550       ??0dgCollisionCone@@QAE@PAVdgWorld@@P6AXPAX1I@Z1@Z 10065550 f   physics_2009:dgCollisionCone.obj
 0001:000645b0       ?CalculateSignature@dgCollisionCylinder@@EBEHXZ 100655b0 f   physics_2009:dgCollisionCylinder.obj
 0001:00064630       ?DebugCollision@dgCollisionCylinder@@EBEXABVdgMatrix@@P6AXPAXHPBMH@Z1@Z 10065630 f   physics_2009:dgCollisionCylinder.obj
 0001:00064810       ?GetCollisionInfo@dgCollisionCylinder@@EBEXPAVdgCollisionInfo@@@Z 10065810 f   physics_2009:dgCollisionCylinder.obj
 0001:00064860       ??_GdgCollisionCylinder@@UAEPAXI@Z 10065860 f i physics_2009:dgCollisionCylinder.obj
 0001:00064860       ??_EdgCollisionCylinder@@UAEPAXI@Z 10065860 f i physics_2009:dgCollisionCylinder.obj
 0001:000648a0       ?Init@dgCollisionCylinder@@AAEXMM@Z 100658a0 f   physics_2009:dgCollisionCylinder.obj
 0001:00064b40       ?SupportVertex@dgCollisionCylinder@@EBE?AVdgVector@@ABV2@@Z 10065b40 f   physics_2009:dgCollisionCylinder.obj
 0001:00064bd0       ?CalculateMassProperties@dgCollisionCylinder@@EBEMAAVdgVector@@00@Z 10065bd0 f   physics_2009:dgCollisionCylinder.obj
 0001:00064ec0       ?CalculatePlaneIntersection@dgCollisionCone@@EBEHABVdgVector@@0QAV2@@Z 10065ec0 f   physics_2009:dgCollisionCone.obj
 0001:00064ec0       ?CalculatePlaneIntersection@dgCollisionCylinder@@EBEHABVdgVector@@0QAV2@@Z 10065ec0 f   physics_2009:dgCollisionCylinder.obj
 0001:000650a0       ?CalculatePlaneIntersectionSimd@dgCollisionCone@@EBEHABVdgVector@@0QAV2@@Z 100660a0 f   physics_2009:dgCollisionCone.obj
 0001:000650a0       ?CalculatePlaneIntersectionSimd@dgCollisionCylinder@@EBEHABVdgVector@@0QAV2@@Z 100660a0 f   physics_2009:dgCollisionCylinder.obj
 0001:000652a0       ?RayCast@dgCollisionCylinder@@EBEMABVdgVector@@0AAVdgContactPoint@@P6AIPBVdgBody@@PBVdgCollision@@PAX@Z24@Z 100662a0 f   physics_2009:dgCollisionCylinder.obj
 0001:000657c0       ?Serialize@dgCollisionCylinder@@EBEXP6AXPAXPBXI@Z0@Z 100667c0 f   physics_2009:dgCollisionCylinder.obj
 0001:00065830       ??0dgCollisionCylinder@@QAE@IMMABVdgMatrix@@@Z 10066830 f   physics_2009:dgCollisionCylinder.obj
 0001:00065870       ??0dgCollisionCylinder@@QAE@PAVdgWorld@@P6AXPAX1I@Z1@Z 10066870 f   physics_2009:dgCollisionCylinder.obj
 0001:000658d0       ?CalculateSignature@dgCollisionChamferCylinder@@MBEHXZ 100668d0 f   physics_2009:dgCollisionChamferCylinder.obj
 0001:00065950       ?GetCollisionInfo@dgCollisionChamferCylinder@@MBEXPAVdgCollisionInfo@@@Z 10066950 f   physics_2009:dgCollisionChamferCylinder.obj
 0001:000659a0       ??_GdgCollisionChamferCylinder@@UAEPAXI@Z 100669a0 f i physics_2009:dgCollisionChamferCylinder.obj
 0001:000659a0       ??_EdgCollisionChamferCylinder@@UAEPAXI@Z 100669a0 f i physics_2009:dgCollisionChamferCylinder.obj
 0001:000659e0       ?Init@dgCollisionChamferCylinder@@IAEXMM@Z 100669e0 f   physics_2009:dgCollisionChamferCylinder.obj
 0001:00065ee0       ?DebugCollision@dgCollisionChamferCylinder@@MBEXABVdgMatrix@@P6AXPAXHPBMH@Z1@Z 10066ee0 f   physics_2009:dgCollisionChamferCylinder.obj
 0001:00066530       ?SupportVertex@dgCollisionChamferCylinder@@MBE?AVdgVector@@ABV2@@Z 10067530 f   physics_2009:dgCollisionChamferCylinder.obj
 0001:00066630       ?RayCast@dgCollisionChamferCylinder@@MBEMABVdgVector@@0AAVdgContactPoint@@P6AIPBVdgBody@@PBVdgCollision@@PAX@Z24@Z 10067630 f   physics_2009:dgCollisionChamferCylinder.obj
 0001:000667e0       ?RayCastSimd@dgCollisionChamferCylinder@@MBEMABVdgVector@@0AAVdgContactPoint@@P6AIPBVdgBody@@PBVdgCollision@@PAX@Z24@Z 100677e0 f   physics_2009:dgCollisionChamferCylinder.obj
 0001:00066990       ?CalculatePlaneIntersection@dgCollisionChamferCylinder@@MBEHABVdgVector@@0QAV2@@Z 10067990 f   physics_2009:dgCollisionChamferCylinder.obj
 0001:00067170       ?Serialize@dgCollisionChamferCylinder@@MBEXP6AXPAXPBXI@Z0@Z 10068170 f   physics_2009:dgCollisionChamferCylinder.obj
 0001:000671d0       ??0dgCollisionChamferCylinder@@QAE@IMMABVdgMatrix@@@Z 100681d0 f   physics_2009:dgCollisionChamferCylinder.obj
 0001:00067210       ??0dgCollisionChamferCylinder@@QAE@PAVdgWorld@@P6AXPAX1I@Z1@Z 10068210 f   physics_2009:dgCollisionChamferCylinder.obj
 0001:00067270       ?CalculatePlaneIntersectionSimd@dgCollisionChamferCylinder@@MBEHABVdgVector@@0QAV2@@Z 10068270 f   physics_2009:dgCollisionChamferCylinder.obj
 0001:00067280       ?Malloc@dgMemoryAllocator@@QAEPAXH@Z 10068280 f i corelib_2009:dgMemory.obj
 0001:000673c0       ?Free@dgMemoryAllocator@@QAEXPAX@Z 100683c0 f i corelib_2009:dgMemory.obj
 0001:000674c0       ?DefaultAllocMemory@Newton@@SAPAXH@Z 100684c0 f i NewtonClass.obj
 0001:000674c0       ?__malloc__@dgMemoryAllocator@@CAPAXI@Z 100684c0 f i corelib_2009:dgMemory.obj
 0001:000674d0       ?DefaultFreeMemory@Newton@@SAXPAXH@Z 100684d0 f i NewtonClass.obj
 0001:000674d0       ?__free__@dgMemoryAllocator@@CAXPAXI@Z 100684d0 f i corelib_2009:dgMemory.obj
 0001:000674e0       ?dgSetMemoryDrivers@@YAXP6APAXI@ZP6AXPAXI@Z@Z 100684e0 f   corelib_2009:dgMemory.obj
 0001:00067500       ?dgGetMemoryUsed@@YAHXZ    10068500 f   corelib_2009:dgMemory.obj
 0001:00067510       ?dgMallocStack@@YAPAXI@Z   10068510 f   corelib_2009:dgMemory.obj
 0001:00067540       ?dgFreeStack@@YAXPAX@Z     10068540 f   corelib_2009:dgMemory.obj
 0001:00067560       ?dgMalloc@@YAPAXI@Z        10068560 f   corelib_2009:dgMemory.obj
 0001:00067580       ?dgFree@@YAXPAX@Z          10068580 f   corelib_2009:dgMemory.obj
 0001:000675a0       ?dgCRC@@YAIPBXHI@Z         100685a0 f   corelib_2009:dgCRC.obj
 0001:000675e0       ?TransformTriplex@dgMatrix@@QBEXQAXHQBXHH@Z 100685e0 f   corelib_2009:dgMatrix.obj
 0001:000678d0       ?dgGetIdentityMatrix@@YAABVdgMatrix@@XZ 100688d0 f   corelib_2009:dgMatrix.obj
 0001:000679e0       ??0dgMatrix@@QAE@ABVdgQuaternion@@ABVdgVector@@@Z 100689e0 f   corelib_2009:dgMatrix.obj
 0001:00067b60       ??DdgMatrix@@QBE?AV0@ABV0@@Z 10068b60 f   corelib_2009:dgMatrix.obj
 0001:00067e00       ?Symetric3by3Inverse@dgMatrix@@QBE?AV1@XZ 10068e00 f   corelib_2009:dgMatrix.obj
 0001:00067f80       ?CalcPitchYawRoll@dgMatrix@@QBE?AVdgVector@@XZ 10068f80 f   corelib_2009:dgMatrix.obj
 0001:00068080       ?dgAbsf@@YAMM@Z            10069080 f   corelib_2009:dgTypes.obj
 0001:00068090       ?dgSqrt@@YAMM@Z            10069090 f   corelib_2009:dgTypes.obj
 0001:000680a0       ?dgSin@@YAMM@Z             100690a0 f   corelib_2009:dgTypes.obj
 0001:000680b0       ?dgCos@@YAMM@Z             100690b0 f   corelib_2009:dgTypes.obj
 0001:000680c0       ?dgAsin@@YAMM@Z            100690c0 f   corelib_2009:dgTypes.obj
 0001:000680e0       ?dgAcos@@YAMM@Z            100690e0 f   corelib_2009:dgTypes.obj
 0001:00068100       ?dgAtan2@@YAMMM@Z          10069100 f   corelib_2009:dgTypes.obj
 0001:00068120       ?dgFloor@@YAMM@Z           10069120 f   corelib_2009:dgTypes.obj
 0001:00068160       ?dgFastInt@@YAHM@Z         10069160 f   corelib_2009:dgTypes.obj
 0001:00068220       ?dgGetCpuType@@YA?AW4dgCpuClass@@XZ 10069220 f   corelib_2009:dgTypes.obj
 0001:00068240       ?GetMinMax@@YAXAAVdgVector@@0QBMHH@Z 10069240 f   corelib_2009:dgTypes.obj
 0001:00069880       ?dgVertexListToIndexList@@YAHQAMHHHHQAHM@Z 1006a880 f   corelib_2009:dgTypes.obj
 0001:00069a00       ?Minimum@dgRedBackNode@@QBEPAV1@XZ 1006aa00 f   corelib_2009:dgTree.obj
 0001:00069a20       ?Next@dgRedBackNode@@QBEPAV1@XZ 1006aa20 f   corelib_2009:dgTree.obj
 0001:00069a50       ?InsertFixup@dgRedBackNode@@QAEXPAPAV1@@Z 1006aa50 f   corelib_2009:dgTree.obj
 0001:00069c20       ?RemoveFixup@dgRedBackNode@@QAEXPAV1@PAPAV1@@Z 1006ac20 f   corelib_2009:dgTree.obj
 0001:00069ed0       ?Unlink@dgRedBackNode@@QAEXPAPAV1@@Z 1006aed0 f   corelib_2009:dgTree.obj
 0001:00069fd0       ?RemoveAllLow@dgRedBackNode@@QAEXXZ 1006afd0 f   corelib_2009:dgTree.obj
 0001:0006a000       ?RemoveAll@dgRedBackNode@@QAEXXZ 1006b000 f   corelib_2009:dgTree.obj
 0001:0006a040       ?Remove@dgRedBackNode@@QAEXPAPAV1@@Z 1006b040 f   corelib_2009:dgTree.obj
 0001:0006a060       ??0dgThreads@@QAE@XZ       1006b060 f   corelib_2009:dgThreads.obj
 0001:0006a130       ?GetThreadCount@dgThreads@@QBEHXZ 1006b130 f   corelib_2009:dgThreads.obj
 0001:0006a140       ?DestroydgThreads@dgThreads@@QAEXXZ 1006b140 f   corelib_2009:dgThreads.obj
 0001:0006a210       ?SubmitJob@dgThreads@@QAEHPAVdgWorkerThread@@@Z 1006b210 f   corelib_2009:dgThreads.obj
 0001:0006a2a0       ?GetWork@dgThreads@@AAEHPAPAVdgWorkerThread@@@Z 1006b2a0 f   corelib_2009:dgThreads.obj
 0001:0006a320       ?DoWork@dgThreads@@AAEXXZ  1006b320 f   corelib_2009:dgThreads.obj
 0001:0006a370       ?SynchronizationBarrier@dgThreads@@QAEXXZ 1006b370 f   corelib_2009:dgThreads.obj
 0001:0006a390       ?CalculateChunkSizes@dgThreads@@QBEXHQAH@Z 1006b390 f   corelib_2009:dgThreads.obj
 0001:0006a3e0       ?dgGetLock@dgThreads@@QAEXXZ 1006b3e0 f   corelib_2009:dgThreads.obj
 0001:0006a420       ?dgReleaseLock@dgThreads@@QAEXXZ 1006b420 f   corelib_2009:dgThreads.obj
 0001:0006a430       ?dgGetIndirectLock@dgThreads@@QAEXPAH@Z 1006b430 f   corelib_2009:dgThreads.obj
 0001:0006a470       ?dgReleaseIndirectLock@dgThreads@@QAEXPAH@Z 1006b470 f   corelib_2009:dgThreads.obj
 0001:0006a480       ??1dgThreads@@QAE@XZ       1006b480 f   corelib_2009:dgThreads.obj
 0001:0006a490       ?ThreadExecute@dgThreads@@CGIPAX@Z 1006b490 f   corelib_2009:dgThreads.obj
 0001:0006a4b0       ?CreateThreaded@dgThreads@@QAEXH@Z 1006b4b0 f   corelib_2009:dgThreads.obj
 0001:0006a560       ??0VERTEX_METRIC_STRUCT@InternalPolyhedra@@QAE@ABVdgBigPlane@@@Z 1006b560 f i corelib_2009:dgPolyhedra.obj
 0001:0006a5d0       ?Accumulate@VERTEX_METRIC_STRUCT@InternalPolyhedra@@QAEXAAVdgBigPlane@@@Z 1006b5d0 f i corelib_2009:dgPolyhedra.obj
 0001:0006a660       ?Pop@?$dgDownHeap@PAVdgEdge@@M@@QAEXXZ 1006b660 f i corelib_2009:dgPolyhedra.obj
 0001:0006a6e0       ?Push@?$dgDownHeap@PAVdgEdge@@M@@QAEXAAPAVdgEdge@@M@Z 1006b6e0 f i corelib_2009:dgPolyhedra.obj
 0001:0006a730       ?Pop@?$dgDownHeap@PAVdgListNode@?$dgList@UEDGE_HANDLE@InternalPolyhedra@@@@N@@QAEXXZ 1006b730 f i corelib_2009:dgPolyhedra.obj
 0001:0006a7d0       ?Push@?$dgDownHeap@PAVdgListNode@?$dgList@UEDGE_HANDLE@InternalPolyhedra@@@@N@@QAEXAAPAVdgListNode@?$dgList@UEDGE_HANDLE@InternalPolyhedra@@@@N@Z 1006b7d0 f i corelib_2009:dgPolyhedra.obj
 0001:0006af70       ?DeleteEdge@dgPolyhedra@@QAEXPAVdgEdge@@@Z 1006bf70 f   corelib_2009:dgPolyhedra.obj
 0001:0006aff0       ?FaceNormal@dgPolyhedra@@QBE?AVdgVector@@PAVdgEdge@@QBMH@Z 1006bff0 f   corelib_2009:dgPolyhedra.obj
 0001:0006b040       ?Find@?$dgTree@VdgEdge@@_J@@QBEPAVdgTreeNode@1@_J@Z 1006c040 f i corelib_2009:dgPolyhedra.obj
 0001:0006b080       ?Addtop@?$dgList@UEDGE_HANDLE@InternalPolyhedra@@@@QAEPAVdgListNode@1@ABUEDGE_HANDLE@InternalPolyhedra@@@Z 1006c080 f i corelib_2009:dgPolyhedra.obj
 0001:0006b130       ?Insert@?$dgTree@VdgEdge@@_J@@QAEPAVdgTreeNode@1@PAV21@_J@Z 1006c130 f i corelib_2009:dgPolyhedra.obj
 0001:0006b1f0       ?RemoveAll@?$dgList@UEDGE_HANDLE@InternalPolyhedra@@@@QAEXXZ 1006c1f0 f i corelib_2009:dgPolyhedra.obj
 0001:0006bc40       ??0dgPolyhedra@@QAE@XZ     1006cc40 f   corelib_2009:dgPolyhedra.obj
 0001:0006bc60       ??1dgPolyhedra@@UAE@XZ     1006cc60 f   corelib_2009:dgPolyhedra.obj
 0001:0006bc90       ?DeleteFace@dgPolyhedra@@QAEXPAVdgEdge@@@Z 1006cc90 f   corelib_2009:dgPolyhedra.obj
 0001:0006bd00       ?DeleteDegenerateFaces@dgPolyhedra@@QAEXQBMHM@Z 1006cd00 f   corelib_2009:dgPolyhedra.obj
 0001:0006be30       ?SwapInfo@dgPolyhedra@@QAEXAAV1@@Z 1006ce30 f   corelib_2009:dgPolyhedra.obj
 0001:0006be80       ?RemoveAll@?$dgList@PAVdgEdge@@@@QAEXXZ 1006ce80 f i corelib_2009:dgPolyhedra.obj
 0001:0006be80       ?RemoveAll@?$dgList@PAVdgContact@@@@QAEXXZ 1006ce80 f i physics_2009:dgWorld.obj
 0001:0006c6d0       ?Update@dgPolyhedraDescriptor@@QAEXABVdgPolyhedra@@@Z 1006d6d0 f   corelib_2009:dgPolyhedra.obj
 0001:0006c810       ??_EdgPolyhedra@@UAEPAXI@Z 1006d810 f i corelib_2009:dgPolyhedra.obj
 0001:0006c810       ??_GdgPolyhedra@@UAEPAXI@Z 1006d810 f i corelib_2009:dgPolyhedra.obj
 0001:0006c850       ?CollapseEdge@dgPolyhedra@@AAEPAVdgEdge@@PAV2@@Z 1006d850 f   corelib_2009:dgPolyhedra.obj
 0001:0006cc50       ?ChangeEdgeIncidentVertex@dgPolyhedra@@QAEXPAVdgEdge@@H@Z 1006dc50 f   corelib_2009:dgPolyhedra.obj
 0001:0006cd20       ?Insert@?$dgTree@VdgEdge@@_J@@QAEPAVdgTreeNode@1@ABVdgEdge@@_JAA_N@Z 1006dd20 f i corelib_2009:dgPolyhedra.obj
 0001:0006cf60       ?EndFace@dgPolyhedra@@QAEXXZ 1006df60 f   corelib_2009:dgPolyhedra.obj
 0001:0006cf80       ?AddFace@dgPolyhedra@@QAEPAVdgEdge@@HQBHQB_J@Z 1006df80 f   corelib_2009:dgPolyhedra.obj
 0001:0006d220       ?Optimize@dgPolyhedra@@QAEXQBMHM@Z 1006e220 f   corelib_2009:dgPolyhedra.obj
 0001:0006da10       ??0dgPolyhedra@@QAE@ABV0@@Z 1006ea10 f   corelib_2009:dgPolyhedra.obj
 0001:0006db50       ?AddFace@dgPolyhedra@@QAEPAVdgEdge@@HQBH@Z 1006eb50 f   corelib_2009:dgPolyhedra.obj
 0001:0006dba0       ?AddFace@dgPolyhedra@@QAEPAVdgEdge@@HHH@Z 1006eba0 f   corelib_2009:dgPolyhedra.obj
 0001:0006dbf0       ?AddHalfEdge@dgPolyhedra@@QAEPAVdgEdge@@HH@Z 1006ebf0 f   corelib_2009:dgPolyhedra.obj
 0001:0006dc80       ?SpliteEdge@dgPolyhedra@@QAEXHPAVdgEdge@@@Z 1006ec80 f   corelib_2009:dgPolyhedra.obj
 0001:0006dd70       ?SpliteEdgeAndTriangulate@dgPolyhedra@@QAEXHPAVdgEdge@@@Z 1006ed70 f   corelib_2009:dgPolyhedra.obj
 0001:0006de50       ?GetConectedSurface@dgPolyhedra@@QBE_NAAV1@@Z 1006ee50 f   corelib_2009:dgPolyhedra.obj
 0001:0006ef60       ?TriangulateFace@dgPolyhedra@@QAE_NPAVdgEdge@@QBMHAAVdgVector@@@Z 1006ff60 f   corelib_2009:dgPolyhedra.obj
 0001:0006efe0       ?Triangulate@dgPolyhedra@@QAEXQBMHPAV1@@Z 1006ffe0 f   corelib_2009:dgPolyhedra.obj
 0001:0006f1a0       ?ConvexPartition@dgPolyhedra@@QAEXQBMHPAV1@@Z 100701a0 f   corelib_2009:dgPolyhedra.obj
 0001:0006f210       ??0dgStackBase@@IAE@H@Z    10070210 f   corelib_2009:dgStack.obj
 0001:0006f230       ??1dgStackBase@@IAE@XZ     10070230 f   corelib_2009:dgStack.obj
 0001:0006f240       ?ForAllSectorsSimd@dgPolygonSoupDatabase@@MBEXABVdgVector@@0P6A?AW4dgIntersectStatus@@PAXQBMHQBHH@ZQAX@Z 10070240 f i corelib_2009:dgAABBPolygonSoup.obj
 0001:0006f240       ?ForAllSectors@dgPolygonSoupDatabase@@MBEXABVdgVector@@0P6A?AW4dgIntersectStatus@@PAXQBMHQBHH@ZQAX@Z 10070240 f i corelib_2009:dgAABBPolygonSoup.obj
 0001:0006f250       ?DebugCollision@dgCollisionMesh@@EBEXABVdgMatrix@@P6AXPAXHPBMH@Z1@Z 10070250 f i physics_2009:dgCollisionMesh.obj
 0001:0006f250       ?SpliteAcrossPlane@dgConvexCollision@@IBEXABVdgPlane@@PAPAVdgCollisionConvexHull@@1@Z 10070250 f i physics_2009:dgConvexCollision.obj
 0001:0006f250       ?ForAllSectorsRayHit@dgPolygonSoupDatabase@@MBEXABVFastRayTest@@P6AMPAXQBMHQBHH@ZQAX@Z 10070250 f i corelib_2009:dgAABBPolygonSoup.obj
 0001:0006f250       ?ForAllSectorsRayHitSimd@dgPolygonSoupDatabase@@MBEXABVFastRayTest@@P6AMPAXQBMHQBHH@ZQAX@Z 10070250 f i corelib_2009:dgAABBPolygonSoup.obj
 0001:0006f250       ?DebugCollision@dgCollisionNull@@MBEXABVdgMatrix@@P6AXPAXHPBMH@Z1@Z 10070250 f i physics_2009:dgCollisionNull.obj
 0001:0006f250       ?DebugCollision@dgCollisionUserMesh@@EBEXABVdgMatrix@@P6AXPAXHPBMH@Z1@Z 10070250 f i physics_2009:dgCollisionUserMesh.obj
 0001:0006f260       ?ForAllSectorsSimd@dgAABBTree@@QBEXQBHQBMABVdgVector@@2P6A?AW4dgIntersectStatus@@PAX1H0H@Z3@Z 10070260 f i corelib_2009:dgAABBPolygonSoup.obj
 0001:0006f4a0       ?ForAllSectors@dgAABBTree@@QBEXQBHQBMABVdgVector@@2P6A?AW4dgIntersectStatus@@PAX1H0H@Z3@Z 100704a0 f i corelib_2009:dgAABBPolygonSoup.obj
 0001:0006f780       ?CompareBox@dgAABBTree@@CAHQBV1@0PAX@Z 10070780 f i corelib_2009:dgAABBPolygonSoup.obj
 0001:0006f7e0       ??0dgAABBPolygonSoup@@IAE@XZ 100707e0 f   corelib_2009:dgAABBPolygonSoup.obj
 0001:0006f800       ??1dgAABBPolygonSoup@@MAE@XZ 10070800 f   corelib_2009:dgAABBPolygonSoup.obj
 0001:0006f840       ?ForAllSectorsSimd@dgAABBPolygonSoup@@MBEXABVdgVector@@0P6A?AW4dgIntersectStatus@@PAXQBMHQBHH@ZQAX@Z 10070840 f   corelib_2009:dgAABBPolygonSoup.obj
 0001:0006f870       ?ForAllSectors@dgAABBPolygonSoup@@MBEXABVdgVector@@0P6A?AW4dgIntersectStatus@@PAXQBMHQBHH@ZQAX@Z 10070870 f   corelib_2009:dgAABBPolygonSoup.obj
 0001:0006f8a0       ?Serialize@dgAABBPolygonSoup@@UBEXP6AXPAXPBXI@Z0@Z 100708a0 f   corelib_2009:dgAABBPolygonSoup.obj
 0001:0006f920       ?Deserialize@dgAABBPolygonSoup@@UAEXP6AXPAX0I@Z0@Z 10070920 f   corelib_2009:dgAABBPolygonSoup.obj
 0001:0006f9f0       ??$dgSort@VdgAABBTree@@@@YAXQAVdgAABBTree@@HP6AHQBV0@1PAX@Z2@Z 100709f0 f i corelib_2009:dgAABBPolygonSoup.obj
 0001:0006fc60       ?Resize@?$dgArray@VdgTriplex@@@@QBEXH@Z 10070c60 f i corelib_2009:dgAABBPolygonSoup.obj
 0001:0006fd50       ?Resize@?$dgArray@H@@QBEXH@Z 10070d50 f i corelib_2009:dgAABBPolygonSoup.obj
 0001:0006fe00       ??_GdgPolygonSoupDatabase@@MAEPAXI@Z 10070e00 f i corelib_2009:dgAABBPolygonSoup.obj
 0001:0006fe00       ??_EdgPolygonSoupDatabase@@MAEPAXI@Z 10070e00 f i corelib_2009:dgAABBPolygonSoup.obj
 0001:0006fe30       ?CalcExtends@dgAABBTree@@QAEXQAVdgTriplex@@HQBH@Z 10070e30 f i corelib_2009:dgAABBPolygonSoup.obj
 0001:000703f0       ?ForAllSectorsRayHitSimd@dgAABBTree@@QBEXABVFastRayTest@@PBHPBMP6AMPAXQBMHQBHH@ZQAX@Z 100713f0 f i corelib_2009:dgAABBPolygonSoup.obj
 0001:00070730       ?ForAllSectorsRayHit@dgAABBTree@@QBEXABVFastRayTest@@PBHPBMP6AMPAXQBMHQBHH@ZQAX@Z 10071730 f i corelib_2009:dgAABBPolygonSoup.obj
 0001:00070ac0       ?ForAllSectorsSupportVertex@dgAABBTree@@QBE?AVdgVector@@ABV2@QBHQBM@Z 10071ac0 f i corelib_2009:dgAABBPolygonSoup.obj
 0001:000712f0       ?CalcBoxFromBoxArray@dgAABBTree@@AAEXQBV1@HPAVdgTriplex@@AAH@Z 100722f0 f i corelib_2009:dgAABBPolygonSoup.obj
 0001:000719b0       ?GetAxis@dgAABBTree@@ABEHQBV1@HQBVdgTriplex@@@Z 100729b0 f i corelib_2009:dgAABBPolygonSoup.obj
 0001:00071ff0       ?SpliteBoxArray@dgAABBTree@@ABEHQAV1@HQBVdgTriplex@@@Z 10072ff0 f i corelib_2009:dgAABBPolygonSoup.obj
 0001:00072330       ??_GdgAABBPolygonSoup@@MAEPAXI@Z 10073330 f i corelib_2009:dgAABBPolygonSoup.obj
 0001:00072330       ??_EdgAABBPolygonSoup@@MAEPAXI@Z 10073330 f i corelib_2009:dgAABBPolygonSoup.obj
 0001:00072380       ?ForAllSectorsSupportVectex@dgAABBPolygonSoup@@MBE?AVdgVector@@ABV2@@Z 10073380 f   corelib_2009:dgAABBPolygonSoup.obj
 0001:000723c0       ?GetAABB@dgAABBPolygonSoup@@UBEXAAVdgVector@@0@Z 100733c0 f   corelib_2009:dgAABBPolygonSoup.obj
 0001:000724b0       ?ForAllSectorsRayHit@dgAABBPolygonSoup@@MBEXABVFastRayTest@@P6AMPAXQBMHQBHH@ZQAX@Z 100734b0 f   corelib_2009:dgAABBPolygonSoup.obj
 0001:000724e0       ?ForAllSectorsRayHitSimd@dgAABBPolygonSoup@@MBEXABVFastRayTest@@P6AMPAXQBMHQBHH@ZQAX@Z 100734e0 f   corelib_2009:dgAABBPolygonSoup.obj
 0001:00072510       ?CollectMyFaces@dgAABBPolygonSoup@@CA?AW4dgIntersectStatus@@PAXQBMHQBHH@Z 10073510 f   corelib_2009:dgAABBPolygonSoup.obj
 0001:000726b0       ?Build@dgAABBTree@@QAEXPAV1@QAV1@QBV1@HPBV1@AAHQAVdgTriplex@@4@Z 100736b0 f i corelib_2009:dgAABBPolygonSoup.obj
 0001:000727d0       ?CollectAllFaces@dgAABBPolygonSoup@@CA?AW4dgIntersectStatus@@PAXQBMHQBHH@Z 100737d0 f   corelib_2009:dgAABBPolygonSoup.obj
 0001:00072e70       ?Create@dgAABBPolygonSoup@@IAEXABVdgPolygonSoupDatabaseBuilder@@@Z 10073e70 f   corelib_2009:dgAABBPolygonSoup.obj
 0001:00073390       ?AddFilterFace@dgPolySoupFilterAllocator@@QAEHIQAH@Z 10074390 f i corelib_2009:dgPolygonSoupBuilder.obj
 0001:00073440       ?Begin@dgPolygonSoupDatabaseBuilder@@QAEXXZ 10074440 f   corelib_2009:dgPolygonSoupBuilder.obj
 0001:00073450       ??_GdgPolySoupFilterAllocator@@UAEPAXI@Z 10074450 f i corelib_2009:dgPolygonSoupBuilder.obj
 0001:00073450       ??_EdgPolySoupFilterAllocator@@UAEPAXI@Z 10074450 f i corelib_2009:dgPolygonSoupBuilder.obj
 0001:00073480       ??1dgPolygonSoupDatabaseBuilder@@QAE@XZ 10074480 f   corelib_2009:dgPolygonSoupBuilder.obj
 0001:000734e0       ??A?$dgArray@VdgTriplex@@@@QAEAAVdgTriplex@@H@Z 100744e0 f i corelib_2009:dgPolygonSoupBuilder.obj
 0001:00073510       ??0dgPolygonSoupDatabaseBuilder@@QAE@XZ 10074510 f   corelib_2009:dgPolygonSoupBuilder.obj
 0001:00073560       ?FilterFace@dgPolygonSoupDatabaseBuilder@@AAEHHQAH@Z 10074560 f   corelib_2009:dgPolygonSoupBuilder.obj
 0001:00073f00       ?AddConvexFace@dgPolygonSoupDatabaseBuilder@@AAEHHQAH0@Z 10074f00 f   corelib_2009:dgPolygonSoupBuilder.obj
 0001:00074990       ?AddMesh@dgPolygonSoupDatabaseBuilder@@QAEXQBMHHHQBH11ABVdgMatrix@@@Z 10075990 f   corelib_2009:dgPolygonSoupBuilder.obj
 0001:00074c60       ?OptimizeByGroupID@dgPolygonSoupDatabaseBuilder@@AAEXAAV1@HH0@Z 10075c60 f   corelib_2009:dgPolygonSoupBuilder.obj
 0001:00075120       ?OptimizeByIndividualFaces@dgPolygonSoupDatabaseBuilder@@AAEXXZ 10076120 f   corelib_2009:dgPolygonSoupBuilder.obj
 0001:00075260       ?Insert@?$dgTree@HH@@QAEPAVdgTreeNode@1@ABHHAA_N@Z 10076260 f i corelib_2009:dgPolygonSoupBuilder.obj
 0001:00075330       ?OptimizeByGroupID@dgPolygonSoupDatabaseBuilder@@AAEXXZ 10076330 f   corelib_2009:dgPolygonSoupBuilder.obj
 0001:00075a90       ?EndAndOptimize@dgPolygonSoupDatabaseBuilder@@AAEX_N@Z 10076a90 f   corelib_2009:dgPolygonSoupBuilder.obj
 0001:00075bc0       ?End@dgPolygonSoupDatabaseBuilder@@QAEX_N@Z 10076bc0 f   corelib_2009:dgPolygonSoupBuilder.obj
 0001:00076d40       ?BoxTestSimd@FastRayTest@@QBEHABVdgVector@@0@Z 10077d40 f   corelib_2009:dgIntersections.obj
 0001:00076e10       ?PolygonIntersectSimd@FastRayTest@@QBEMABVdgVector@@QBMHQBHH@Z 10077e10 f   corelib_2009:dgIntersections.obj
 0001:00077040       ??0FastRayTest@@QAE@ABVdgVector@@0@Z 10078040 f   corelib_2009:dgIntersections.obj
 0001:000772f0       ?BoxTest@FastRayTest@@QBEHABVdgVector@@0@Z 100782f0 f   corelib_2009:dgIntersections.obj
 0001:00077400       ?PolygonIntersect@FastRayTest@@QBEMABVdgVector@@QBMHQBHH@Z 10078400 f   corelib_2009:dgIntersections.obj
 0001:00077630       ?dgRayBoxClip@@YA_NAAVdgVector@@0ABV1@1@Z 10078630 f   corelib_2009:dgIntersections.obj
 0001:00077990       ?dgPointToRayDistance@@YA?AVdgVector@@ABV1@00@Z 10078990 f   corelib_2009:dgIntersections.obj
 0001:00077ac0       ?dgRayToRayDistance@@YAXABVdgVector@@000AAV1@1@Z 10078ac0 f   corelib_2009:dgIntersections.obj
 0001:00077e80       ?dgPointToTriangleDistance@@YA?AVdgVector@@ABV1@000@Z 10078e80 f   corelib_2009:dgIntersections.obj
 0001:000783e0       ?dgPointToTriangleDistance@@YA?AVdgBigVector@@ABV1@000@Z 100793e0 f   corelib_2009:dgIntersections.obj
 0001:00078770       ??0dgQuaternion@@QAE@ABVdgVector@@M@Z 10079770 f   corelib_2009:dgQuaternion.obj
 0001:000787d0       ??0dgQuaternion@@QAE@ABVdgMatrix@@@Z 100797d0 f   corelib_2009:dgQuaternion.obj
 0001:00078960       _ceil                      10079960 f   LIBCMT:_ceil_pentium4_.obj
 0001:000789a0       __ceil_pentium4            100799a0 f   LIBCMT:_ceil_pentium4_.obj
 0001:00078a7d       __cfltcvt_init             10079a7d f   LIBCMT:_fpinit_.obj
 0001:00078add       __fpmath                   10079add f   LIBCMT:_fpinit_.obj
 0001:00078b00       __ftol2_sse                10079b00 f   LIBCMT:ftol2.obj
 0001:00078b09       __ftol2_pentium4           10079b09 f   LIBCMT:ftol2.obj
 0001:00078b1c       __ftol2_sse_excpt          10079b1c f   LIBCMT:ftol2.obj
 0001:00078b36       __ftol2                    10079b36 f   LIBCMT:ftol2.obj
 0001:00078bab       _V6_HeapAlloc              10079bab f   LIBCMT:malloc.obj
 0001:00078bfa       _malloc                    10079bfa f   LIBCMT:malloc.obj
 0001:00078cc4       _free                      10079cc4 f   LIBCMT:free.obj
 0001:00078d60       _memset                    10079d60 f   LIBCMT:memset.obj
 0001:00078de0       _memcpy                    10079de0 f   LIBCMT:memcpy.obj
 0001:00079150       __chkstk                   1007a150 f   LIBCMT:chkstk.obj
 0001:00079150       __alloca_probe             1007a150     LIBCMT:chkstk.obj
 0001:0007917b       __CRT_INIT@12              1007a17b f   LIBCMT:dllcrt0.obj
 0001:000793a6       __DllMainCRTStartup@12     1007a3a6 f   LIBCMT:dllcrt0.obj
 0001:000793c9       _sprintf                   1007a3c9 f   LIBCMT:sprintf.obj
 0001:00079574       __control87                1007a574 f i LIBCMT:_ieee87_.obj
 0001:00079883       __controlfp                1007a883 f   LIBCMT:_ieee87_.obj
 0001:00079b95       __purecall                 1007ab95 f   LIBCMT:purevirt.obj
 0001:00079bc0       _pow                       1007abc0 f   LIBCMT:_pow_.obj
 0001:00079c00       __CIpow                    1007ac00 f   LIBCMT:_pow_.obj
 0001:00079c3b       __CIpow_default            1007ac3b f   LIBCMT:_pow_.obj
 0001:00079c54       __pow_default              1007ac54     LIBCMT:_pow_.obj
 0001:00079f04       ___onexitinit              1007af04 f   LIBCMT:onexit.obj
 0001:00079f35       __onexit                   1007af35 f   LIBCMT:onexit.obj
 0001:00079f71       _atexit                    1007af71 f   LIBCMT:onexit.obj
 0001:00079f90       __except_handler3          1007af90 f   LIBCMT:exsup3.obj
 0001:0007a08e       __seh_longjmp_unwind@4     1007b08e f   LIBCMT:exsup3.obj
 0001:0007a0a9       __endthreadex              1007b0a9 f   LIBCMT:threadex.obj
 0001:0007a1aa       __beginthreadex            1007b1aa f   LIBCMT:threadex.obj
 0001:0007a260       __allmul                   1007b260 f   LIBCMT:llmul.obj
 0001:0007a2a0       __CIsqrt                   1007b2a0 f   LIBCMT:_sqrt_.obj
 0001:0007a2b4       _sqrt                      1007b2b4     LIBCMT:_sqrt_.obj
 0001:0007a35a       ___libm_error_support      1007b35a f   LIBCMT:_libm_error_.obj
 0001:0007a60a       __sse2_mathfcns_init       1007b60a f   LIBCMT:_mathfcns_.obj
 0001:0007a61e       __ceil_default             1007b61e f   LIBCMT:_ceil_.obj
 0001:0007a6f3       ??0_LocaleUpdate@@QAE@PAUlocaleinfo_struct@@@Z 1007b6f3 f i LIBCMT:cvt.obj
 0001:0007a77a       __forcdecpt_l              1007b77a f   LIBCMT:cvt.obj
 0001:0007a7ed       __cropzeros_l              1007b7ed f   LIBCMT:cvt.obj
 0001:0007a86f       __positive                 1007b86f f   LIBCMT:cvt.obj
 0001:0007a88b       __fassign_l                1007b88b f   LIBCMT:cvt.obj
 0001:0007a8cd       __fassign                  1007b8cd f   LIBCMT:cvt.obj
 0001:0007a906       __forcdecpt                1007b906 f   LIBCMT:cvt.obj
 0001:0007a919       __cropzeros                1007b919 f   LIBCMT:cvt.obj
 0001:0007aa9b       __cftoe_l                  1007ba9b f   LIBCMT:cvt.obj
 0001:0007ab6b       __cftoe                    1007bb6b f   LIBCMT:cvt.obj
 0001:0007ab8b       __cftoa_l                  1007bb8b f   LIBCMT:cvt.obj
 0001:0007aff5       __cftof_l                  1007bff5 f   LIBCMT:cvt.obj
 0001:0007b0b0       __cftog_l                  1007c0b0 f   LIBCMT:cvt.obj
 0001:0007b1aa       __cfltcvt_l                1007c1aa f   LIBCMT:cvt.obj
 0001:0007b232       __cfltcvt                  1007c232 f   LIBCMT:cvt.obj
 0001:0007b255       __initp_misc_cfltcvt_tab   1007c255 f   LIBCMT:cmiscdat.obj
 0001:0007b276       __setdefaultprecision      1007c276 f   LIBCMT:fp8.obj
 0001:0007b2a1       __ms_p5_test_fdiv          1007c2a1 f   LIBCMT:_testfdiv_.obj
 0001:0007b2df       __ms_p5_mp_test_fdiv       1007c2df f   LIBCMT:_testfdiv_.obj
 0001:0007b308       __mtinitlocks              1007c308 f   LIBCMT:mlock.obj
 0001:0007b353       __mtdeletelocks            1007c353 f   LIBCMT:mlock.obj
 0001:0007b3aa       __unlock                   1007c3aa f   LIBCMT:mlock.obj
 0001:0007b3c1       __mtinitlocknum            1007c3c1 f   LIBCMT:mlock.obj
 0001:0007b484       __lock                     1007c484 f   LIBCMT:mlock.obj
 0001:0007b4b7       ___sbh_find_block          1007c4b7 f   LIBCMT:sbheap.obj
 0001:0007b4e7       ___sbh_free_block          1007c4e7 f   LIBCMT:sbheap.obj
 0001:0007b7fd       ___sbh_alloc_new_region    1007c7fd f   LIBCMT:sbheap.obj
 0001:0007b8ad       ___sbh_alloc_new_group     1007c8ad f   LIBCMT:sbheap.obj
 0001:0007b9b5       ___sbh_resize_block        1007c9b5 f   LIBCMT:sbheap.obj
 0001:0007bc96       ___sbh_alloc_block         1007cc96 f   LIBCMT:sbheap.obj
 0001:0007bf7c       __SEH_prolog4              1007cf7c f   LIBCMT:sehprolg4.obj
 0001:0007bfc1       __SEH_epilog4              1007cfc1 f   LIBCMT:sehprolg4.obj
 0001:0007bfe0       __except_handler4          1007cfe0 f   LIBCMT:chandler4.obj
 0001:0007c16c       __heap_init                1007d16c f   LIBCMT:heapinit.obj
 0001:0007c19c       __heap_term                1007d19c f   LIBCMT:heapinit.obj
 0001:0007c210       __crt_waiting_on_module_handle 1007d210 f   LIBCMT:crt0dat.obj
 0001:0007c240       __amsg_exit                1007d240 f   LIBCMT:crt0dat.obj
 0001:0007c269       ___crtCorExitProcess       1007d269 f   LIBCMT:crt0dat.obj
 0001:0007c294       ___crtExitProcess          1007d294 f   LIBCMT:crt0dat.obj
 0001:0007c2ac       __lockexit                 1007d2ac f   LIBCMT:crt0dat.obj
 0001:0007c2b5       __unlockexit               1007d2b5 f   LIBCMT:crt0dat.obj
 0001:0007c2db       __initterm_e               1007d2db f   LIBCMT:crt0dat.obj
 0001:0007c2ff       __cinit                    1007d2ff f   LIBCMT:crt0dat.obj
 0001:0007c4b0       __exit                     1007d4b0 f   LIBCMT:crt0dat.obj
 0001:0007c4c6       __cexit                    1007d4c6 f   LIBCMT:crt0dat.obj
 0001:0007c4d5       __init_pointers            1007d4d5 f   LIBCMT:crt0dat.obj
 0001:0007c523       __NMSG_WRITE               1007d523 f   LIBCMT:crt0msg.obj
 0001:0007c6ce       __FF_MSGBANNER             1007d6ce f   LIBCMT:crt0msg.obj
 0001:0007c707       __get_errno_from_oserr     1007d707 f   LIBCMT:dosmap.obj
 0001:0007c749       __errno                    1007d749 f   LIBCMT:dosmap.obj
 0001:0007c75c       ___doserrno                1007d75c f   LIBCMT:dosmap.obj
 0001:0007c76f       __dosmaperr                1007d76f f   LIBCMT:dosmap.obj
 0001:0007c792       __initp_heap_handler       1007d792 f   LIBCMT:handler.obj
 0001:0007c7a1       __callnewh                 1007d7a1 f   LIBCMT:handler.obj
 0001:0007c820       __VEC_memzero              1007d820 f   LIBCMT:p4_memset.obj
 0001:0007c936       __VEC_memcpy               1007d936 f   LIBCMT:p4_memcpy.obj
 0001:0007ca19       __encode_pointer           1007da19 f   LIBCMT:tidtable.obj
 0001:0007ca8b       __encoded_null             1007da8b f   LIBCMT:tidtable.obj
 0001:0007ca94       __decode_pointer           1007da94 f   LIBCMT:tidtable.obj
 0001:0007cb06       ___crtTlsAlloc@4           1007db06 f   LIBCMT:tidtable.obj
 0001:0007cb0f       ___fls_getvalue@4          1007db0f f   LIBCMT:tidtable.obj
 0001:0007cb29       ___get_flsindex            1007db29 f   LIBCMT:tidtable.obj
 0001:0007cb2f       ___set_flsgetvalue         1007db2f f   LIBCMT:tidtable.obj
 0001:0007cb63       ___fls_setvalue@8          1007db63 f   LIBCMT:tidtable.obj
 0001:0007cb80       __mtterm                   1007db80 f   LIBCMT:tidtable.obj
 0001:0007cbbd       __initptd                  1007dbbd f   LIBCMT:tidtable.obj
 0001:0007cca4       __getptd_noexit            1007dca4 f   LIBCMT:tidtable.obj
 0001:0007cd1d       __getptd                   1007dd1d f   LIBCMT:tidtable.obj
 0001:0007cd37       __freefls@4                1007dd37 f   LIBCMT:tidtable.obj
 0001:0007ce66       __freeptd                  1007de66 f   LIBCMT:tidtable.obj
 0001:0007ced4       __mtinit                   1007ded4 f   LIBCMT:tidtable.obj
 0001:0007d061       __malloc_crt               1007e061 f   LIBCMT:crtheap.obj
 0001:0007d0a6       __calloc_crt               1007e0a6 f   LIBCMT:crtheap.obj
 0001:0007d0f2       __realloc_crt              1007e0f2 f   LIBCMT:crtheap.obj
 0001:0007d140       __ioinit                   1007e140 f   LIBCMT:ioinit.obj
 0001:0007d394       __ioterm                   1007e394 f   LIBCMT:ioinit.obj
 0001:0007d3e2       __setenvp                  1007e3e2 f   LIBCMT:stdenvp.obj
 0001:0007d65a       __setargv                  1007e65a f   LIBCMT:stdargv.obj
 0001:0007d715       ___crtGetEnvironmentStringsA 1007e715 f   LIBCMT:a_env.obj
 0001:0007d84c       __RTC_Initialize           1007e84c f   LIBCMT:_initsect_.obj
 0001:0007d872       __RTC_Terminate            1007e872 f   LIBCMT:_initsect_.obj
 0001:0007d898       __fpclear                  1007e898 f   LIBCMT:_fpinit_.obj
 0001:0007d898       __initp_misc_winxfltr      1007e898 f   LIBCMT:winxfltr.obj
 0001:0007d899       __XcptFilter               1007e899 f   LIBCMT:winxfltr.obj
 0001:0007d9f9       ___CppXcptFilter           1007e9f9 f   LIBCMT:winxfltr.obj
 0001:0007da19       ___security_init_cookie    1007ea19 f   LIBCMT:gs_support.obj
 0001:0007daaf       __flsbuf                   1007eaaf f   LIBCMT:_flsbuf.obj
 0001:0007dcb9       __output_l                 1007ecb9 f   LIBCMT:output.obj
 0001:0007e851       __initp_misc_invarg        1007f851 f   LIBCMT:invarg.obj
 0001:0007e860       __invoke_watson            1007f860 f   LIBCMT:invarg.obj
 0001:0007e988       __invalid_parameter        1007f988 f   LIBCMT:invarg.obj
 0001:0007e9ae       __controlfp_s              1007f9ae f   LIBCMT:_contrlfp_.obj
 0001:0007ea1a       __statfp                   1007fa1a f   LIBCMT:_fpctrl_.obj
 0001:0007ea2a       __clrfp                    1007fa2a f   LIBCMT:_fpctrl_.obj
 0001:0007ea3b       __ctrlfp                   1007fa3b f   LIBCMT:_fpctrl_.obj
 0001:0007ea64       __set_statfp               1007fa64 f   LIBCMT:_fpctrl_.obj
 0001:0007eabc       ___set_fpsr_sse2           1007fabc f   LIBCMT:_fpctrl_.obj
 0001:0007eb2e       __initp_misc_winsig        1007fb2e f   LIBCMT:winsig.obj
 0001:0007eb83       ___get_sigabrt             1007fb83 f   LIBCMT:winsig.obj
 0001:0007eb90       _raise                     1007fb90 f   LIBCMT:winsig.obj
 0001:0007ed40       _abort                     1007fd40 f   LIBCMT:abort.obj
 0001:0007ee57       __set_abort_behavior       1007fe57 f   LIBCMT:abort.obj
 0001:0007ee78       __initp_misc_purevirt      1007fe78 f   LIBCMT:inithelp.obj
 0001:0007ee90       __CIpow_pentium4           1007fe90 f   LIBCMT:_pow_pentium4_.obj
 0001:0007eea9       __pow_pentium4             1007fea9     LIBCMT:_pow_pentium4_.obj
 0001:0007fa01       __fFEXP                    10080a01     LIBCMT:_87tran_.obj
 0001:0007fa68       __rtinfpopse               10080a68     LIBCMT:_87tran_.obj
 0001:0007fa6a       __rtinfnpopse              10080a6a     LIBCMT:_87tran_.obj
 0001:0007fa7a       __fFLN                     10080a7a     LIBCMT:_87tran_.obj
 0001:0007fb2f       __rtinfpop                 10080b2f     LIBCMT:_87tran_.obj
 0001:0007fb31       __rtinfnpop                10080b31     LIBCMT:_87tran_.obj
 0001:0007fb4e       __ffexpm1                  10080b4e     LIBCMT:_87tran_.obj
 0001:0007fc00       __trandisp1                10080c00 f   LIBCMT:_87disp_.obj
 0001:0007fc67       __trandisp2                10080c67 f   LIBCMT:_87disp_.obj
 0001:0007fcf3       __rttospopde               10080cf3     LIBCMT:_87disp_.obj
 0001:0007fcf8       __rttospop                 10080cf8     LIBCMT:_87disp_.obj
 0001:0007fcfa       __rtnospop                 10080cfa     LIBCMT:_87disp_.obj
 0001:0007fcfc       __rttosnpop                10080cfc     LIBCMT:_87disp_.obj
 0001:0007fcfd       __rtnospopde               10080cfd     LIBCMT:_87disp_.obj
 0001:0007fd04       __rtzeropop                10080d04     LIBCMT:_87disp_.obj
 0001:0007fd06       __rtzeronpop               10080d06     LIBCMT:_87disp_.obj
 0001:0007fd0b       __rtonepop                 10080d0b     LIBCMT:_87disp_.obj
 0001:0007fd0d       __rtonenpop                10080d0d     LIBCMT:_87disp_.obj
 0001:0007fd12       __tosnan1                  10080d12     LIBCMT:_87disp_.obj
 0001:0007fd3d       __nosnan2                  10080d3d     LIBCMT:_87disp_.obj
 0001:0007fd3f       __tosnan2                  10080d3f     LIBCMT:_87disp_.obj
 0001:0007fd67       __nan2                     10080d67     LIBCMT:_87disp_.obj
 0001:0007fda6       __rtindfpop                10080da6     LIBCMT:_87disp_.obj
 0001:0007fda8       __rtindfnpop               10080da8     LIBCMT:_87disp_.obj
 0001:0007fdb9       __rttosnpopde              10080db9     LIBCMT:_87disp_.obj
 0001:0007fdc3       __rtchsifneg               10080dc3     LIBCMT:_87disp_.obj
 0001:0007fdd0       __startTwoArgErrorHandling 10080dd0 f   LIBCMT:_genexcep_.obj
 0001:0007fde7       __startOneArgErrorHandling 10080de7 f   LIBCMT:_genexcep_.obj
 0001:0007fe30       __twoToTOS                 10080e30 f   LIBCMT:_common_.obj
 0001:0007fe45       __load_CW                  10080e45 f   LIBCMT:_common_.obj
 0001:0007fe5c       __convertTOStoQNaN         10080e5c f   LIBCMT:_common_.obj
 0001:0007fe75       __fload_withFB             10080e75 f   LIBCMT:_common_.obj
 0001:0007feb8       __checkTOS_withFB          10080eb8 f   LIBCMT:_common_.obj
 0001:0007fece       __fast_exit                10080ece f   LIBCMT:_common_.obj
 0001:0007fedb       __math_exit                10080edb f   LIBCMT:_common_.obj
 0001:0007ff05       __check_overflow_exit      10080f05 f   LIBCMT:_common_.obj
 0001:0007ff19       __check_range_exit         10080f19 f   LIBCMT:_common_.obj
 0001:0007ffbc       __d_inttype                10080fbc f   LIBCMT:_powhlp_.obj
 0001:00080022       __powhlp                   10081022 f   LIBCMT:_powhlp_.obj
 0001:00080162       __msize                    10081162 f   LIBCMT:msize.obj
 0001:00080205       _CallDestructExceptionObject 10081205 f   LIBCMT:calldtor.obj
 0001:00080240       __global_unwind2           10081240 f   LIBCMT:exsup.obj
 0001:000802a5       __local_unwind2            100812a5 f   LIBCMT:exsup.obj
 0001:00080329       __abnormal_termination     10081329 f   LIBCMT:exsup.obj
 0001:0008034c       __NLG_Notify1              1008134c f   LIBCMT:exsup.obj
 0001:00080355       __NLG_Notify               10081355 f   LIBCMT:exsup.obj
 0001:0008036c       __NLG_Dispatch2            1008136c     LIBCMT:exsup.obj
 0001:0008036c       __NLG_Dispatch             1008136c     LIBCMT:exsup.obj
 0001:00080374       __NLG_Call                 10081374 f   LIBCMT:exsup.obj
 0001:00080376       __NLG_Return2              10081376     LIBCMT:exsup.obj
 0001:00080440       __ValidateEH3RN            10081440 f   LIBCMT:eh3valid.obj
 0001:00080790       __ValidateImageBase        10081790 f   LIBCMT:pesect.obj
 0001:000807d0       __FindPESection            100817d0 f   LIBCMT:pesect.obj
 0001:00080820       __IsNonwritableInCurrentImage 10081820 f   LIBCMT:pesect.obj
 0001:000808dd       __matherr                  100818dd f   LIBCMT:_matherr_.obj
 0001:00080930       __get_sse2_info            10081930 f   LIBCMT:cpu_disp.obj
 0001:00080992       ___sse2_available_init     10081992 f   LIBCMT:cpu_disp.obj
 0001:0008099f       __raise_exc_ex             1008199f f   LIBCMT:_fpexcept_.obj
 0001:00080c7b       __raise_exc                10081c7b f   LIBCMT:_fpexcept_.obj
 0001:00080c9e       __handle_exc               10081c9e f   LIBCMT:_fpexcept_.obj
 0001:00080e80       __set_errno_from_matherr   10081e80 f   LIBCMT:_fpexcept_.obj
 0001:00080ead       __errcode                  10081ead f   LIBCMT:_fpexcept_.obj
 0001:00080ee1       __umatherr                 10081ee1 f   LIBCMT:_fpexcept_.obj
 0001:00080f81       __handle_qnan1             10081f81 f   LIBCMT:_fpexcept_.obj
 0001:00080fd6       __except1                  10081fd6 f   LIBCMT:_fpexcept_.obj
 0001:0008109f       __frnd                     1008209f f   LIBCMT:_frnd_.obj
 0001:000810b3       __set_exp                  100820b3 f   LIBCMT:_util_.obj
 0001:000810df       __sptype                   100820df f   LIBCMT:_util_.obj
 0001:0008113f       __decomp                   1008213f f   LIBCMT:_util_.obj
 0001:00081200       _strrchr                   10082200 f   LIBCMT:strrchr.obj
 0001:00081453       ___updatetmbcinfo          10082453 f   LIBCMT:mbctype.obj
 0001:00081573       __setmbcp_nolock           10082573 f   LIBCMT:mbctype.obj
 0001:00081758       __setmbcp                  10082758 f   LIBCMT:mbctype.obj
 0001:000818f2       ___initmbctable            100828f2 f   LIBCMT:mbctype.obj
 0001:00081910       ___freetlocinfo            10082910 f   LIBCMT:setlocal.obj
 0001:00081a59       ___addlocaleref            10082a59 f   LIBCMT:setlocal.obj
 0001:00081ae8       ___removelocaleref         10082ae8 f   LIBCMT:setlocal.obj
 0001:00081bbf       ___updatetlocinfo          10082bbf f   LIBCMT:setlocal.obj
 0001:00081c35       __isdigit_l                10082c35 f i LIBCMT:_ctype.obj
 0001:00081c86       _isdigit                   10082c86 f i LIBCMT:_ctype.obj
 0001:00081cb4       __tolower_l                10082cb4 f   LIBCMT:tolower.obj
 0001:00081dc9       _tolower                   10082dc9 f   LIBCMT:tolower.obj
 0001:00081df5       __atodbl_l                 10082df5 f   LIBCMT:atodbl.obj
 0001:00081e9d       __atoflt_l                 10082e9d f   LIBCMT:atodbl.obj
 0001:00081f50       _memmove                   10082f50 f   LIBCMT:memmove.obj
 0001:000822c0       _strlen                    100832c0 f   LIBCMT:strlen.obj
 0001:0008234b       _strcpy_s                  1008334b f   LIBCMT:strcpy_s.obj
 0001:000823b3       __fptostr                  100833b3 f   LIBCMT:_fptostr.obj
 0001:00082472       ___dtold                   10083472 f   LIBCMT:_cfout_.obj
 0001:0008252f       __fltout2                  1008352f f   LIBCMT:_cfout_.obj
 0001:000825bf       @__security_check_cookie@4 100835bf f   LIBCMT:secchk.obj
 0001:000825d0       __alldvrm                  100835d0 f   LIBCMT:lldvrm.obj
 0001:000826b0       __aullshr                  100836b0 f   LIBCMT:ullshr.obj
 0001:000826cf       __fptrap                   100836cf f   LIBCMT:crt0fp.obj
 0001:000826d8       __initp_misc_initcrit      100836d8 f   LIBCMT:initcrit.obj
 0001:000826e7       ___crtInitCritSecAndSpinCount 100836e7 f   LIBCMT:initcrit.obj
 0001:00082748       __local_unwind4            10083748 f   LIBCMT:exsup4.obj
 0001:0008281e       __seh_longjmp_unwind4@4    1008381e f   LIBCMT:exsup4.obj
 0001:0008283a       @_EH4_CallFilterFunc@8     1008383a f   LIBCMT:exsup4.obj
 0001:00082851       @_EH4_TransferToHandler@8  10083851 f   LIBCMT:exsup4.obj
 0001:0008286a       @_EH4_GlobalUnwind@4       1008386a f   LIBCMT:exsup4.obj
 0001:00082884       @_EH4_LocalUnwind@16       10083884 f   LIBCMT:exsup4.obj
 0001:0008289b       ?terminate@@YAXXZ          1008389b f   LIBCMT:hooks.obj
 0001:000828d4       __initp_eh_hooks           100838d4 f   LIBCMT:hooks.obj
 0001:000828e5       __initp_misc_rand_s        100838e5 f   LIBCMT:rand_s.obj
 0001:000828f4       ___crtMessageBoxA          100838f4 f   LIBCMT:crtmbox.obj
 0001:00082a5d       _strcat_s                  10083a5d f   LIBCMT:strcat_s.obj
 0001:00082ad1       _strncpy_s                 10083ad1 f   LIBCMT:strncpy_s.obj
 0001:00082b86       __set_error_mode           10083b86 f   LIBCMT:errmode.obj
 0001:00082bd1       __calloc_impl              10083bd1 f   LIBCMT:calloc_impl.obj
 0001:00082cef       _realloc                   10083cef f   LIBCMT:realloc.obj
 0001:00082f5d       __ismbblead                10083f5d f   LIBCMT:ismbbyte.obj
 0001:00082f75       __lseeki64_nolock          10083f75 f   LIBCMT:lseeki64.obj
 0001:00082ffa       __lseeki64                 10083ffa f   LIBCMT:lseeki64.obj
 0001:00083113       __write_nolock             10084113 f   LIBCMT:write.obj
 0001:00083846       __write                    10084846 f   LIBCMT:write.obj
 0001:00083922       __getbuf                   10084922 f   LIBCMT:_getbuf.obj
 0001:0008396b       __isatty                   1008496b f   LIBCMT:isatty.obj
 0001:000839cf       ___iob_func                100849cf f   LIBCMT:_file.obj
 0001:000839d5       ___initstdio               100849d5 f   LIBCMT:_file.obj
 0001:00083a86       ___endstdio                10084a86 f   LIBCMT:_file.obj
 0001:00083aa6       __lock_file                10084aa6 f   LIBCMT:_file.obj
 0001:00083ae7       __lock_file2               10084ae7 f   LIBCMT:_file.obj
 0001:00083b19       __unlock_file              10084b19 f   LIBCMT:_file.obj
 0001:00083b55       __unlock_file2             10084b55 f   LIBCMT:_file.obj
 0001:00083b84       __fileno                   10084b84 f   LIBCMT:fileno.obj
 0001:00083bb6       __get_printf_count_output  10084bb6 f   LIBCMT:printf.obj
 0001:00083bcc       __wctomb_s_l               10084bcc f   LIBCMT:wctomb.obj
 0001:00083d38       _wctomb_s                  10084d38 f   LIBCMT:wctomb.obj
 0001:00083d55       __isleadbyte_l             10084d55 f i LIBCMT:_wctype.obj
 0001:00083d8d       _isleadbyte                10084d8d f i LIBCMT:_wctype.obj
 0001:00083da0       __aulldvrm                 10084da0 f   LIBCMT:ulldvrm.obj
 0001:00083e35       __crt_debugger_hook        10084e35 f   LIBCMT:dbghook.obj
 0001:00083e3d       __freea                    10084e3d f i LIBCMT:a_loc.obj
 0001:00083e60       _fdiv_main_routine         10084e60 f   LIBCMT:_adj_fdiv_.obj
 0001:00083f77       __adj_fdiv_r               10084f77 f   LIBCMT:_adj_fdiv_.obj
 0001:00084416       __fdivp_sti_st             10085416 f   LIBCMT:_adj_fdiv_.obj
 0001:00084429       __fdivrp_sti_st            10085429 f   LIBCMT:_adj_fdiv_.obj
 0001:0008443c       __adj_fdiv_m32             1008543c f   LIBCMT:_adj_fdiv_.obj
 0001:00084488       __adj_fdiv_m64             10085488 f   LIBCMT:_adj_fdiv_.obj
 0001:000844d4       __adj_fdiv_m16i            100854d4 f   LIBCMT:_adj_fdiv_.obj
 0001:00084508       __adj_fdiv_m32i            10085508 f   LIBCMT:_adj_fdiv_.obj
 0001:0008453c       __adj_fdivr_m32            1008553c f   LIBCMT:_adj_fdiv_.obj
 0001:00084588       __adj_fdivr_m64            10085588 f   LIBCMT:_adj_fdiv_.obj
 0001:000845d4       __adj_fdivr_m16i           100855d4 f   LIBCMT:_adj_fdiv_.obj
 0001:00084608       __adj_fdivr_m32i           10085608 f   LIBCMT:_adj_fdiv_.obj
 0001:0008463c       __safe_fdiv                1008563c f   LIBCMT:_adj_fdiv_.obj
 0001:00084651       __safe_fdivr               10085651 f   LIBCMT:_adj_fdiv_.obj
 0001:00084666       __fprem_common             10085666 f   LIBCMT:_adj_fdiv_.obj
 0001:0008486c       __adj_fprem                1008586c f   LIBCMT:_adj_fdiv_.obj
 0001:0008491e       __fprem1_common            1008591e f   LIBCMT:_adj_fdiv_.obj
 0001:00084b24       __adj_fprem1               10085b24 f   LIBCMT:_adj_fdiv_.obj
 0001:00084bd9       __safe_fprem               10085bd9 f   LIBCMT:_adj_fdiv_.obj
 0001:00084bdf       __safe_fprem1              10085bdf f   LIBCMT:_adj_fdiv_.obj
 0001:00084be5       __adj_fpatan               10085be5 f   LIBCMT:_adj_fdiv_.obj
 0001:00084be8       __adj_fptan                10085be8 f   LIBCMT:_adj_fdiv_.obj
 0001:00084beb       __87except                 10085beb f   LIBCMT:_87except_.obj
 0001:00084d2a       __fpclass                  10085d2a f   LIBCMT:_ieeemisc_.obj
 0001:00085163       ___crtLCMapStringA         10086163 f   LIBCMT:a_map.obj
 0001:00085362       ___crtGetStringTypeA       10086362 f   LIBCMT:a_str.obj
 0001:000853a4       ___free_lc_time            100863a4 f   LIBCMT:inittime.obj
 0001:00085539       ___free_lconv_num          10086539 f   LIBCMT:initnum.obj
 0001:0008557e       ___free_lconv_mon          1008657e f   LIBCMT:initmon.obj
 0001:00085610       _strcspn                   10086610 f   LIBCMT:strcspn.obj
 0001:00085660       _strcmp                    10086660 f   LIBCMT:strcmp.obj
 0001:000856f0       _strpbrk                   100866f0 f   LIBCMT:strpbrk.obj
 0001:00085730       __isctype_l                10086730 f   LIBCMT:isctype.obj
 0001:000857e8       __ld12tod                  100867e8 f   LIBCMT:_intrncvt_.obj
 0001:00085d2c       __ld12tof                  10086d2c f   LIBCMT:_intrncvt_.obj
 0001:00086270       ___strgtold12_l            10087270 f   LIBCMT:_strgtold_.obj
 0001:00086968       _$I10_OUTPUT               10087968 f   LIBCMT:_x10fout_.obj
 0001:0008728c       ___report_gsfailure        1008828c f   LIBCMT:gs_report.obj
 0001:00087392       __free_osfhnd              10088392 f   LIBCMT:osfinfo.obj
 0001:00087418       __get_osfhandle            10088418 f   LIBCMT:osfinfo.obj
 0001:0008748f       ___lock_fhandle            1008848f f   LIBCMT:osfinfo.obj
 0001:0008752f       __unlock_fhandle           1008852f f   LIBCMT:osfinfo.obj
 0001:00087556       __putwch_nolock            10088556 f   LIBCMT:putwch.obj
 0001:0008761b       __mbtowc_l                 1008861b f   LIBCMT:mbtowc.obj
 0001:00087732       _mbtowc                    10088732 f   LIBCMT:mbtowc.obj
 0001:0008774c       __fcloseall                1008874c f   LIBCMT:closeall.obj
 0001:000877eb       __flush                    100887eb f   LIBCMT:fflush.obj
 0001:00087853       __fflush_nolock            10088853 f   LIBCMT:fflush.obj
 0001:00087975       __flushall                 10088975 f   LIBCMT:fflush.obj
 0001:00087bad       _strtol                    10088bad f   LIBCMT:strtol.obj
 0001:00087be0       __alloca_probe_16          10088be0 f   LIBCMT:alloca16.obj
 0001:00087bf6       __alloca_probe_8           10088bf6     LIBCMT:alloca16.obj
 0001:00087c0c       ___ansicp                  10088c0c f   LIBCMT:convrtcp.obj
 0001:00087c55       ___convertcp               10088c55 f   LIBCMT:convrtcp.obj
 0001:00087e09       _atol                      10088e09 f   LIBCMT:atox.obj
 0001:00087e1f       ___mtold12                 10088e1f f   LIBCMT:_mantold_.obj
 0001:00087fed       ___initconout              10088fed f   LIBCMT:initcon.obj
 0001:0008800c       ___termcon                 1008900c f   LIBCMT:initcon.obj
 0001:00088039       __fclose_nolock            10089039 f   LIBCMT:fclose.obj
 0001:000880b0       _fclose                    100890b0 f   LIBCMT:fclose.obj
 0001:0008812c       __commit                   1008912c f   LIBCMT:commit.obj
 0001:00088210       ___ascii_strnicmp          10089210 f   LIBCMT:_strnicm.obj
 0001:00088271       __close_nolock             10089271 f   LIBCMT:close.obj
 0001:0008830d       __close                    1008930d f   LIBCMT:close.obj
 0001:000883da       __freebuf                  100893da f   LIBCMT:_freebuf.obj
 0001:00088420       _strchr                    10089420 f   LIBCMT:strchr.obj
 0001:00088426       ___from_strstr_to_strchr   10089426     LIBCMT:strchr.obj
 0001:000884de       _RtlUnwind@16              100894de f   kernel32:KERNEL32.dll
 0002:00000000       __imp__Sleep@4             1008a000     kernel32:KERNEL32.dll
 0002:00000004       __imp__InterlockedExchange@8 1008a004     kernel32:KERNEL32.dll
 0002:00000008       __imp__InterlockedIncrement@4 1008a008     kernel32:KERNEL32.dll
 0002:0000000c       __imp__InterlockedDecrement@4 1008a00c     kernel32:KERNEL32.dll
 0002:00000010       __imp__GetSystemInfo@4     1008a010     kernel32:KERNEL32.dll
 0002:00000014       __imp__CloseHandle@4       1008a014     kernel32:KERNEL32.dll
 0002:00000018       __imp__WaitForMultipleObjects@16 1008a018     kernel32:KERNEL32.dll
 0002:0000001c       __imp__DeleteCriticalSection@4 1008a01c     kernel32:KERNEL32.dll
 0002:00000020       __imp__SetEvent@4          1008a020     kernel32:KERNEL32.dll
 0002:00000024       __imp__LeaveCriticalSection@4 1008a024     kernel32:KERNEL32.dll
 0002:00000028       __imp__ReleaseSemaphore@12 1008a028     kernel32:KERNEL32.dll
 0002:0000002c       __imp__EnterCriticalSection@4 1008a02c     kernel32:KERNEL32.dll
 0002:00000030       __imp__WaitForSingleObject@8 1008a030     kernel32:KERNEL32.dll
 0002:00000034       __imp__InitializeCriticalSection@4 1008a034     kernel32:KERNEL32.dll
 0002:00000038       __imp__CreateEventA@16     1008a038     kernel32:KERNEL32.dll
 0002:0000003c       __imp__CreateSemaphoreA@16 1008a03c     kernel32:KERNEL32.dll
 0002:00000040       __imp__HeapAlloc@12        1008a040     kernel32:KERNEL32.dll
 0002:00000044       __imp__GetLastError@0      1008a044     kernel32:KERNEL32.dll
 0002:00000048       __imp__HeapFree@12         1008a048     kernel32:KERNEL32.dll
 0002:0000004c       __imp__GetCurrentThreadId@0 1008a04c     kernel32:KERNEL32.dll
 0002:00000050       __imp__GetCommandLineA@0   1008a050     kernel32:KERNEL32.dll
 0002:00000054       __imp__ExitThread@4        1008a054     kernel32:KERNEL32.dll
 0002:00000058       __imp__CreateThread@24     1008a058     kernel32:KERNEL32.dll
 0002:0000005c       __imp__GetProcAddress@8    1008a05c     kernel32:KERNEL32.dll
 0002:00000060       __imp__GetModuleHandleA@4  1008a060     kernel32:KERNEL32.dll
 0002:00000064       __imp__VirtualFree@12      1008a064     kernel32:KERNEL32.dll
 0002:00000068       __imp__VirtualAlloc@16     1008a068     kernel32:KERNEL32.dll
 0002:0000006c       __imp__HeapReAlloc@16      1008a06c     kernel32:KERNEL32.dll
 0002:00000070       __imp__HeapCreate@12       1008a070     kernel32:KERNEL32.dll
 0002:00000074       __imp__HeapDestroy@4       1008a074     kernel32:KERNEL32.dll
 0002:00000078       __imp__GetModuleHandleW@4  1008a078     kernel32:KERNEL32.dll
 0002:0000007c       __imp__ExitProcess@4       1008a07c     kernel32:KERNEL32.dll
 0002:00000080       __imp__WriteFile@20        1008a080     kernel32:KERNEL32.dll
 0002:00000084       __imp__GetStdHandle@4      1008a084     kernel32:KERNEL32.dll
 0002:00000088       __imp__GetModuleFileNameA@12 1008a088     kernel32:KERNEL32.dll
 0002:0000008c       __imp__TlsGetValue@4       1008a08c     kernel32:KERNEL32.dll
 0002:00000090       __imp__TlsAlloc@0          1008a090     kernel32:KERNEL32.dll
 0002:00000094       __imp__TlsSetValue@8       1008a094     kernel32:KERNEL32.dll
 0002:00000098       __imp__TlsFree@4           1008a098     kernel32:KERNEL32.dll
 0002:0000009c       __imp__SetLastError@4      1008a09c     kernel32:KERNEL32.dll
 0002:000000a0       __imp__SetHandleCount@4    1008a0a0     kernel32:KERNEL32.dll
 0002:000000a4       __imp__GetFileType@4       1008a0a4     kernel32:KERNEL32.dll
 0002:000000a8       __imp__GetStartupInfoA@4   1008a0a8     kernel32:KERNEL32.dll
 0002:000000ac       __imp__FreeEnvironmentStringsA@4 1008a0ac     kernel32:KERNEL32.dll
 0002:000000b0       __imp__GetEnvironmentStrings@0 1008a0b0     kernel32:KERNEL32.dll
 0002:000000b4       __imp__FreeEnvironmentStringsW@4 1008a0b4     kernel32:KERNEL32.dll
 0002:000000b8       __imp__WideCharToMultiByte@32 1008a0b8     kernel32:KERNEL32.dll
 0002:000000bc       __imp__GetEnvironmentStringsW@0 1008a0bc     kernel32:KERNEL32.dll
 0002:000000c0       __imp__QueryPerformanceCounter@4 1008a0c0     kernel32:KERNEL32.dll
 0002:000000c4       __imp__GetTickCount@0      1008a0c4     kernel32:KERNEL32.dll
 0002:000000c8       __imp__GetCurrentProcessId@0 1008a0c8     kernel32:KERNEL32.dll
 0002:000000cc       __imp__GetSystemTimeAsFileTime@4 1008a0cc     kernel32:KERNEL32.dll
 0002:000000d0       __imp__TerminateProcess@8  1008a0d0     kernel32:KERNEL32.dll
 0002:000000d4       __imp__GetCurrentProcess@0 1008a0d4     kernel32:KERNEL32.dll
 0002:000000d8       __imp__UnhandledExceptionFilter@4 1008a0d8     kernel32:KERNEL32.dll
 0002:000000dc       __imp__SetUnhandledExceptionFilter@4 1008a0dc     kernel32:KERNEL32.dll
 0002:000000e0       __imp__IsDebuggerPresent@0 1008a0e0     kernel32:KERNEL32.dll
 0002:000000e4       __imp__HeapSize@12         1008a0e4     kernel32:KERNEL32.dll
 0002:000000e8       __imp__RtlUnwind@16        1008a0e8     kernel32:KERNEL32.dll
 0002:000000ec       __imp__VirtualQuery@12     1008a0ec     kernel32:KERNEL32.dll
 0002:000000f0       __imp__RaiseException@16   1008a0f0     kernel32:KERNEL32.dll
 0002:000000f4       __imp__GetCPInfo@8         1008a0f4     kernel32:KERNEL32.dll
 0002:000000f8       __imp__GetACP@0            1008a0f8     kernel32:KERNEL32.dll
 0002:000000fc       __imp__GetOEMCP@0          1008a0fc     kernel32:KERNEL32.dll
 0002:00000100       __imp__IsValidCodePage@4   1008a100     kernel32:KERNEL32.dll
 0002:00000104       __imp__InitializeCriticalSectionAndSpinCount@8 1008a104     kernel32:KERNEL32.dll
 0002:00000108       __imp__LoadLibraryA@4      1008a108     kernel32:KERNEL32.dll
 0002:0000010c       __imp__SetFilePointer@16   1008a10c     kernel32:KERNEL32.dll
 0002:00000110       __imp__GetConsoleCP@0      1008a110     kernel32:KERNEL32.dll
 0002:00000114       __imp__GetConsoleMode@8    1008a114     kernel32:KERNEL32.dll
 0002:00000118       __imp__GetLocaleInfoA@16   1008a118     kernel32:KERNEL32.dll
 0002:0000011c       __imp__LCMapStringA@24     1008a11c     kernel32:KERNEL32.dll
 0002:00000120       __imp__MultiByteToWideChar@24 1008a120     kernel32:KERNEL32.dll
 0002:00000124       __imp__LCMapStringW@24     1008a124     kernel32:KERNEL32.dll
 0002:00000128       __imp__GetStringTypeA@20   1008a128     kernel32:KERNEL32.dll
 0002:0000012c       __imp__GetStringTypeW@16   1008a12c     kernel32:KERNEL32.dll
 0002:00000130       __imp__SetStdHandle@8      1008a130     kernel32:KERNEL32.dll
 0002:00000134       __imp__WriteConsoleA@20    1008a134     kernel32:KERNEL32.dll
 0002:00000138       __imp__GetConsoleOutputCP@0 1008a138     kernel32:KERNEL32.dll
 0002:0000013c       __imp__WriteConsoleW@20    1008a13c     kernel32:KERNEL32.dll
 0002:00000140       __imp__CreateFileA@28      1008a140     kernel32:KERNEL32.dll
 0002:00000144       __imp__FlushFileBuffers@4  1008a144     kernel32:KERNEL32.dll
 0002:00000148       \177KERNEL32_NULL_THUNK_DATA 1008a148     kernel32:KERNEL32.dll
 0002:0000014c       ___xc_a                    1008a14c     LIBCMT:crt0init.obj
 0002:00000154       ___xc_z                    1008a154     LIBCMT:crt0init.obj
 0002:00000158       ___xi_a                    1008a158     LIBCMT:crt0init.obj
 0002:00000170       ___xi_z                    1008a170     LIBCMT:crt0init.obj
 0002:00000174       ___xp_a                    1008a174     LIBCMT:crt0init.obj
 0002:00000180       ___xp_z                    1008a180     LIBCMT:crt0init.obj
 0002:00000184       ___xt_a                    1008a184     LIBCMT:crt0init.obj
 0002:00000188       ___xt_z                    1008a188     LIBCMT:crt0init.obj
 0002:000001b0       ??_C@_0IE@IMGBDMJL@Newton?5Game?5Dynamics?5is?5the?5prop@ 1008a1b0     Newton.obj
 0002:00000238       __real@3727c5ac            1008a238     Newton.obj
 0002:00000240       __real@3ff0000000000000    1008a240     Newton.obj
 0002:00000248       __real@3f800000            1008a248     Newton.obj
 0002:0000024c       ??_C@_13NOLLCAOD@?$AA?$AA?$AA?$AA@ 1008a24c     LIBCMT:a_map.obj
 0002:0000024c       __real@00000000            1008a24c     Newton.obj
 0002:00000250       __real@3f947ae140000000    1008a250     Newton.obj
 0002:00000258       __real@0000000000000000    1008a258     Newton.obj
 0002:00000260       __real@3ddb7cdfe0000000    1008a260     Newton.obj
 0002:00000268       __real@3c888889            1008a268     Newton.obj
 0002:0000026c       __real@3a83126f            1008a26c     Newton.obj
 0002:00000270       __real@4479ffff            1008a270     Newton.obj
 0002:00000278       __real@408f3fffe0000000    1008a278     Newton.obj
 0002:00000280       __real@426fffff            1008a280     Newton.obj
 0002:00000288       __real@404dffffe0000000    1008a288     Newton.obj
 0002:00000290       __real@3e000000            1008a290     Newton.obj
 0002:00000298       __real@3fc0000000000000    1008a298     Newton.obj
 0002:000002a0       __real@40000000            1008a2a0     Newton.obj
 0002:000002a4       __real@3c23d70a            1008a2a4     Newton.obj
 0002:000002a8       __real@3f333333            1008a2a8     Newton.obj
 0002:000002b0       __real@42fc6bf520000000    1008a2b0     Newton.obj
 0002:000002b8       __real@3e45798ee0000000    1008a2b8     Newton.obj
 0002:000002c0       __real@3f13b646            1008a2c0     Newton.obj
 0002:000002c8       __real@3f1a36e2e0000000    1008a2c8     Newton.obj
 0002:000002d0       __real@bff0000000000000    1008a2d0     Newton.obj
 0002:000002d8       __real@358637bd            1008a2d8     Newton.obj
 0002:000002dc       __real@58aa87bf            1008a2dc     Newton.obj
 0002:000002e0       __real@4059000000000000    1008a2e0     Newton.obj
 0002:000002e8       __real@3f50624de0000000    1008a2e8     Newton.obj
 0002:000002f0       __real@3feff7cee0000000    1008a2f0     Newton.obj
 0002:000002f8       __real@42c80000            1008a2f8     Newton.obj
 0002:000002fc       __real@c2c80000            1008a2fc     Newton.obj
 0002:00000300       __real@3d4ccccd            1008a300     NewtonAproximateConvexPartition.obj
 0002:00000304       ??_7NewtonUserJoint@@6B@   1008a304     NewtonClass.obj
 0002:00000334       __real@58635fa9            1008a334     NewtonClass.obj
 0002:00000338       __real@430c6bf520000000    1008a338     NewtonClass.obj
 0002:00000340       __real@ba83126f            1008a340     NewtonClass.obj
 0002:00000344       __real@d8635fa9            1008a344     NewtonClass.obj
 0002:00000348       __real@c30c6bf520000000    1008a348     NewtonClass.obj
 0002:00000350       __real@4058c00000000000    1008a350     NewtonClass.obj
 0002:00000358       ??_7NewtonMeshEffect@@6B@  1008a358     NewtonMeshEffect.obj
 0002:0000035c       __real@3f19999a            1008a35c     NewtonMeshEffect.obj
 0002:00000360       __real@3fe0000000000000    1008a360     NewtonMeshEffect.obj
 0002:00000368       __real@3ff921fb00000000    1008a368     NewtonMeshEffect.obj
 0002:00000370       __real@3fc45f30c0000000    1008a370     NewtonMeshEffect.obj
 0002:00000378       __real@3f7ff972            1008a378     NewtonMeshEffect.obj
 0002:00000380       __real@3fefff2e40000000    1008a380     NewtonMeshEffect.obj
 0002:00000388       __real@bf7ff972            1008a388     NewtonMeshEffect.obj
 0002:00000390       __real@bfefff2e40000000    1008a390     NewtonMeshEffect.obj
 0002:00000398       __real@401921fb00000000    1008a398     NewtonMeshEffect.obj
 0002:000003a0       __real@3fefae1480000000    1008a3a0     NewtonMeshEffect.obj
 0002:000003a8       __real@d01502f9            1008a3a8     NewtonMeshEffect.obj
 0002:000003ac       __real@501502f9            1008a3ac     NewtonMeshEffect.obj
 0002:000003b0       __real@3c9cd2b2a0000000    1008a3b0     NewtonMeshEffect.obj
 0002:000003b8       __real@b727c5ac            1008a3b8     NewtonMeshEffect.obj
 0002:000003bc       ??_C@_0P@GHFPNOJB@bad?5allocation?$AA@ 1008a3bc     NewtonStdAfx.obj
 0002:000003e0       ??_7dgCollisionPoint@@6B@  1008a3e0     physics_2009:dgWorld.obj
 0002:00000454       ??_C@_04IABPNMKE@simd?$AA@ 1008a454     physics_2009:dgWorld.obj
 0002:0000045c       ??_C@_03MKEPLMIM@x87?$AA@  1008a45c     physics_2009:dgWorld.obj
 0002:00000460       ??_7dgWorkerThread@@6B@    1008a460     physics_2009:dgWorld.obj
 0002:00000468       __real@3ca3d70a            1008a468     physics_2009:dgWorld.obj
 0002:0000046c       ??_7dgSetTrreadRoundMode@dgWorld@@6B@ 1008a46c     physics_2009:dgWorld.obj
 0002:00000474       ??_7dgSolverWorlkerThreads@@6B@ 1008a474     physics_2009:dgWorld.obj
 0002:0000047c       ??_7dgParallelSolverClear@@6B@ 1008a47c     physics_2009:dgWorld.obj
 0002:00000484       ??_7dgParallelSolverBodyInertia@@6B@ 1008a484     physics_2009:dgWorld.obj
 0002:0000048c       ??_7dgParallelSolverUpdateVeloc@@6B@ 1008a48c     physics_2009:dgWorld.obj
 0002:00000494       ??_7dgParallelSolverUpdateForce@@6B@ 1008a494     physics_2009:dgWorld.obj
 0002:0000049c       ??_7dgParallelSolverCalculateForces@@6B@ 1008a49c     physics_2009:dgWorld.obj
 0002:000004a4       ??_7dgParallelSolverInitInternalForces@@6B@ 1008a4a4     physics_2009:dgWorld.obj
 0002:000004ac       ??_7dgParallelSolverBuildJacobianRows@@6B@ 1008a4ac     physics_2009:dgWorld.obj
 0002:000004b4       ??_7dgParallelSolverJointAcceleration@@6B@ 1008a4b4     physics_2009:dgWorld.obj
 0002:000004bc       ??_7dgParallelSolverInitFeedbackUpdate@@6B@ 1008a4bc     physics_2009:dgWorld.obj
 0002:000004c4       ??_7dgParallelSolverBuildJacobianMatrix@@6B@ 1008a4c4     physics_2009:dgWorld.obj
 0002:000004cc       __real@58e35fa9            1008a4cc     physics_2009:dgWorld.obj
 0002:000004d0       __real@3dd60419            1008a4d0     physics_2009:dgWorld.obj
 0002:000004d4       __real@3b08f862            1008a4d4     physics_2009:dgWorld.obj
 0002:000004d8       __real@3dcccccd            1008a4d8     physics_2009:dgWorld.obj
 0002:000004dc       __real@3c8bf7cf            1008a4dc     physics_2009:dgWorld.obj
 0002:000004e0       __real@3dd7e308            1008a4e0     physics_2009:dgWorld.obj
 0002:000004e4       __real@3e2ef5c3            1008a4e4     physics_2009:dgWorld.obj
 0002:000004e8       __real@3c3a9fbf            1008a4e8     physics_2009:dgWorld.obj
 0002:000004ec       __real@3d9a3474            1008a4ec     physics_2009:dgWorld.obj
 0002:000004f0       __real@3de947af            1008a4f0     physics_2009:dgWorld.obj
 0002:000004f4       __real@3bf8d4ff            1008a4f4     physics_2009:dgWorld.obj
 0002:000004f8       __real@3d5c4aef            1008a4f8     physics_2009:dgWorld.obj
 0002:000004fc       __real@3d9b851f            1008a4fc     physics_2009:dgWorld.obj
 0002:00000500       __real@3ba5e354            1008a500     physics_2009:dgWorld.obj
 0002:00000504       __real@3d1d5a19            1008a504     physics_2009:dgWorld.obj
 0002:00000508       __real@3d4f5c2a            1008a508     physics_2009:dgWorld.obj
 0002:0000050c       __real@3b5d2f1b            1008a50c     physics_2009:dgWorld.obj
 0002:00000510       __real@3ce0c9da            1008a510     physics_2009:dgWorld.obj
 0002:00000514       __real@3d0a3d71            1008a514     physics_2009:dgWorld.obj
 0002:00000518       __real@3b1374bd            1008a518     physics_2009:dgWorld.obj
 0002:0000051c       __real@3ca0902e            1008a51c     physics_2009:dgWorld.obj
 0002:00000520       __real@3cb851ec            1008a520     physics_2009:dgWorld.obj
 0002:00000524       __real@3ac49ba6            1008a524     physics_2009:dgWorld.obj
 0002:00000528       __real@3c656042            1008a528     physics_2009:dgWorld.obj
 0002:0000052c       __real@3c75c290            1008a52c     physics_2009:dgWorld.obj
 0002:00000530       __real@3c23d70b            1008a530     physics_2009:dgWorld.obj
 0002:00000534       __real@3e800000            1008a534     physics_2009:dgWorld.obj
 0002:00000538       __real@233877aa            1008a538     physics_2009:dgWorldDynamicUpdate.obj
 0002:0000053c       __real@40400000            1008a53c     physics_2009:dgWorldDynamicUpdate.obj
 0002:00000540       __real@bf800000            1008a540     physics_2009:dgWorldDynamicUpdate.obj
 0002:00000544       __real@40800000            1008a544     physics_2009:dgWorldDynamicUpdate.obj
 0002:00000548       __real@a4e69595            1008a548     physics_2009:dgWorldDynamicUpdate.obj
 0002:0000054c       __real@24e69595            1008a54c     physics_2009:dgWorldDynamicUpdate.obj
 0002:00000550       __real@322bcc77            1008a550     physics_2009:dgWorldDynamicUpdate.obj
 0002:00000554       __real@42700000            1008a554     physics_2009:dgWorldDynamicUpdate.obj
 0002:00000558       __real@3f666666            1008a558     physics_2009:dgWorldDynamicUpdate.obj
 0002:0000055c       __real@c0800000            1008a55c     physics_2009:dgWorldDynamicUpdate.obj
 0002:00000560       __real@38d1b717            1008a560     physics_2009:dgNarrowPhaseCollision.obj
 0002:00000564       __real@358637be            1008a564     physics_2009:dgNarrowPhaseCollision.obj
 0002:00000568       __real@3f000000            1008a568     physics_2009:dgNarrowPhaseCollision.obj
 0002:0000056c       __real@3f7fdf3b            1008a56c     physics_2009:dgNarrowPhaseCollision.obj
 0002:00000570       __real@60ad78ec            1008a570     physics_2009:dgNarrowPhaseCollision.obj
 0002:00000578       ??_7dgCollisionMesh@@6B@   1008a578     physics_2009:dgCollisionMesh.obj
 0002:000005e8       ??_7dgCollisionConvexPolygon@dgCollisionMesh@@6B@ 1008a5e8     physics_2009:dgCollisionMesh.obj
 0002:0000065c       __real@179abe15            1008a65c     physics_2009:dgCollisionMesh.obj
 0002:00000660       __real@3f7fbe77            1008a660     physics_2009:dgCollisionMesh.obj
 0002:00000664       __real@3b23d70b            1008a664     physics_2009:dgCollisionMesh.obj
 0002:00000668       __real@3f7ff2e5            1008a668     physics_2009:dgCollisionMesh.obj
 0002:0000066c       __real@c0000000            1008a66c     physics_2009:dgCollisionMesh.obj
 0002:00000670       __real@bdcccccd            1008a670     physics_2009:dgCollisionMesh.obj
 0002:00000674       __real@3c000000            1008a674     physics_2009:dgCollisionMesh.obj
 0002:00000678       __real@bb800000            1008a678     physics_2009:dgCollisionMesh.obj
 0002:0000067c       __real@3e31c433            1008a67c     physics_2009:dgCollisionMesh.obj
 0002:00000680       ??_7dgCollisionBVH@@6BdgCollisionMesh@@@ 1008a680     physics_2009:dgCollisionBVH.obj
 0002:000006f0       ??_7dgCollisionBVH@@6BdgAABBPolygonSoup@@@ 1008a6f0     physics_2009:dgCollisionBVH.obj
 0002:00000714       __real@3f800347            1008a714     physics_2009:dgCollisionBVH.obj
 0002:00000718       __real@3f99999a            1008a718     physics_2009:dgCollisionBVH.obj
 0002:0000071c       __real@e0ad78ec            1008a71c     physics_2009:dgCollisionBVH.obj
 0002:00000720       __real@42800000            1008a720     physics_2009:dgCollisionScene.obj
 0002:00000728       ??_7dgCollisionScene@@6B@  1008a728     physics_2009:dgCollisionScene.obj
 0002:00000790       __real@447a0000            1008a790     physics_2009:dgBody.obj
 0002:00000794       __real@41200000            1008a794     physics_2009:dgBody.obj
 0002:00000798       __real@3fcccccd            1008a798     physics_2009:dgBody.obj
 0002:0000079c       __real@3c4ccccd            1008a79c     physics_2009:dgBody.obj
 0002:000007a0       __real@3f4ccccd            1008a7a0     physics_2009:dgBody.obj
 0002:000007a4       __real@44fd2000            1008a7a4     physics_2009:dgBody.obj
 0002:000007ac       ??_7dgBallConstraint@@6B@  1008a7ac     physics_2009:dgBallConstraint.obj
 0002:000007dc       __real@432f0000            1008a7dc     physics_2009:dgBallConstraint.obj
 0002:000007e0       __real@42b40000            1008a7e0     physics_2009:dgBallConstraint.obj
 0002:000007e4       __real@40a00000            1008a7e4     physics_2009:dgBallConstraint.obj
 0002:000007e8       __real@bfc90fd0            1008a7e8     physics_2009:dgBallConstraint.obj
 0002:000007ec       __real@3fc90fd0            1008a7ec     physics_2009:dgBallConstraint.obj
 0002:000007f0       __real@3f8ccccd            1008a7f0     physics_2009:dgBallConstraint.obj
 0002:000007f4       __real@41800000            1008a7f4     physics_2009:dgBallConstraint.obj
 0002:000007f8       ??_7dgHingeConstraint@@6B@ 1008a7f8     physics_2009:dgHingeConstraint.obj
 0002:00000828       __real@3f8147ae            1008a828     physics_2009:dgHingeConstraint.obj
 0002:0000082c       ??_7dgSlidingConstraint@@6B@ 1008a82c     physics_2009:dgSlidingConstraint.obj
 0002:0000085c       ??_7dgCorkscrewConstraint@@6B@ 1008a85c     physics_2009:dgCorkscrewConstraint.obj
 0002:0000088c       ??_7dgUniversalConstraint@@6B@ 1008a88c     physics_2009:dgUniversalConstraint.obj
 0002:000008bc       ??_7dgUpVectorConstraint@@6B@ 1008a8bc     physics_2009:dgUpVectorConstraint.obj
 0002:000008ec       __real@3f7eb852            1008a8ec     physics_2009:dgUpVectorConstraint.obj
 0002:000008f0       ??_7dgCollisionConvexHull@@6B@ 1008a8f0     physics_2009:dgCollisionConvexHull.obj
 0002:00000968       __real@c202a05f20000000    1008a968     physics_2009:dgCollisionConvexHull.obj
 0002:00000970       __real@3f7ffcb9            1008a970     physics_2009:dgCollisionConvexHull.obj
 0002:00000974       __real@b58637bd            1008a974     physics_2009:dgCollisionConvexHull.obj
 0002:00000978       __real@3a000000            1008a978     physics_2009:dgCollisionConvexHull.obj
 0002:0000097c       __real@45000000            1008a97c     physics_2009:dgCollisionConvexHull.obj
 0002:00000980       __real@43000000            1008a980     physics_2009:dgCollisionConvexHull.obj
 0002:00000984       __real@3f7ae148            1008a984     physics_2009:dgCollisionConvexHull.obj
 0002:00000988       ??_7dgBroadPhaseApplyExternalForce@@6B@ 1008a988     physics_2009:dgBroadPhaseCollision.obj
 0002:00000990       ??_7dgBroadPhaseCellPairsWorkerThread@@6B@ 1008a990     physics_2009:dgBroadPhaseCollision.obj
 0002:00000998       ??_7dgBroadPhaseMaterialCallbackWorkerThread@@6B@ 1008a998     physics_2009:dgBroadPhaseCollision.obj
 0002:000009a0       ??_7dgBroadPhaseCalculateContactsWorkerThread@@6B@ 1008a9a0     physics_2009:dgBroadPhaseCollision.obj
 0002:000009a8       __real@c47a0000            1008a9a8     physics_2009:dgBroadPhaseCollision.obj
 0002:000009ac       __real@3c800000            1008a9ac     physics_2009:dgBroadPhaseCollision.obj
 0002:000009b0       __real@4000000000000000    1008a9b0     physics_2009:dgBroadPhaseCollision.obj
 0002:000009b8       ??_7dgUserConstraint@@6B@  1008a9b8     physics_2009:dgUserConstraint.obj
 0002:000009e8       ??_7dgConstraint@@6B@      1008a9e8     physics_2009:dgBilateralConstraint.obj
 0002:00000a10       ??_7dgBilateralConstraint@@6B@ 1008aa10     physics_2009:dgBilateralConstraint.obj
 0002:00000a40       __real@3b23d70a            1008aa40     physics_2009:dgBilateralConstraint.obj
 0002:00000a44       __real@44bb8000            1008aa44     physics_2009:dgBilateralConstraint.obj
 0002:00000a48       __real@461c4000            1008aa48     physics_2009:dgBilateralConstraint.obj
 0002:00000a4c       __real@c61c4000            1008aa4c     physics_2009:dgBilateralConstraint.obj
 0002:00000a50       __real@3fb33334            1008aa50     physics_2009:dgBilateralConstraint.obj
 0002:00000a54       __real@43c80000            1008aa54     physics_2009:dgBilateralConstraint.obj
 0002:00000a58       __real@43bb8000            1008aa58     physics_2009:dgBilateralConstraint.obj
 0002:00000a60       ??_7dgCollisionSphere@@6B@ 1008aa60     physics_2009:dgCollisionSphere.obj
 0002:00000ad4       __real@3ecccccd            1008aad4     physics_2009:dgCollisionSphere.obj
 0002:00000ad8       __real@40860a90            1008aad8     physics_2009:dgCollisionSphere.obj
 0002:00000ae0       ??_7dgConvexCollision@@6B@ 1008aae0     physics_2009:dgConvexCollision.obj
 0002:00000b54       __real@44800000            1008ab54     physics_2009:dgConvexCollision.obj
 0002:00000b58       __real@43800000            1008ab58     physics_2009:dgConvexCollision.obj
 0002:00000b5c       __real@358637bc            1008ab5c     physics_2009:dgConvexCollision.obj
 0002:00000b60       __real@3716feb5            1008ab60     physics_2009:dgConvexCollision.obj
 0002:00000b64       __real@979abe15            1008ab64     physics_2009:dgConvexCollision.obj
 0002:00000b68       __real@2b8cbccc            1008ab68     physics_2009:dgConvexCollision.obj
 0002:00000b70       ??_7dgCollisionNull@@6B@   1008ab70     physics_2009:dgCollisionNull.obj
 0002:00000be4       ??_C@_07FLDMKAK@contact?$AA@ 1008abe4     physics_2009:dgContact.obj
 0002:00000bec       __real@3e99999a            1008abec     physics_2009:dgContact.obj
 0002:00000bf0       __real@42480000            1008abf0     physics_2009:dgContact.obj
 0002:00000bf4       ??_7dgContact@@6B@         1008abf4     physics_2009:dgContact.obj
 0002:00000c20       ??_7dgCollisionConvexModifier@@6B@ 1008ac20     physics_2009:dgCollisionConvexModifier.obj
 0002:00000c94       __real@ccbebc20            1008ac94     physics_2009:dgCollisionConvexModifier.obj
 0002:00000c98       ??_7dgCompoundCollision@@6B@ 1008ac98     physics_2009:dgCompoundCollision.obj
 0002:00000cfc       __real@9e3ce508            1008acfc     physics_2009:dgCompoundCollision.obj
 0002:00000d00       ??_7dgCollisionUserMesh@@6B@ 1008ad00     physics_2009:dgCollisionUserMesh.obj
 0002:00000d70       ??_7dgCollisionHeightField@@6B@ 1008ad70     physics_2009:dgCollisionHeightField.obj
 0002:00000de0       __real@d368d4a5            1008ade0     physics_2009:dgCollisionHeightField.obj
 0002:00000de4       __real@2edbe6ff            1008ade4     physics_2009:dgMinkowskiConv.obj
 0002:00000de8       __real@3af357c2a0000000    1008ade8     physics_2009:dgMinkowskiConv.obj
 0002:00000df0       __real@4415af1d80000000    1008adf0     physics_2009:dgMinkowskiConv.obj
 0002:00000df8       __real@3f7fd806            1008adf8     physics_2009:dgMinkowskiConv.obj
 0002:00000dfc       __real@3d0ef333            1008adfc     physics_2009:dgMinkowskiConv.obj
 0002:00000e00       __real@3f3504f3            1008ae00     physics_2009:dgMinkowskiConv.obj
 0002:00000e04       __real@3d0ef2c6            1008ae04     physics_2009:dgMinkowskiConv.obj
 0002:00000e08       __real@3f7fd814            1008ae08     physics_2009:dgMinkowskiConv.obj
 0002:00000e0c       __real@3a03126f            1008ae0c     physics_2009:dgMinkowskiConv.obj
 0002:00000e10       __real@3089705f            1008ae10     physics_2009:dgMinkowskiConv.obj
 0002:00000e18       __real@3eb0c6f7a0000000    1008ae18     physics_2009:dgMinkowskiConv.obj
 0002:00000e20       __real@4202a05f20000000    1008ae20     physics_2009:dgMinkowskiConv.obj
 0002:00000e28       __real@3f40624de0000000    1008ae28     physics_2009:dgMinkowskiConv.obj
 0002:00000e30       __real@3feffbe760000000    1008ae30     physics_2009:dgMinkowskiConv.obj
 0002:00000e38       __real@3e112e0be0000000    1008ae38     physics_2009:dgMinkowskiConv.obj
 0002:00000e40       __real@38d1b718            1008ae40     physics_2009:dgMinkowskiConv.obj
 0002:00000e48       __real@3eb0c6f7bb730840    1008ae48     physics_2009:dgMinkowskiConv.obj
 0002:00000e50       __real@3f1a36e3068db8c0    1008ae50     physics_2009:dgMinkowskiConv.obj
 0002:00000e58       __real@3b000000            1008ae58     physics_2009:dgMinkowskiConv.obj
 0002:00000e60       __real@3f60000000000000    1008ae60     physics_2009:dgMinkowskiConv.obj
 0002:00000e68       __real@3f80000000000000    1008ae68     physics_2009:dgMinkowskiConv.obj
 0002:00000e70       __real@bf13cd36            1008ae70     physics_2009:dgMinkowskiConv.obj
 0002:00000e74       __real@3f13cd36            1008ae74     physics_2009:dgMinkowskiConv.obj
 0002:00000e78       __real@3f7f7cee            1008ae78     physics_2009:dgMinkowskiConv.obj
 0002:00000e7c       __real@3b800000            1008ae7c     physics_2009:dgMinkowskiConv.obj
 0002:00000e80       __real@3f40000000000000    1008ae80     physics_2009:dgMinkowskiConv.obj
 0002:00000e88       __real@42000000            1008ae88     physics_2009:dgMinkowskiConv.obj
 0002:00000e8c       __real@3d800000            1008ae8c     physics_2009:dgMinkowskiConv.obj
 0002:00000e90       ??_7dgCollisionBox@@6B@    1008ae90     physics_2009:dgCollisionBox.obj
 0002:00000f08       __real@3eaaaaab            1008af08     physics_2009:dgCollisionBox.obj
 0002:00000f0c       __real@41000000            1008af0c     physics_2009:dgCollisionBox.obj
 0002:00000f10       ??_7dgCollision@@6B@       1008af10     physics_2009:dgCollision.obj
 0002:00000f78       ??_7dgCollisionEllipse@@6B@ 1008af78     physics_2009:dgCollisionEllipse.obj
 0002:00000ff0       ??_7dgCollisionCapsule@@6B@ 1008aff0     physics_2009:dgCollisionCapsule.obj
 0002:00001064       __real@3e2aaaab            1008b064     physics_2009:dgCollisionCapsule.obj
 0002:00001068       __real@4086e51b            1008b068     physics_2009:dgCollisionCapsule.obj
 0002:0000106c       __real@40ca57a8            1008b06c     physics_2009:dgCollisionCapsule.obj
 0002:00001070       __real@bf000000            1008b070     physics_2009:dgCollisionCapsule.obj
 0002:00001078       ??_7dgCollisionCone@@6B@   1008b078     physics_2009:dgCollisionCone.obj
 0002:000010ec       __real@3d2aaaab            1008b0ec     physics_2009:dgCollisionCone.obj
 0002:000010f0       __real@3e19999a            1008b0f0     physics_2009:dgCollisionCone.obj
 0002:000010f4       __real@4006e51b            1008b0f4     physics_2009:dgCollisionCone.obj
 0002:00001100       ??_7dgCollisionCylinder@@6B@ 1008b100     physics_2009:dgCollisionCylinder.obj
 0002:00001178       ??_7dgCollisionChamferCylinder@@6B@ 1008b178     physics_2009:dgCollisionChamferCylinder.obj
 0002:000011ec       __real@3f490fd0            1008b1ec     physics_2009:dgCollisionChamferCylinder.obj
 0002:000011f0       __real@3e860a8b            1008b1f0     physics_2009:dgCollisionChamferCylinder.obj
 0002:000011f4       __real@219392ef            1008b1f4     physics_2009:dgCollisionChamferCylinder.obj
 0002:00001208       __real@bfefff9720000000    1008b208     corelib_2009:dgMatrix.obj
 0002:00001210       __real@3fefff9720000000    1008b210     corelib_2009:dgMatrix.obj
 0002:00001218       __real@3f7fffef            1008b218     corelib_2009:dgMatrix.obj
 0002:00001220       __real@3feffffde0000000    1008b220     corelib_2009:dgMatrix.obj
 0002:00001228       __real@bf7fffef            1008b228     corelib_2009:dgMatrix.obj
 0002:00001230       __real@bfeffffde0000000    1008b230     corelib_2009:dgMatrix.obj
 0002:00001238       __real@3f1a36e2eb1c432d    1008b238     corelib_2009:dgTypes.obj
 0002:00001248       __real@3d71979980000000    1008b248     corelib_2009:dgPolyhedra.obj
 0002:00001250       __real@4024000000000000    1008b250     corelib_2009:dgPolyhedra.obj
 0002:00001258       __real@4030000000000000    1008b258     corelib_2009:dgPolyhedra.obj
 0002:00001260       __real@3fe69fbe80000000    1008b260     corelib_2009:dgPolyhedra.obj
 0002:00001268       __real@bfecccccc0000000    1008b268     corelib_2009:dgPolyhedra.obj
 0002:00001270       ??_7dgPolyhedra@@6B@       1008b270     corelib_2009:dgPolyhedra.obj
 0002:00001278       __real@4010000000000000    1008b278     corelib_2009:dgPolyhedra.obj
 0002:00001280       __real@3fa99999a0000000    1008b280     corelib_2009:dgPolyhedra.obj
 0002:00001288       __real@3fb99999a0000000    1008b288     corelib_2009:dgPolyhedra.obj
 0002:00001290       __real@3f70000000000000    1008b290     corelib_2009:dgPolyhedra.obj
 0002:00001298       ??_7dgPolygonSoupDatabase@@6B@ 1008b298     corelib_2009:dgAABBPolygonSoup.obj
 0002:000012b8       ??_7dgAABBPolygonSoup@@6B@ 1008b2b8     corelib_2009:dgAABBPolygonSoup.obj
 0002:000012e0       __real@bf1a36e2e0000000    1008b2e0     corelib_2009:dgAABBPolygonSoup.obj
 0002:000012e8       ??_7dgPolySoupFilterAllocator@@6B@ 1008b2e8     corelib_2009:dgPolygonSoupBuilder.obj
 0002:000012f0       __real@3bc79ca100000000    1008b2f0     corelib_2009:dgPolygonSoupBuilder.obj
 0002:000012f8       __real@3fb5555560000000    1008b2f8     corelib_2009:dgPolygonSoupBuilder.obj
 0002:00001300       __real@bf91eb8520000000    1008b300     corelib_2009:dgIntersections.obj
 0002:00001308       __real@bc23d70a            1008b308     corelib_2009:dgIntersections.obj
 0002:00001358       __FPinit                   1008b358     LIBCMT:_fpinit_.obj
 0002:0000135c       __FPmtinit                 1008b35c     LIBCMT:_fpinit_.obj
 0002:00001360       __FPmtterm                 1008b360     LIBCMT:_fpinit_.obj
 0002:00001364       __pRawDllMain              1008b364     LIBCMT:dllcrt0.obj
 0002:00001364       __pDefaultRawDllMain       1008b364     LIBCMT:dllcrt0.obj
 0002:000013d0       ??_C@_03IIINPABG@tan?$AA@  1008b3d0     LIBCMT:_libm_error_.obj
 0002:000013d4       ??_C@_03LALBNOCG@cos?$AA@  1008b3d4     LIBCMT:_libm_error_.obj
 0002:000013d8       ??_C@_03BLEJJJBH@sin?$AA@  1008b3d8     LIBCMT:_libm_error_.obj
 0002:000013dc       ??_C@_04EHEDPDJG@modf?$AA@ 1008b3dc     LIBCMT:_libm_error_.obj
 0002:000013e4       ??_C@_05PBJFFIGL@floor?$AA@ 1008b3e4     LIBCMT:_libm_error_.obj
 0002:000013ec       ??_C@_04GFPJNGEK@ceil?$AA@ 1008b3ec     LIBCMT:_libm_error_.obj
 0002:000013f4       ??_C@_04MLLJIGOK@atan?$AA@ 1008b3f4     LIBCMT:_libm_error_.obj
 0002:000013fc       ??_C@_05EOHGHCHD@exp10?$AA@ 1008b3fc     LIBCMT:_libm_error_.obj
 0002:00001404       ??_C@_04PDIFKINK@acos?$AA@ 1008b404     LIBCMT:_libm_error_.obj
 0002:0000140c       ??_C@_04FIHNOPOL@asin?$AA@ 1008b40c     LIBCMT:_libm_error_.obj
 0002:00001414       ??_C@_03MGHMBJCF@log?$AA@  1008b414     LIBCMT:_libm_error_.obj
 0002:00001418       ??_C@_05HGHHAHAP@log10?$AA@ 1008b418     LIBCMT:_libm_error_.obj
 0002:00001420       ??_C@_03KHJOGHMM@exp?$AA@  1008b420     LIBCMT:_libm_error_.obj
 0002:00001424       ??_C@_03JGHBODFD@pow?$AA@  1008b424     LIBCMT:_libm_error_.obj
 0002:00001428       ??_C@_05KLBDPFGC@e?$CL000?$AA@ 1008b428     LIBCMT:cvt.obj
 0002:00001430       __real@4150017ec0000000    1008b430     LIBCMT:_testfdiv_.obj
 0002:00001438       __real@4147ffff80000000    1008b438     LIBCMT:_testfdiv_.obj
 0002:00001440       ??_C@_0BK@NHEOCAHP@IsProcessorFeaturePresent?$AA@ 1008b440     LIBCMT:_testfdiv_.obj
 0002:0000145c       ??_C@_08CPNIBGIE@KERNEL32?$AA@ 1008b45c     LIBCMT:_testfdiv_.obj
 0002:00001468       ??_C@_0P@MIGLKIOC@CorExitProcess?$AA@ 1008b468     LIBCMT:crt0dat.obj
 0002:00001478       ??_C@_1BI@BGOHAHKC@?$AAm?$AAs?$AAc?$AAo?$AAr?$AAe?$AAe?$AA?4?$AAd?$AAl?$AAl?$AA?$AA@ 1008b478     LIBCMT:crt0dat.obj
 0002:00001490       ??_C@_0P@GGKDKEEG@runtime?5error?5?$AA@ 1008b490     LIBCMT:crt0msg.obj
 0002:000014a0       ??_C@_02PCIJFNDE@?$AN?6?$AA@ 1008b4a0     LIBCMT:crt0msg.obj
 0002:000014a4       ??_C@_0O@MJNIPGOH@TLOSS?5error?$AN?6?$AA@ 1008b4a4     LIBCMT:crt0msg.obj
 0002:000014b4       ??_C@_0N@BONNPDHF@SING?5error?$AN?6?$AA@ 1008b4b4     LIBCMT:crt0msg.obj
 0002:000014c4       ??_C@_0P@MBDAJNE@DOMAIN?5error?$AN?6?$AA@ 1008b4c4     LIBCMT:crt0msg.obj
 0002:000014d8       ??_C@_0JL@DFDOOABL@R6034?$AN?6An?5application?5has?5made?5a@ 1008b4d8     LIBCMT:crt0msg.obj
 0002:00001578       ??_C@_0PH@EPAFIJ@R6033?$AN?6?9?5Attempt?5to?5use?5MSIL?5cod@ 1008b578     LIBCMT:crt0msg.obj
 0002:00001670       ??_C@_0DD@BKEEABMM@R6032?$AN?6?9?5not?5enough?5space?5for?5lo@ 1008b670     LIBCMT:crt0msg.obj
 0002:000016a8       ??_C@_0GD@OFKILIED@R6031?$AN?6?9?5Attempt?5to?5initialize?5t@ 1008b6a8     LIBCMT:crt0msg.obj
 0002:0000170c       ??_C@_0BP@LPMHJOKI@R6030?$AN?6?9?5CRT?5not?5initialized?$AN?6?$AA@ 1008b70c     LIBCMT:crt0msg.obj
 0002:0000172c       ??_C@_0CF@KJDAIALP@R6028?$AN?6?9?5unable?5to?5initialize?5he@ 1008b72c     LIBCMT:crt0msg.obj
 0002:00001754       ??_C@_0DF@GAKBPDFP@R6027?$AN?6?9?5not?5enough?5space?5for?5lo@ 1008b754     LIBCMT:crt0msg.obj
 0002:0000178c       ??_C@_0DF@IBLNNAIG@R6026?$AN?6?9?5not?5enough?5space?5for?5st@ 1008b78c     LIBCMT:crt0msg.obj
 0002:000017c4       ??_C@_0CG@IOHKGFNJ@R6025?$AN?6?9?5pure?5virtual?5function?5c@ 1008b7c4     LIBCMT:crt0msg.obj
 0002:000017ec       ??_C@_0DF@JIJJFJDC@R6024?$AN?6?9?5not?5enough?5space?5for?5_o@ 1008b7ec     LIBCMT:crt0msg.obj
 0002:00001824       ??_C@_0CJ@EGEJHFME@R6019?$AN?6?9?5unable?5to?5open?5console?5@ 1008b824     LIBCMT:crt0msg.obj
 0002:00001850       ??_C@_0CB@GNHNIELH@R6018?$AN?6?9?5unexpected?5heap?5error?$AN?6@ 1008b850     LIBCMT:crt0msg.obj
 0002:00001874       ??_C@_0CN@FOLDKNG@R6017?$AN?6?9?5unexpected?5multithread?5@ 1008b874     LIBCMT:crt0msg.obj
 0002:000018a4       ??_C@_0CM@FAHFJNHO@R6016?$AN?6?9?5not?5enough?5space?5for?5th@ 1008b8a4     LIBCMT:crt0msg.obj
 0002:000018d0       ??_C@_0JG@LBKMGKLD@?$AN?6This?5application?5has?5requested@ 1008b8d0     LIBCMT:crt0msg.obj
 0002:00001968       ??_C@_0CM@FLCNIPKK@R6009?$AN?6?9?5not?5enough?5space?5for?5en@ 1008b968     LIBCMT:crt0msg.obj
 0002:00001994       ??_C@_0CK@KMMJOAPP@R6008?$AN?6?9?5not?5enough?5space?5for?5ar@ 1008b994     LIBCMT:crt0msg.obj
 0002:000019c0       ??_C@_0CN@LEKKICBM@R6002?$AN?6?9?5floating?5point?5support?5@ 1008b9c0     LIBCMT:crt0msg.obj
 0002:000019f0       ??_C@_0CF@GOGNBNAK@Microsoft?5Visual?5C?$CL?$CL?5Runtime?5Lib@ 1008b9f0     LIBCMT:crt0msg.obj
 0002:00001a18       ??_C@_02PHMGELLB@?6?6?$AA@ 1008ba18     LIBCMT:crt0msg.obj
 0002:00001a1c       ??_C@_03KHICJKCI@?4?4?4?$AA@ 1008ba1c     LIBCMT:crt0msg.obj
 0002:00001a20       ??_C@_0BH@DNAGHKFM@?$DMprogram?5name?5unknown?$DO?$AA@ 1008ba20     LIBCMT:crt0msg.obj
 0002:00001a38       ??_C@_0BK@OFGJDLJJ@Runtime?5Error?$CB?6?6Program?3?5?$AA@ 1008ba38     LIBCMT:crt0msg.obj
 0002:00001a54       ??_C@_0O@NLDKAIKN@EncodePointer?$AA@ 1008ba54     LIBCMT:tidtable.obj
 0002:00001a64       ??_C@_1BK@DBDEIDLH@?$AAK?$AAE?$AAR?$AAN?$AAE?$AAL?$AA3?$AA2?$AA?4?$AAD?$AAL?$AAL?$AA?$AA@ 1008ba64     LIBCMT:tidtable.obj
 0002:00001a80       ??_C@_0O@KBPMFGHI@DecodePointer?$AA@ 1008ba80     LIBCMT:tidtable.obj
 0002:00001a90       ??_C@_07PEJMOBNF@FlsFree?$AA@ 1008ba90     LIBCMT:tidtable.obj
 0002:00001a98       ??_C@_0M@JCPCPOEF@FlsSetValue?$AA@ 1008ba98     LIBCMT:tidtable.obj
 0002:00001aa4       ??_C@_0M@GDNOONDI@FlsGetValue?$AA@ 1008baa4     LIBCMT:tidtable.obj
 0002:00001ab0       ??_C@_08KNHFBNJ@FlsAlloc?$AA@ 1008bab0     LIBCMT:tidtable.obj
 0002:00001ac0       __XcptActTab               1008bac0     LIBCMT:winxfltr.obj
 0002:00001b38       ??_C@_1O@CEDCILHN@?$AA?$CI?$AAn?$AAu?$AAl?$AAl?$AA?$CJ?$AA?$AA@ 1008bb38     LIBCMT:output.obj
 0002:00001b48       ??_C@_06OJHGLDPL@?$CInull?$CJ?$AA@ 1008bb48     LIBCMT:output.obj
 0002:00001b50       ___lookuptable             1008bb50     LIBCMT:output.obj
 0002:000054f8       __DEFAULT_CW_in_mem        1008f4f8     LIBCMT:_common_.obj
 0002:000054fa       __pi_by_2_to_61            1008f4fa     LIBCMT:_common_.obj
 0002:00005534       ??_C@_0L@KDOEJCKC@_nextafter?$AA@ 1008f534     LIBCMT:_fpexcept_.obj
 0002:00005540       ??_C@_05JGDBENOH@_logb?$AA@ 1008f540     LIBCMT:_fpexcept_.obj
 0002:00005548       ??_C@_03ONILCKOB@_yn?$AA@  1008f548     LIBCMT:_fpexcept_.obj
 0002:0000554c       ??_C@_03NAKIGLHK@_y1?$AA@  1008f54c     LIBCMT:_fpexcept_.obj
 0002:00005550       ??_C@_03MJLDFKDL@_y0?$AA@  1008f550     LIBCMT:_fpexcept_.obj
 0002:00005554       ??_C@_05GKKHEGJL@frexp?$AA@ 1008f554     LIBCMT:_fpexcept_.obj
 0002:0000555c       ??_C@_04KEPJIHGP@fmod?$AA@ 1008f55c     LIBCMT:_fpexcept_.obj
 0002:00005564       ??_C@_06MEIMCGCF@_hypot?$AA@ 1008f564     LIBCMT:_fpexcept_.obj
 0002:0000556c       ??_C@_05KBKMEMPO@_cabs?$AA@ 1008f56c     LIBCMT:_fpexcept_.obj
 0002:00005574       ??_C@_05CEJMAHNP@ldexp?$AA@ 1008f574     LIBCMT:_fpexcept_.obj
 0002:0000557c       ??_C@_04ODHECPBC@fabs?$AA@ 1008f57c     LIBCMT:_fpexcept_.obj
 0002:00005584       ??_C@_04EIAKFFMI@sqrt?$AA@ 1008f584     LIBCMT:_fpexcept_.obj
 0002:0000558c       ??_C@_05KNGEOGJB@atan2?$AA@ 1008f58c     LIBCMT:_fpexcept_.obj
 0002:00005594       ??_C@_04FJHINJAO@tanh?$AA@ 1008f594     LIBCMT:_fpexcept_.obj
 0002:0000559c       ??_C@_04HPJJNFIM@cosh?$AA@ 1008f59c     LIBCMT:_fpexcept_.obj
 0002:000055a4       ??_C@_04COOMCNPB@sinh?$AA@ 1008f5a4     LIBCMT:_fpexcept_.obj
 0002:00005630       ??_C@_0BI@DFKBFLJE@GetProcessWindowStation?$AA@ 1008f630     LIBCMT:crtmbox.obj
 0002:00005648       ??_C@_0BK@CIDNPOGP@GetUserObjectInformationA?$AA@ 1008f648     LIBCMT:crtmbox.obj
 0002:00005664       ??_C@_0BD@HHGDFDBJ@GetLastActivePopup?$AA@ 1008f664     LIBCMT:crtmbox.obj
 0002:00005678       ??_C@_0BA@HNOPNCHB@GetActiveWindow?$AA@ 1008f678     LIBCMT:crtmbox.obj
 0002:00005688       ??_C@_0M@CHKKJDAI@MessageBoxA?$AA@ 1008f688     LIBCMT:crtmbox.obj
 0002:00005694       ??_C@_0L@NDEGIDAG@USER32?4DLL?$AA@ 1008f694     LIBCMT:crtmbox.obj
 0002:000056a0       ___lookuptable_s           1008f6a0     LIBCMT:outputs.obj
 0002:00005700       ___newctype                1008f700     LIBCMT:ctype.obj
 0002:00005a00       __wctype                   1008fa00     LIBCMT:ctype.obj
 0002:00005c08       ___newclmap                1008fc08     LIBCMT:ctype.obj
 0002:00005d88       ___newcumap                1008fd88     LIBCMT:ctype.obj
 0002:00005f08       ??_C@_08JCCMCCIL@HH?3mm?3ss?$AA@ 1008ff08     LIBCMT:strftime.obj
 0002:00005f14       ??_C@_0BE@CKGJFCPC@dddd?0?5MMMM?5dd?0?5yyyy?$AA@ 1008ff14     LIBCMT:strftime.obj
 0002:00005f28       ??_C@_08BPBNCDIB@MM?1dd?1yy?$AA@ 1008ff28     LIBCMT:strftime.obj
 0002:00005f34       ??_C@_02CJNFDJBF@PM?$AA@   1008ff34     LIBCMT:strftime.obj
 0002:00005f38       ??_C@_02DEDBPAFC@AM?$AA@   1008ff38     LIBCMT:strftime.obj
 0002:00005f3c       ??_C@_08EDHMEBNP@December?$AA@ 1008ff3c     LIBCMT:strftime.obj
 0002:00005f48       ??_C@_08HCHEGEOA@November?$AA@ 1008ff48     LIBCMT:strftime.obj
 0002:00005f54       ??_C@_07JJNFCEND@October?$AA@ 1008ff54     LIBCMT:strftime.obj
 0002:00005f5c       ??_C@_09BHHEALKD@September?$AA@ 1008ff5c     LIBCMT:strftime.obj
 0002:00005f68       ??_C@_06LBBHFDDG@August?$AA@ 1008ff68     LIBCMT:strftime.obj
 0002:00005f70       ??_C@_04MIEPOIFP@July?$AA@ 1008ff70     LIBCMT:strftime.obj
 0002:00005f78       ??_C@_04CNLMGBGM@June?$AA@ 1008ff78     LIBCMT:strftime.obj
 0002:00005f80       ??_C@_05DMJDNLEJ@April?$AA@ 1008ff80     LIBCMT:strftime.obj
 0002:00005f88       ??_C@_05HPCKOFNC@March?$AA@ 1008ff88     LIBCMT:strftime.obj
 0002:00005f90       ??_C@_08GNJGEPFN@February?$AA@ 1008ff90     LIBCMT:strftime.obj
 0002:00005f9c       ??_C@_07CGJPFGJA@January?$AA@ 1008ff9c     LIBCMT:strftime.obj
 0002:00005fa4       ??_C@_03MKABNOCG@Dec?$AA@  1008ffa4     LIBCMT:strftime.obj
 0002:00005fa8       ??_C@_03JPJOFNIA@Nov?$AA@  1008ffa8     LIBCMT:strftime.obj
 0002:00005fac       ??_C@_03BMAOKBAD@Oct?$AA@  1008ffac     LIBCMT:strftime.obj
 0002:00005fb0       ??_C@_03GGCAPAJC@Sep?$AA@  1008ffb0     LIBCMT:strftime.obj
 0002:00005fb4       ??_C@_03IFJFEIGA@Aug?$AA@  1008ffb4     LIBCMT:strftime.obj
 0002:00005fb8       ??_C@_03LBGABGKK@Jul?$AA@  1008ffb8     LIBCMT:strftime.obj
 0002:00005fbc       ??_C@_03IDFGHECI@Jun?$AA@  1008ffbc     LIBCMT:strftime.obj
 0002:00005fc0       ??_C@_03CNMDKL@May?$AA@    1008ffc0     LIBCMT:strftime.obj
 0002:00005fc4       ??_C@_03LEOLGMJP@Apr?$AA@  1008ffc4     LIBCMT:strftime.obj
 0002:00005fc8       ??_C@_03ODNJBKGA@Mar?$AA@  1008ffc8     LIBCMT:strftime.obj
 0002:00005fcc       ??_C@_03HJBDCHOM@Feb?$AA@  1008ffcc     LIBCMT:strftime.obj
 0002:00005fd0       ??_C@_03JIHJHPIE@Jan?$AA@  1008ffd0     LIBCMT:strftime.obj
 0002:00005fd4       ??_C@_08INBOOONO@Saturday?$AA@ 1008ffd4     LIBCMT:strftime.obj
 0002:00005fe0       ??_C@_06JECMNKMI@Friday?$AA@ 1008ffe0     LIBCMT:strftime.obj
 0002:00005fe8       ??_C@_08HACCIKIA@Thursday?$AA@ 1008ffe8     LIBCMT:strftime.obj
 0002:00005ff4       ??_C@_09DLIGFAKA@Wednesday?$AA@ 1008fff4     LIBCMT:strftime.obj
 0002:00006000       ??_C@_07BAAGCFCM@Tuesday?$AA@ 10090000     LIBCMT:strftime.obj
 0002:00006008       ??_C@_06JLEDEDGH@Monday?$AA@ 10090008     LIBCMT:strftime.obj
 0002:00006010       ??_C@_06OOPIFAJ@Sunday?$AA@ 10090010     LIBCMT:strftime.obj
 0002:00006018       ??_C@_03FEFJNEK@Sat?$AA@   10090018     LIBCMT:strftime.obj
 0002:0000601c       ??_C@_03IDIOELNC@Fri?$AA@  1009001c     LIBCMT:strftime.obj
 0002:00006020       ??_C@_03IOFIKPDN@Thu?$AA@  10090020     LIBCMT:strftime.obj
 0002:00006024       ??_C@_03MHOMLAJA@Wed?$AA@  10090024     LIBCMT:strftime.obj
 0002:00006028       ??_C@_03NAGEINEP@Tue?$AA@  10090028     LIBCMT:strftime.obj
 0002:0000602c       ??_C@_03PDAGKDH@Mon?$AA@   1009002c     LIBCMT:strftime.obj
 0002:00006030       ??_C@_03KOEHGMDN@Sun?$AA@  10090030     LIBCMT:strftime.obj
 0002:00006034       ??_C@_06IMKFLFPG@1?$CDQNAN?$AA@ 10090034     LIBCMT:_x10fout_.obj
 0002:0000603c       ??_C@_05DNEBIAHO@1?$CDINF?$AA@ 1009003c     LIBCMT:_x10fout_.obj
 0002:00006044       ??_C@_05PHHOCPM@1?$CDIND?$AA@ 10090044     LIBCMT:_x10fout_.obj
 0002:0000604c       ??_C@_06PGGFOGJG@1?$CDSNAN?$AA@ 1009004c     LIBCMT:_x10fout_.obj
 0002:0000605c       ___dnames                  1009005c     LIBCMT:timeset.obj
 0002:00006074       ___mnames                  10090074     LIBCMT:timeset.obj
 0002:0000609c       ??_C@_07GPDNMNG@CONOUT$?$AA@ 1009009c     LIBCMT:initcon.obj
 0002:000060a8       __load_config_used         100900a8     LIBCMT:loadcfg.obj
 0002:00006150       ___safe_se_handler_table   10090150     <linker-defined>
 0002:00006160       ___rtc_iaa                 10090160     LIBCMT:_initsect_.obj
 0002:00006164       ___rtc_izz                 10090164     LIBCMT:_initsect_.obj
 0002:00006168       ___rtc_taa                 10090168     LIBCMT:_initsect_.obj
 0002:0000616c       ___rtc_tzz                 1009016c     LIBCMT:_initsect_.obj
 0002:00006574       __IMPORT_DESCRIPTOR_KERNEL32 10090574     kernel32:KERNEL32.dll
 0002:00006588       __NULL_IMPORT_DESCRIPTOR   10090588     kernel32:KERNEL32.dll
 0003:00000020       ?m_rayCastSimplex@dgConvexCollision@@1PAY03HA 10094020     physics_2009:dgConvexCollision.obj
 0003:00000060       ?m_hullDirs@dgConvexCollision@@1PAVdgTriplex@@A 10094060     physics_2009:dgConvexCollision.obj
 0003:00000108       ?mult@dgConvexMassData@@2PAMA 10094108     physics_2009:dgConvexCollision.obj
 0003:00000140       ?m_negOne@dgConvexCollision@@1VdgVector@@A 10094140     physics_2009:dgConvexCollision.obj
 0003:00000150       ?m_nrh0p5@dgConvexCollision@@1VdgVector@@A 10094150     physics_2009:dgConvexCollision.obj
 0003:00000160       ?m_nrh3p0@dgConvexCollision@@1VdgVector@@A 10094160     physics_2009:dgConvexCollision.obj
 0003:00000170       ?m_indexStep@dgConvexCollision@@1VdgVector@@A 10094170     physics_2009:dgConvexCollision.obj
 0003:00000180       ?m_index_0123@dgConvexCollision@@1VdgVector@@A 10094180     physics_2009:dgConvexCollision.obj
 0003:00000190       ?m_index_4567@dgConvexCollision@@1VdgVector@@A 10094190     physics_2009:dgConvexCollision.obj
 0003:000001a0       ?m_huge@dgConvexCollision@@1VdgVector@@A 100941a0     physics_2009:dgConvexCollision.obj
 0003:000001b0       ?m_negativeTiny@dgConvexCollision@@1VdgVector@@A 100941b0     physics_2009:dgConvexCollision.obj
 0003:000001c0       ?m_aabb_padd@dgConvexCollision@@1VdgVector@@A 100941c0     physics_2009:dgConvexCollision.obj
 0003:000001d0       ?m_faceIndex@dgContactSolver@@2PAY03HA 100941d0     physics_2009:dgMinkowskiConv.obj
 0003:00000210       ?m_edgeArray@dgCollisionBox@@1PAVdgConvexSimplexEdge@@A 10094210     physics_2009:dgCollisionBox.obj
 0003:000003a0       ?g_allocaror@dgInternalMemory@@3VdgMemoryAllocator@@A 100943a0     corelib_2009:dgMemory.obj
 0003:000008d0       __fltused                  100948d0     LIBCMT:_fpinit_.obj
 0003:000008d4       __ldused                   100948d4     LIBCMT:_fpinit_.obj
 0003:000008e0       __half                     100948e0     LIBCMT:_pow_.obj
 0003:000008fc       __cfltcvt_tab              100948fc     LIBCMT:cmiscdat.obj
 0003:00000a48       __amblksiz                 10094a48     LIBCMT:heapinit.obj
 0003:00000a4c       __aexit_rtn                10094a4c     LIBCMT:crt0dat.obj
 0003:00000c78       ___flsindex                10094c78     LIBCMT:tidtable.obj
 0003:00000c7c       ___getvalueindex           10094c7c     LIBCMT:tidtable.obj
 0003:00000c80       ___badioinfo               10094c80     LIBCMT:ioinit.obj
 0003:00000cc0       __First_FPE_Indx           10094cc0     LIBCMT:winxfltr.obj
 0003:00000cc4       __Num_FPE                  10094cc4     LIBCMT:winxfltr.obj
 0003:00000cc8       __XcptActTabSize           10094cc8     LIBCMT:winxfltr.obj
 0003:00000ccc       __XcptActTabCount          10094ccc     LIBCMT:winxfltr.obj
 0003:00000cd0       ___nullstring              10094cd0     LIBCMT:output.obj
 0003:00000cd4       ___wnullstring             10094cd4     LIBCMT:output.obj
 0003:00000cf4       ___abort_behavior          10094cf4     LIBCMT:abort.obj
 0003:00000d00       __infinity                 10094d00     LIBCMT:_87tran_.obj
 0003:00000d0a       __minfinity                10094d0a     LIBCMT:_87tran_.obj
 0003:00000d14       __logemax                  10094d14     LIBCMT:_87tran_.obj
 0003:00000d3a       __OP_EXPjmptab             10094d3a     LIBCMT:_87tran_.obj
 0003:00000d60       __indefinite               10094d60     LIBCMT:_87disp_.obj
 0003:00000d6a       __piby2                    10094d6a     LIBCMT:_87disp_.obj
 0003:00000d90       __NLG_Destination          10094d90     LIBCMT:exsup.obj
 0003:00000da0       __matherr_flag             10094da0     LIBCMT:_matherr_.obj
 0003:00000e90       __d_inf                    10094e90     LIBCMT:_util_.obj
 0003:00000e98       __d_ind                    10094e98     LIBCMT:_util_.obj
 0003:00000ea0       __d_max                    10094ea0     LIBCMT:_util_.obj
 0003:00000ea8       __d_min                    10094ea8     LIBCMT:_util_.obj
 0003:00000eb0       __d_mzero                  10094eb0     LIBCMT:_util_.obj
 0003:00000ec0       ___initialmbcinfo          10094ec0     LIBCMT:mbctype.obj
 0003:000010e0       __mbctype                  100950e0     LIBCMT:mbctype.obj
 0003:000011e8       __mbcasemap                100951e8     LIBCMT:mbctype.obj
 0003:000012e8       ___ptmbcinfo               100952e8     LIBCMT:mbctype.obj
 0003:000013e4       ___globallocalestatus      100953e4     LIBCMT:glstatus.obj
 0003:000013e8       ___clocalestr              100953e8     LIBCMT:nlsdata2.obj
 0003:000013f0       ___initiallocinfo          100953f0     LIBCMT:nlsdata2.obj
 0003:000014c8       ___ptlocinfo               100954c8     LIBCMT:nlsdata2.obj
 0003:000014cc       ___lc_clike                100954cc     LIBCMT:nlsdata2.obj
 0003:000014d0       ___initiallocalestructinfo 100954d0     LIBCMT:nlsdata2.obj
 0003:000014e0       ___security_cookie         100954e0     LIBCMT:gs_cookie.obj
 0003:000014e4       ___security_cookie_complement 100954e4     LIBCMT:gs_cookie.obj
 0003:000014f0       __iob                      100954f0     LIBCMT:_file.obj
 0003:000018d0       __pctype                   100958d0     LIBCMT:ctype.obj
 0003:000018d4       __pwctype                  100958d4     LIBCMT:ctype.obj
 0003:000018d8       ___lc_time_c               100958d8     LIBCMT:strftime.obj
 0003:00001990       ___lc_time_curr            10095990     LIBCMT:strftime.obj
 0003:00001994       ___lconv_static_decimal    10095994     LIBCMT:lconv.obj
 0003:00001998       ___lconv_c                 10095998     LIBCMT:lconv.obj
 0003:000019c8       ___lconv                   100959c8     LIBCMT:lconv.obj
 0003:000019cc       ___mb_cur_max              100959cc     LIBCMT:nlsdata1.obj
 0003:000019d0       ___decimal_point           100959d0     LIBCMT:nlsdata1.obj
 0003:000019d4       ___decimal_point_length    100959d4     LIBCMT:nlsdata1.obj
 0003:00001a20       __timezone                 10095a20     LIBCMT:timeset.obj
 0003:00001a24       __daylight                 10095a24     LIBCMT:timeset.obj
 0003:00001a28       __dstbias                  10095a28     LIBCMT:timeset.obj
 0003:00001ab0       __tzname                   10095ab0     LIBCMT:timeset.obj
 0003:00001ad0       __pow10pos                 10095ad0     LIBCMT:_constpow_.obj
 0003:00001c30       __pow10neg                 10095c30     LIBCMT:_constpow_.obj
 0003:00001d8c       __coninpfh                 10095d8c     LIBCMT:initcon.obj
 0003:00001d90       __confh                    10095d90     LIBCMT:initcon.obj
 0003:00001d94       __lpdays                   10095d94     LIBCMT:days.obj
 0003:00001dc8       __days                     10095dc8     LIBCMT:days.obj
 0003:00001e10       ?m_edgeArray@dgCollisionSphere@@1PAVdgConvexSimplexEdge@@A 10095e10     physics_2009:dgCollisionSphere.obj
 0003:00002410       ?m_shapeRefCount@dgCollisionSphere@@1HA 10096410     physics_2009:dgCollisionSphere.obj
 0003:00002420       ?m_unitSphere@dgCollisionSphere@@1PAVdgVector@@A 10096420     physics_2009:dgCollisionSphere.obj
 0003:00002540       ?m_iniliazised@dgConvexCollision@@1HA 10096540     physics_2009:dgConvexCollision.obj
 0003:00002550       ?m_zero@dgConvexCollision@@1VdgVector@@A 10096550     physics_2009:dgConvexCollision.obj
 0003:00002560       ?m_signMask@dgConvexCollision@@1VdgVector@@A 10096560     physics_2009:dgConvexCollision.obj
 0003:00002570       ?m_triplexMask@dgConvexCollision@@1VdgVector@@A 10096570     physics_2009:dgConvexCollision.obj
 0003:00002580       ?m_multiResDir@dgConvexCollision@@1PAVdgVector@@A 10096580     physics_2009:dgConvexCollision.obj
 0003:00002600       ?m_multiResDir_sse@dgConvexCollision@@1PAVdgVector@@A 10096600     physics_2009:dgConvexCollision.obj
 0003:00002660       ?m_vertex@dgCollisionHeightField@@0PAPAVdgVector@@A 10096660     physics_2009:dgCollisionHeightField.obj
 0003:00002680       ?m_vertexCount@dgCollisionHeightField@@0PAHA 10096680     physics_2009:dgCollisionHeightField.obj
 0003:000026a0       ?m_refCount@dgCollisionHeightField@@0HA 100966a0     physics_2009:dgCollisionHeightField.obj
 0003:000026b0       ?m_negIndex@dgContactSolver@@2T__m128@@A 100966b0     physics_2009:dgMinkowskiConv.obj
 0003:000026c0       ?m_zero@dgContactSolver@@2T__m128@@A 100966c0     physics_2009:dgMinkowskiConv.obj
 0003:000026d0       ?m_index_yx@dgContactSolver@@2T__m128@@A 100966d0     physics_2009:dgMinkowskiConv.obj
 0003:000026e0       ?m_index_wz@dgContactSolver@@2T__m128@@A 100966e0     physics_2009:dgMinkowskiConv.obj
 0003:000026f0       ?m_zeroTolerenace@dgContactSolver@@2T__m128@@A 100966f0     physics_2009:dgMinkowskiConv.obj
 0003:00002700       ?m_nrh0p5@dgContactSolver@@2T__m128@@A 10096700     physics_2009:dgMinkowskiConv.obj
 0003:00002710       ?m_nrh3p0@dgContactSolver@@2T__m128@@A 10096710     physics_2009:dgMinkowskiConv.obj
 0003:00002720       ?m_negativeOne@dgContactSolver@@2T__m128@@A 10096720     physics_2009:dgMinkowskiConv.obj
 0003:00002730       ?m_dir@dgContactSolver@@2PAVdgVector@@A 10096730     physics_2009:dgMinkowskiConv.obj
 0003:00002810       ?m_edgeArray@dgCollisionCapsule@@0PAVdgConvexSimplexEdge@@A 10096810     physics_2009:dgCollisionCapsule.obj
 0003:00003350       ?m_shapeRefCount@dgCollisionCapsule@@0HA 10097350     physics_2009:dgCollisionCapsule.obj
 0003:00003358       ?m_edgeArray@dgCollisionCone@@0PAVdgConvexSimplexEdge@@A 10097358     physics_2009:dgCollisionCone.obj
 0003:00003558       ?m_shapeRefCount@dgCollisionCone@@0HA 10097558     physics_2009:dgCollisionCone.obj
 0003:00003560       ?m_edgeArray@dgCollisionCylinder@@0PAVdgConvexSimplexEdge@@A 10097560     physics_2009:dgCollisionCylinder.obj
 0003:00003860       ?m_shapeRefCount@dgCollisionCylinder@@0HA 10097860     physics_2009:dgCollisionCylinder.obj
 0003:00003870       ?m_edgeArray@dgCollisionChamferCylinder@@0PAVdgConvexSimplexEdge@@A 10097870     physics_2009:dgCollisionChamferCylinder.obj
 0003:00004170       ?m_shapeRefCount@dgCollisionChamferCylinder@@0HA 10098170     physics_2009:dgCollisionChamferCylinder.obj
 0003:00004180       ?m_shapesDirs@dgCollisionChamferCylinder@@0PAVdgVector@@A 10098180     physics_2009:dgCollisionChamferCylinder.obj
 0003:00004244       ___fastflag                10098244     LIBCMT:_fpinit_.obj
 0003:00004248       __adjust_fdiv              10098248     LIBCMT:_fpinit_.obj
 0003:00004250       __aenvptr                  10098250     LIBCMT:dllcrt0.obj
 0003:00004254       __wenvptr                  10098254     LIBCMT:dllcrt0.obj
 0003:00004258       ___error_mode              10098258     LIBCMT:dllcrt0.obj
 0003:0000425c       ___app_type                1009825c     LIBCMT:dllcrt0.obj
 0003:000043b8       ___sbh_pHeaderDefer        100983b8     LIBCMT:sbheap.obj
 0003:000043bc       __crtheap                  100983bc     LIBCMT:heapinit.obj
 0003:000043c0       __umaskval                 100983c0     LIBCMT:crt0dat.obj
 0003:000043c4       ___argc                    100983c4     LIBCMT:crt0dat.obj
 0003:000043c8       ___argv                    100983c8     LIBCMT:crt0dat.obj
 0003:000043cc       ___wargv                   100983cc     LIBCMT:crt0dat.obj
 0003:000043d0       __environ                  100983d0     LIBCMT:crt0dat.obj
 0003:000043d4       ___initenv                 100983d4     LIBCMT:crt0dat.obj
 0003:000043d8       __wenviron                 100983d8     LIBCMT:crt0dat.obj
 0003:000043dc       ___winitenv                100983dc     LIBCMT:crt0dat.obj
 0003:000043e0       __pgmptr                   100983e0     LIBCMT:crt0dat.obj
 0003:000043e4       __wpgmptr                  100983e4     LIBCMT:crt0dat.obj
 0003:000043e8       __exitflag                 100983e8     LIBCMT:crt0dat.obj
 0003:000043ec       __C_Termination_Done       100983ec     LIBCMT:crt0dat.obj
 0003:000043f0       __C_Exit_Done              100983f0     LIBCMT:crt0dat.obj
 0003:0000470c       ?_pnhHeap@@3P6AHI@ZA       1009870c     LIBCMT:handler.obj
 0003:00004710       __newmode                  10098710     LIBCMT:_newmode.obj
 0003:00004714       _gpFlsAlloc                10098714     LIBCMT:tidtable.obj
 0003:00004718       _gpFlsGetValue             10098718     LIBCMT:tidtable.obj
 0003:0000471c       _gpFlsSetValue             1009871c     LIBCMT:tidtable.obj
 0003:00004720       _gpFlsFree                 10098720     LIBCMT:tidtable.obj
 0003:00004724       __maxwait                  10098724     LIBCMT:crtheap.obj
 0003:00004834       ___pInvalidArgHandler      10098834     LIBCMT:invarg.obj
 0003:00004854       ___pPurecall               10098854     LIBCMT:inithelp.obj
 0003:000048e4       ___mbulinfo                100988e4     LIBCMT:mbctype.obj
 0003:000048f0       ___mbcodepage              100988f0     LIBCMT:mbctype.obj
 0003:000048f4       ___ismbcodepage            100988f4     LIBCMT:mbctype.obj
 0003:000048f8       ___mblcid                  100988f8     LIBCMT:mbctype.obj
 0003:000048fc       ___locale_changed          100988fc     LIBCMT:setlocal.obj
 0003:00004900       ___lc_handle               10098900     LIBCMT:nlsdata2.obj
 0003:00004918       ___lc_codepage             10098918     LIBCMT:nlsdata2.obj
 0003:0000491c       ___lc_collate_cp           1009891c     LIBCMT:nlsdata2.obj
 0003:00004920       __outputformat             10098920     LIBCMT:outputformat.obj
 0003:00004928       ?__pInconsistency@@3P6AXXZA 10098928     LIBCMT:hooks.obj
 0003:00004944       __cflush                   10098944     LIBCMT:_file.obj
 0003:00004954       ___lconv_static_null       10098954     LIBCMT:lconv.obj
 0003:00004c7c       __stdbuf                   10098c7c     LIBCMT:_sftbuf.obj
 0003:00004d40       __debugger_hook_dummy      10098d40     <common>
 0003:00004d44       ___piob                    10098d44     <common>
 0003:00004d60       __bufin                    10098d60     <common>
 0003:00005d60       __nstream                  10099d60     <common>
 0003:00005d64       __nhandle                  10099d64     <common>
 0003:00005d80       ___pioinfo                 10099d80     <common>
 0003:00005e80       ___env_initialized         10099e80     <common>
 0003:00005e84       ___onexitend               10099e84     <common>
 0003:00005e88       ___onexitbegin             10099e88     <common>
 0003:00005e8c       ___mbctype_initialized     10099e8c     <common>
 0003:00005e90       ___dyn_tls_init_callback   10099e90     <common>
 0003:00005e94       ___active_heap             10099e94     <common>
 0003:00005e98       __pDestructExceptionObject 10099e98     <common>
 0003:00005e9c       ___sbh_cntHeaderList       10099e9c     <common>
 0003:00005ea0       ___sbh_pHeaderList         10099ea0     <common>
 0003:00005ea4       ___sbh_threshold           10099ea4     <common>
 0003:00005ea8       ___sbh_pHeaderScan         10099ea8     <common>
 0003:00005eac       ___sbh_sizeHeaderList      10099eac     <common>
 0003:00005eb0       ___sbh_indGroupDefer       10099eb0     <common>
 0003:00005eb4       ___use_sse2_mathfcns       10099eb4     <common>
 0003:00005eb8       ___sse2_available          10099eb8     <common>
 0003:00005ebc       __pmatherr                 10099ebc     <common>
 0003:00005ec0       __acmdln                   10099ec0     <common>

 entry point at        0001:000793a6

 Static symbols

 0001:00009d70       ?CompareIslands@@YAHQBVdgIsland@@0PAX@Z 1000ad70 f   physics_2009:dgWorldDynamicUpdate.obj
 0001:0001e090       ?CompareContact@@YAHQBVdgContactPoint@@0PAX@Z 1001f090 f   physics_2009:dgNarrowPhaseCollision.obj
 0001:00068190       ?DetectSSE_3@@YA_NXZ       10069190 f   corelib_2009:dgTypes.obj
 0001:00068190       ?DetectSSE@@YA_NXZ         10069190 f   corelib_2009:dgTypes.obj
 0001:00068880       ?SortVertices@InternalGeoUtil@@YAHQAMHHHHM@Z 10069880 f   corelib_2009:dgTypes.obj
 0001:000692c0       ?QuickSortVertices@InternalGeoUtil@@YAHQAMHHHHM@Z 1006a2c0 f   corelib_2009:dgTypes.obj
 0001:0006a840       ?NormalizeVertex@InternalPolyhedra@@YAXHQAVdgTriplex@@QBMH@Z 1006b840 f   corelib_2009:dgPolyhedra.obj
 0001:0006a990       ?EdgePlane@InternalPolyhedra@@YA?AVdgBigPlane@@HHHQBVdgTriplex@@@Z 1006b990 f   corelib_2009:dgPolyhedra.obj
 0001:0006aab0       ?UnboundedLoopPlane@InternalPolyhedra@@YA?AVdgBigPlane@@HHHQBVdgTriplex@@@Z 1006bab0 f   corelib_2009:dgPolyhedra.obj
 0001:0006ac00       ?BigFaceNormal@InternalPolyhedra@@YA?AVdgBigVector@@PAVdgEdge@@QBMH@Z 1006bc00 f   corelib_2009:dgPolyhedra.obj
 0001:0006ad10       ?CalculateVertexMetrics@InternalPolyhedra@@YAXQAUVERTEX_METRIC_STRUCT@1@QBVdgTriplex@@PAVdgEdge@@@Z 1006bd10 f   corelib_2009:dgPolyhedra.obj
 0001:0006adf0       ?IsEssensialPointDiagonal@InternalPolyhedra@@YA_NPAVdgEdge@@ABVdgBigVector@@QBMH@Z 1006bdf0 f   corelib_2009:dgPolyhedra.obj
 0001:0006b260       ?CalculateAllMetrics@InternalPolyhedra@@YAXPBVdgPolyhedra@@QAUVERTEX_METRIC_STRUCT@1@QBVdgTriplex@@@Z 1006c260 f   corelib_2009:dgPolyhedra.obj
 0001:0006b4f0       ?EdgePenalty@InternalPolyhedra@@YAMABVdgPolyhedra@@QBVdgTriplex@@PAVdgEdge@@@Z 1006c4f0 f   corelib_2009:dgPolyhedra.obj
 0001:0006bbe0       ?GetInteriorDiagonals@InternalPolyhedra@@YAHAAVdgPolyhedra@@QAPAVdgEdge@@H@Z 1006cbe0 f   corelib_2009:dgPolyhedra.obj
 0001:0006bee0       ?MatchTwins@InternalPolyhedra@@YA_NPAVdgPolyhedra@@@Z 1006cee0 f   corelib_2009:dgPolyhedra.obj
 0001:0006bf90       ?FindEarTip@InternalPolyhedra@@YAPAVdgEdge@@ABVdgPolyhedra@@PAV2@QBMHAAV?$dgDownHeap@PAVdgEdge@@M@@ABVdgVector@@@Z 1006cf90 f   corelib_2009:dgPolyhedra.obj
 0001:0006ce10       ?CloseOpenBounds@InternalPolyhedra@@YAXPAVdgPolyhedra@@@Z 1006de10 f   corelib_2009:dgPolyhedra.obj
 0001:0006df90       ?MarkAdjacentCoplanarFaces@InternalPolyhedra@@YAXAAVdgPolyhedra@@0PAVdgEdge@@QBMH@Z 1006ef90 f   corelib_2009:dgPolyhedra.obj
 0001:0006e2c0       ?ConvexPartition@InternalPolyhedra@@YA_NAAVdgPolyhedra@@QBMH@Z 1006f2c0 f   corelib_2009:dgPolyhedra.obj
 0001:0006ed20       ?TriangulateFace@InternalPolyhedra@@YAPAVdgEdge@@AAVdgPolyhedra@@PAV2@QBMHAAV?$dgDownHeap@PAVdgEdge@@M@@PAVdgVector@@@Z 1006fd20 f   corelib_2009:dgPolyhedra.obj
 0001:000792b0       ___DllMainCRTStartup       1007a2b0 f   LIBCMT:dllcrt0.obj
 0001:00079446       __hw_cw                    1007a446 f   LIBCMT:_ieee87_.obj
 0001:000794d4       ___hw_cw_sse2              1007a4d4 f   LIBCMT:_ieee87_.obj
 0001:00079e4a       __onexit_nolock            1007ae4a f   LIBCMT:onexit.obj
 0001:0007a0e6       __callthreadstartex        1007b0e6 f   LIBCMT:threadex.obj
 0001:0007a127       __threadstartex@4          1007b127 f   LIBCMT:threadex.obj
 0001:0007a8e7       __shift                    1007b8e7 f   LIBCMT:cvt.obj
 0001:0007a92c       __cftoe2_l                 1007b92c f   LIBCMT:cvt.obj
 0001:0007aefe       __cftof2_l                 1007befe f   LIBCMT:cvt.obj
 0001:0007c2be       __initterm                 1007d2be f   LIBCMT:crt0dat.obj
 0001:0007c384       _doexit                    1007d384 f   LIBCMT:crt0dat.obj
 0001:0007c7c9       _fastzero_I                1007d7c9 f   LIBCMT:p4_memset.obj
 0001:0007c8af       _fastcopy_I                1007d8af f   LIBCMT:p4_memcpy.obj
 0001:0007d4c0       _parse_cmdline             1007e4c0 f   LIBCMT:stdargv.obj
 0001:0007dc13       _write_char                1007ec13 f   LIBCMT:output.obj
 0001:0007dc46       _write_multi_char          1007ec46 f   LIBCMT:output.obj
 0001:0007dc6c       _write_string              1007ec6c f   LIBCMT:output.obj
 0001:0007eb4c       _siglookup                 1007fb4c f   LIBCMT:winsig.obj
 0001:00080260       __unwind_handler           10081260 f   LIBCMT:exsup.obj
 0001:00080380       _ValidateScopeTableHandlers 10081380 f   LIBCMT:eh3valid.obj
 0001:000808e0       _has_osfxsr_set            100818e0 f   LIBCMT:cpu_disp.obj
 0001:0008122d       ?CPtoLCID@@YAHH@Z          1008222d f   LIBCMT:mbctype.obj
 0001:0008125c       ?setSBCS@@YAXPAUthreadmbcinfostruct@@@Z 1008225c f   LIBCMT:mbctype.obj
 0001:000812c0       ?setSBUpLow@@YAXPAUthreadmbcinfostruct@@@Z 100822c0 f   LIBCMT:mbctype.obj
 0001:000814f7       ?getSystemCP@@YAHH@Z       100824f7 f   LIBCMT:mbctype.obj
 0001:00081b81       __updatetlocinfoEx_nolock  10082b81 f   LIBCMT:setlocal.obj
 0001:000827d8       __unwind_handler4          100837d8 f   LIBCMT:exsup4.obj
 0001:00082f0a       ?x_ismbbtype_l@@YAHPAUlocaleinfo_struct@@IHH@Z 10083f0a f   LIBCMT:ismbbyte.obj
 0001:00084dbe       ?__crtLCMapStringA_stat@@YAHPAUlocaleinfo_struct@@KKPBDHPADHHH@Z 10085dbe f   LIBCMT:a_map.obj
 0001:000851a8       ?__crtGetStringTypeA_stat@@YAHPAUlocaleinfo_struct@@KPBDHPAGHHH@Z 100861a8 f   LIBCMT:a_str.obj
 0001:0008789b       _flsall                    1008889b f   LIBCMT:fflush.obj
 0001:0008797e       ?strtoxl@@YAKPAUlocaleinfo_struct@@PBDPAPBDHH@Z 1008897e f   LIBCMT:strtol.obj
 0001:000884f0       ??__Eg_allocaror@dgInternalMemory@@YAXXZ 100894f0 f   corelib_2009:dgMemory.obj
 0001:00088500       ??__Fg_allocaror@dgInternalMemory@@YAXXZ 10089500 f   corelib_2009:dgMemory.obj
